
tests/tca/sparse/blocksparse_accl_func4x4:     file format elf64-x86-64


Disassembly of section .init:

00000000004009a8 <_init>:
  4009a8:	48 83 ec 08          	sub    $0x8,%rsp
  4009ac:	48 8b 05 45 e6 20 00 	mov    0x20e645(%rip),%rax        # 60eff8 <_DYNAMIC+0x1f0>
  4009b3:	48 85 c0             	test   %rax,%rax
  4009b6:	74 05                	je     4009bd <_init+0x15>
  4009b8:	e8 33 01 00 00       	callq  400af0 <_Unwind_Resume@plt+0x10>
  4009bd:	48 83 c4 08          	add    $0x8,%rsp
  4009c1:	c3                   	retq   

Disassembly of section .plt:

00000000004009d0 <__assert_fail@plt-0x10>:
  4009d0:	ff 35 32 e6 20 00    	pushq  0x20e632(%rip)        # 60f008 <_GLOBAL_OFFSET_TABLE_+0x8>
  4009d6:	ff 25 34 e6 20 00    	jmpq   *0x20e634(%rip)        # 60f010 <_GLOBAL_OFFSET_TABLE_+0x10>
  4009dc:	0f 1f 40 00          	nopl   0x0(%rax)

00000000004009e0 <__assert_fail@plt>:
  4009e0:	ff 25 32 e6 20 00    	jmpq   *0x20e632(%rip)        # 60f018 <_GLOBAL_OFFSET_TABLE_+0x18>
  4009e6:	68 00 00 00 00       	pushq  $0x0
  4009eb:	e9 e0 ff ff ff       	jmpq   4009d0 <_init+0x28>

00000000004009f0 <__printf_chk@plt>:
  4009f0:	ff 25 2a e6 20 00    	jmpq   *0x20e62a(%rip)        # 60f020 <_GLOBAL_OFFSET_TABLE_+0x20>
  4009f6:	68 01 00 00 00       	pushq  $0x1
  4009fb:	e9 d0 ff ff ff       	jmpq   4009d0 <_init+0x28>

0000000000400a00 <malloc@plt>:
  400a00:	ff 25 22 e6 20 00    	jmpq   *0x20e622(%rip)        # 60f028 <_GLOBAL_OFFSET_TABLE_+0x28>
  400a06:	68 02 00 00 00       	pushq  $0x2
  400a0b:	e9 c0 ff ff ff       	jmpq   4009d0 <_init+0x28>

0000000000400a10 <fopen@plt>:
  400a10:	ff 25 1a e6 20 00    	jmpq   *0x20e61a(%rip)        # 60f030 <_GLOBAL_OFFSET_TABLE_+0x30>
  400a16:	68 03 00 00 00       	pushq  $0x3
  400a1b:	e9 b0 ff ff ff       	jmpq   4009d0 <_init+0x28>

0000000000400a20 <__libc_start_main@plt>:
  400a20:	ff 25 12 e6 20 00    	jmpq   *0x20e612(%rip)        # 60f038 <_GLOBAL_OFFSET_TABLE_+0x38>
  400a26:	68 04 00 00 00       	pushq  $0x4
  400a2b:	e9 a0 ff ff ff       	jmpq   4009d0 <_init+0x28>

0000000000400a30 <fgets@plt>:
  400a30:	ff 25 0a e6 20 00    	jmpq   *0x20e60a(%rip)        # 60f040 <_GLOBAL_OFFSET_TABLE_+0x40>
  400a36:	68 05 00 00 00       	pushq  $0x5
  400a3b:	e9 90 ff ff ff       	jmpq   4009d0 <_init+0x28>

0000000000400a40 <free@plt>:
  400a40:	ff 25 02 e6 20 00    	jmpq   *0x20e602(%rip)        # 60f048 <_GLOBAL_OFFSET_TABLE_+0x48>
  400a46:	68 06 00 00 00       	pushq  $0x6
  400a4b:	e9 80 ff ff ff       	jmpq   4009d0 <_init+0x28>

0000000000400a50 <_ZNSt9bad_allocD1Ev@plt>:
  400a50:	ff 25 fa e5 20 00    	jmpq   *0x20e5fa(%rip)        # 60f050 <_GLOBAL_OFFSET_TABLE_+0x50>
  400a56:	68 07 00 00 00       	pushq  $0x7
  400a5b:	e9 70 ff ff ff       	jmpq   4009d0 <_init+0x28>

0000000000400a60 <sscanf@plt>:
  400a60:	ff 25 f2 e5 20 00    	jmpq   *0x20e5f2(%rip)        # 60f058 <_GLOBAL_OFFSET_TABLE_+0x58>
  400a66:	68 08 00 00 00       	pushq  $0x8
  400a6b:	e9 60 ff ff ff       	jmpq   4009d0 <_init+0x28>

0000000000400a70 <strchr@plt>:
  400a70:	ff 25 ea e5 20 00    	jmpq   *0x20e5ea(%rip)        # 60f060 <_GLOBAL_OFFSET_TABLE_+0x60>
  400a76:	68 09 00 00 00       	pushq  $0x9
  400a7b:	e9 50 ff ff ff       	jmpq   4009d0 <_init+0x28>

0000000000400a80 <__stack_chk_fail@plt>:
  400a80:	ff 25 e2 e5 20 00    	jmpq   *0x20e5e2(%rip)        # 60f068 <_GLOBAL_OFFSET_TABLE_+0x68>
  400a86:	68 0a 00 00 00       	pushq  $0xa
  400a8b:	e9 40 ff ff ff       	jmpq   4009d0 <_init+0x28>

0000000000400a90 <__cxa_allocate_exception@plt>:
  400a90:	ff 25 da e5 20 00    	jmpq   *0x20e5da(%rip)        # 60f070 <_GLOBAL_OFFSET_TABLE_+0x70>
  400a96:	68 0b 00 00 00       	pushq  $0xb
  400a9b:	e9 30 ff ff ff       	jmpq   4009d0 <_init+0x28>

0000000000400aa0 <calloc@plt>:
  400aa0:	ff 25 d2 e5 20 00    	jmpq   *0x20e5d2(%rip)        # 60f078 <_GLOBAL_OFFSET_TABLE_+0x78>
  400aa6:	68 0c 00 00 00       	pushq  $0xc
  400aab:	e9 20 ff ff ff       	jmpq   4009d0 <_init+0x28>

0000000000400ab0 <__cxa_throw@plt>:
  400ab0:	ff 25 ca e5 20 00    	jmpq   *0x20e5ca(%rip)        # 60f080 <_GLOBAL_OFFSET_TABLE_+0x80>
  400ab6:	68 0d 00 00 00       	pushq  $0xd
  400abb:	e9 10 ff ff ff       	jmpq   4009d0 <_init+0x28>

0000000000400ac0 <fclose@plt>:
  400ac0:	ff 25 c2 e5 20 00    	jmpq   *0x20e5c2(%rip)        # 60f088 <_GLOBAL_OFFSET_TABLE_+0x88>
  400ac6:	68 0e 00 00 00       	pushq  $0xe
  400acb:	e9 00 ff ff ff       	jmpq   4009d0 <_init+0x28>

0000000000400ad0 <__gxx_personality_v0@plt>:
  400ad0:	ff 25 ba e5 20 00    	jmpq   *0x20e5ba(%rip)        # 60f090 <_GLOBAL_OFFSET_TABLE_+0x90>
  400ad6:	68 0f 00 00 00       	pushq  $0xf
  400adb:	e9 f0 fe ff ff       	jmpq   4009d0 <_init+0x28>

0000000000400ae0 <_Unwind_Resume@plt>:
  400ae0:	ff 25 b2 e5 20 00    	jmpq   *0x20e5b2(%rip)        # 60f098 <_GLOBAL_OFFSET_TABLE_+0x98>
  400ae6:	68 10 00 00 00       	pushq  $0x10
  400aeb:	e9 e0 fe ff ff       	jmpq   4009d0 <_init+0x28>

Disassembly of section .plt.got:

0000000000400af0 <.plt.got>:
  400af0:	ff 25 02 e5 20 00    	jmpq   *0x20e502(%rip)        # 60eff8 <_DYNAMIC+0x1f0>
  400af6:	66 90                	xchg   %ax,%ax

Disassembly of section .text:

0000000000400b00 <main>:
  400b00:	41 57                	push   %r15
  400b02:	41 56                	push   %r14
  400b04:	41 55                	push   %r13
  400b06:	41 54                	push   %r12
  400b08:	45 31 ed             	xor    %r13d,%r13d
  400b0b:	55                   	push   %rbp
  400b0c:	53                   	push   %rbx
  400b0d:	48 83 ec 38          	sub    $0x38,%rsp
  400b11:	48 8b 3d 98 e5 20 00 	mov    0x20e598(%rip),%rdi        # 60f0b0 <filename>
  400b18:	e8 d3 02 00 00       	callq  400df0 <_Z18load_market_matrixPKc>
  400b1d:	48 8b 3d 8c e5 20 00 	mov    0x20e58c(%rip),%rdi        # 60f0b0 <filename>
  400b24:	49 89 c7             	mov    %rax,%r15
  400b27:	e8 c4 02 00 00       	callq  400df0 <_Z18load_market_matrixPKc>
  400b2c:	41 8b 17             	mov    (%r15),%edx
  400b2f:	be 7b a6 40 00       	mov    $0x40a67b,%esi
  400b34:	bf 01 00 00 00       	mov    $0x1,%edi
  400b39:	0f af 10             	imul   (%rax),%edx
  400b3c:	49 89 c6             	mov    %rax,%r14
  400b3f:	31 c0                	xor    %eax,%eax
  400b41:	e8 aa fe ff ff       	callq  4009f0 <__printf_chk@plt>
  400b46:	bf 00 00 80 00       	mov    $0x800000,%edi
  400b4b:	e8 b0 fe ff ff       	callq  400a00 <malloc@plt>
  400b50:	49 8b 77 10          	mov    0x10(%r15),%rsi
  400b54:	45 31 c9             	xor    %r9d,%r9d
  400b57:	48 89 44 24 18       	mov    %rax,0x18(%rsp)
  400b5c:	44 89 cd             	mov    %r9d,%ebp
  400b5f:	31 c0                	xor    %eax,%eax
  400b61:	8b 0c 06             	mov    (%rsi,%rax,1),%ecx
  400b64:	89 cb                	mov    %ecx,%ebx
  400b66:	89 4c 24 20          	mov    %ecx,0x20(%rsp)
  400b6a:	48 8d 48 04          	lea    0x4(%rax),%rcx
  400b6e:	48 89 4c 24 28       	mov    %rcx,0x28(%rsp)
  400b73:	8b 4c 06 04          	mov    0x4(%rsi,%rax,1),%ecx
  400b77:	39 d9                	cmp    %ebx,%ecx
  400b79:	0f 8e 19 01 00 00    	jle    400c98 <main+0x198>
  400b7f:	48 63 fb             	movslq %ebx,%rdi
  400b82:	49 8b 46 10          	mov    0x10(%r14),%rax
  400b86:	49 8b 57 18          	mov    0x18(%r15),%rdx
  400b8a:	48 c1 e7 02          	shl    $0x2,%rdi
  400b8e:	48 89 3c 24          	mov    %rdi,(%rsp)
  400b92:	89 df                	mov    %ebx,%edi
  400b94:	c1 e7 0a             	shl    $0xa,%edi
  400b97:	89 7c 24 24          	mov    %edi,0x24(%rsp)
  400b9b:	0f 1f 44 00 00       	nopl   0x0(%rax,%rax,1)
  400ba0:	48 8b 3c 24          	mov    (%rsp),%rdi
  400ba4:	48 63 3c 3a          	movslq (%rdx,%rdi,1),%rdi
  400ba8:	44 8b 04 b8          	mov    (%rax,%rdi,4),%r8d
  400bac:	44 3b 44 b8 04       	cmp    0x4(%rax,%rdi,4),%r8d
  400bb1:	0f 8d c3 00 00 00    	jge    400c7a <main+0x17a>
  400bb7:	45 89 c1             	mov    %r8d,%r9d
  400bba:	48 63 44 24 24       	movslq 0x24(%rsp),%rax
  400bbf:	41 29 e8             	sub    %ebp,%r8d
  400bc2:	41 c1 e1 0a          	shl    $0xa,%r9d
  400bc6:	44 89 44 24 14       	mov    %r8d,0x14(%rsp)
  400bcb:	4d 63 c9             	movslq %r9d,%r9
  400bce:	4e 8d 24 8d 00 00 00 	lea    0x0(,%r9,4),%r12
  400bd5:	00 
  400bd6:	48 c1 e0 02          	shl    $0x2,%rax
  400bda:	48 89 44 24 08       	mov    %rax,0x8(%rsp)
  400bdf:	4c 89 e0             	mov    %r12,%rax
  400be2:	4d 89 fc             	mov    %r15,%r12
  400be5:	49 89 c7             	mov    %rax,%r15
  400be8:	0f 1f 84 00 00 00 00 	nopl   0x0(%rax,%rax,1)
  400bef:	00 
  400bf0:	0f 31                	rdtsc  
  400bf2:	48 c1 e2 20          	shl    $0x20,%rdx
  400bf6:	48 8b 7c 24 08       	mov    0x8(%rsp),%rdi
  400bfb:	4c 89 fe             	mov    %r15,%rsi
  400bfe:	48 89 d3             	mov    %rdx,%rbx
  400c01:	48 89 ea             	mov    %rbp,%rdx
  400c04:	49 03 76 20          	add    0x20(%r14),%rsi
  400c08:	48 c1 e2 0c          	shl    $0xc,%rdx
  400c0c:	49 03 7c 24 20       	add    0x20(%r12),%rdi
  400c11:	89 c0                	mov    %eax,%eax
  400c13:	81 e2 00 f0 7f 00    	and    $0x7ff000,%edx
  400c19:	48 03 54 24 18       	add    0x18(%rsp),%rdx
  400c1e:	41 b8 20 00 00 00    	mov    $0x20,%r8d
  400c24:	b9 20 00 00 00       	mov    $0x20,%ecx
  400c29:	48 09 c3             	or     %rax,%rbx
  400c2c:	e8 2e 06 00 00       	callq  40125f <_Z12accl_func4x4PfS_S_ii>
  400c31:	0f 31                	rdtsc  
  400c33:	48 c1 e2 20          	shl    $0x20,%rdx
  400c37:	89 c0                	mov    %eax,%eax
  400c39:	48 8b 0c 24          	mov    (%rsp),%rcx
  400c3d:	48 09 d0             	or     %rdx,%rax
  400c40:	49 8b 54 24 18       	mov    0x18(%r12),%rdx
  400c45:	83 c5 01             	add    $0x1,%ebp
  400c48:	48 29 d8             	sub    %rbx,%rax
  400c4b:	8b 5c 24 14          	mov    0x14(%rsp),%ebx
  400c4f:	49 81 c7 00 10 00 00 	add    $0x1000,%r15
  400c56:	49 01 c5             	add    %rax,%r13
  400c59:	49 8b 46 10          	mov    0x10(%r14),%rax
  400c5d:	48 63 34 0a          	movslq (%rdx,%rcx,1),%rsi
  400c61:	8d 0c 2b             	lea    (%rbx,%rbp,1),%ecx
  400c64:	39 4c b0 04          	cmp    %ecx,0x4(%rax,%rsi,4)
  400c68:	7f 86                	jg     400bf0 <main+0xf0>
  400c6a:	49 8b 74 24 10       	mov    0x10(%r12),%rsi
  400c6f:	48 8b 4c 24 28       	mov    0x28(%rsp),%rcx
  400c74:	4d 89 e7             	mov    %r12,%r15
  400c77:	8b 0c 0e             	mov    (%rsi,%rcx,1),%ecx
  400c7a:	83 44 24 20 01       	addl   $0x1,0x20(%rsp)
  400c7f:	48 83 04 24 04       	addq   $0x4,(%rsp)
  400c84:	8b 7c 24 20          	mov    0x20(%rsp),%edi
  400c88:	81 44 24 24 00 04 00 	addl   $0x400,0x24(%rsp)
  400c8f:	00 
  400c90:	39 cf                	cmp    %ecx,%edi
  400c92:	0f 8c 08 ff ff ff    	jl     400ba0 <main+0xa0>
  400c98:	48 8b 44 24 28       	mov    0x28(%rsp),%rax
  400c9d:	48 83 f8 28          	cmp    $0x28,%rax
  400ca1:	0f 85 ba fe ff ff    	jne    400b61 <main+0x61>
  400ca7:	4c 89 e9             	mov    %r13,%rcx
  400caa:	89 ea                	mov    %ebp,%edx
  400cac:	be 18 a7 40 00       	mov    $0x40a718,%esi
  400cb1:	bf 01 00 00 00       	mov    $0x1,%edi
  400cb6:	31 c0                	xor    %eax,%eax
  400cb8:	e8 33 fd ff ff       	callq  4009f0 <__printf_chk@plt>
  400cbd:	4c 89 ff             	mov    %r15,%rdi
  400cc0:	e8 0b 04 00 00       	callq  4010d0 <_Z18free_market_matrixP6bcsr_t>
  400cc5:	4c 89 f7             	mov    %r14,%rdi
  400cc8:	e8 03 04 00 00       	callq  4010d0 <_Z18free_market_matrixP6bcsr_t>
  400ccd:	48 8b 7c 24 18       	mov    0x18(%rsp),%rdi
  400cd2:	e8 69 fd ff ff       	callq  400a40 <free@plt>
  400cd7:	48 83 c4 38          	add    $0x38,%rsp
  400cdb:	b8 01 00 00 00       	mov    $0x1,%eax
  400ce0:	5b                   	pop    %rbx
  400ce1:	5d                   	pop    %rbp
  400ce2:	41 5c                	pop    %r12
  400ce4:	41 5d                	pop    %r13
  400ce6:	41 5e                	pop    %r14
  400ce8:	41 5f                	pop    %r15
  400cea:	c3                   	retq   
  400ceb:	0f 1f 44 00 00       	nopl   0x0(%rax,%rax,1)

0000000000400cf0 <_start>:
  400cf0:	31 ed                	xor    %ebp,%ebp
  400cf2:	49 89 d1             	mov    %rdx,%r9
  400cf5:	5e                   	pop    %rsi
  400cf6:	48 89 e2             	mov    %rsp,%rdx
  400cf9:	48 83 e4 f0          	and    $0xfffffffffffffff0,%rsp
  400cfd:	50                   	push   %rax
  400cfe:	54                   	push   %rsp
  400cff:	49 c7 c0 40 a6 40 00 	mov    $0x40a640,%r8
  400d06:	48 c7 c1 d0 a5 40 00 	mov    $0x40a5d0,%rcx
  400d0d:	48 c7 c7 00 0b 40 00 	mov    $0x400b00,%rdi
  400d14:	e8 07 fd ff ff       	callq  400a20 <__libc_start_main@plt>
  400d19:	f4                   	hlt    
  400d1a:	66 0f 1f 44 00 00    	nopw   0x0(%rax,%rax,1)

0000000000400d20 <deregister_tm_clones>:
  400d20:	b8 bf f0 60 00       	mov    $0x60f0bf,%eax
  400d25:	55                   	push   %rbp
  400d26:	48 2d b8 f0 60 00    	sub    $0x60f0b8,%rax
  400d2c:	48 83 f8 0e          	cmp    $0xe,%rax
  400d30:	48 89 e5             	mov    %rsp,%rbp
  400d33:	76 1b                	jbe    400d50 <deregister_tm_clones+0x30>
  400d35:	b8 00 00 00 00       	mov    $0x0,%eax
  400d3a:	48 85 c0             	test   %rax,%rax
  400d3d:	74 11                	je     400d50 <deregister_tm_clones+0x30>
  400d3f:	5d                   	pop    %rbp
  400d40:	bf b8 f0 60 00       	mov    $0x60f0b8,%edi
  400d45:	ff e0                	jmpq   *%rax
  400d47:	66 0f 1f 84 00 00 00 	nopw   0x0(%rax,%rax,1)
  400d4e:	00 00 
  400d50:	5d                   	pop    %rbp
  400d51:	c3                   	retq   
  400d52:	0f 1f 40 00          	nopl   0x0(%rax)
  400d56:	66 2e 0f 1f 84 00 00 	nopw   %cs:0x0(%rax,%rax,1)
  400d5d:	00 00 00 

0000000000400d60 <register_tm_clones>:
  400d60:	be b8 f0 60 00       	mov    $0x60f0b8,%esi
  400d65:	55                   	push   %rbp
  400d66:	48 81 ee b8 f0 60 00 	sub    $0x60f0b8,%rsi
  400d6d:	48 c1 fe 03          	sar    $0x3,%rsi
  400d71:	48 89 e5             	mov    %rsp,%rbp
  400d74:	48 89 f0             	mov    %rsi,%rax
  400d77:	48 c1 e8 3f          	shr    $0x3f,%rax
  400d7b:	48 01 c6             	add    %rax,%rsi
  400d7e:	48 d1 fe             	sar    %rsi
  400d81:	74 15                	je     400d98 <register_tm_clones+0x38>
  400d83:	b8 00 00 00 00       	mov    $0x0,%eax
  400d88:	48 85 c0             	test   %rax,%rax
  400d8b:	74 0b                	je     400d98 <register_tm_clones+0x38>
  400d8d:	5d                   	pop    %rbp
  400d8e:	bf b8 f0 60 00       	mov    $0x60f0b8,%edi
  400d93:	ff e0                	jmpq   *%rax
  400d95:	0f 1f 00             	nopl   (%rax)
  400d98:	5d                   	pop    %rbp
  400d99:	c3                   	retq   
  400d9a:	66 0f 1f 44 00 00    	nopw   0x0(%rax,%rax,1)

0000000000400da0 <__do_global_dtors_aux>:
  400da0:	80 3d 81 e3 20 00 00 	cmpb   $0x0,0x20e381(%rip)        # 60f128 <completed.7594>
  400da7:	75 11                	jne    400dba <__do_global_dtors_aux+0x1a>
  400da9:	55                   	push   %rbp
  400daa:	48 89 e5             	mov    %rsp,%rbp
  400dad:	e8 6e ff ff ff       	callq  400d20 <deregister_tm_clones>
  400db2:	5d                   	pop    %rbp
  400db3:	c6 05 6e e3 20 00 01 	movb   $0x1,0x20e36e(%rip)        # 60f128 <completed.7594>
  400dba:	f3 c3                	repz retq 
  400dbc:	0f 1f 40 00          	nopl   0x0(%rax)

0000000000400dc0 <frame_dummy>:
  400dc0:	bf 00 ee 60 00       	mov    $0x60ee00,%edi
  400dc5:	48 83 3f 00          	cmpq   $0x0,(%rdi)
  400dc9:	75 05                	jne    400dd0 <frame_dummy+0x10>
  400dcb:	eb 93                	jmp    400d60 <register_tm_clones>
  400dcd:	0f 1f 00             	nopl   (%rax)
  400dd0:	b8 00 00 00 00       	mov    $0x0,%eax
  400dd5:	48 85 c0             	test   %rax,%rax
  400dd8:	74 f1                	je     400dcb <frame_dummy+0xb>
  400dda:	55                   	push   %rbp
  400ddb:	48 89 e5             	mov    %rsp,%rbp
  400dde:	ff d0                	callq  *%rax
  400de0:	5d                   	pop    %rbp
  400de1:	e9 7a ff ff ff       	jmpq   400d60 <register_tm_clones>
  400de6:	66 2e 0f 1f 84 00 00 	nopw   %cs:0x0(%rax,%rax,1)
  400ded:	00 00 00 

0000000000400df0 <_Z18load_market_matrixPKc>:
  400df0:	41 56                	push   %r14
  400df2:	41 55                	push   %r13
  400df4:	be 64 a6 40 00       	mov    $0x40a664,%esi
  400df9:	41 54                	push   %r12
  400dfb:	55                   	push   %rbp
  400dfc:	53                   	push   %rbx
  400dfd:	48 81 ec 30 04 00 00 	sub    $0x430,%rsp
  400e04:	64 48 8b 04 25 28 00 	mov    %fs:0x28,%rax
  400e0b:	00 00 
  400e0d:	48 89 84 24 28 04 00 	mov    %rax,0x428(%rsp)
  400e14:	00 
  400e15:	31 c0                	xor    %eax,%eax
  400e17:	e8 f4 fb ff ff       	callq  400a10 <fopen@plt>
  400e1c:	be 28 00 00 00       	mov    $0x28,%esi
  400e21:	bf 01 00 00 00       	mov    $0x1,%edi
  400e26:	48 89 c5             	mov    %rax,%rbp
  400e29:	e8 72 fc ff ff       	callq  400aa0 <calloc@plt>
  400e2e:	c7 44 24 14 00 00 00 	movl   $0x0,0x14(%rsp)
  400e35:	00 
  400e36:	48 89 c3             	mov    %rax,%rbx
  400e39:	c7 44 24 18 00 00 00 	movl   $0x0,0x18(%rsp)
  400e40:	00 
  400e41:	c7 44 24 1c 00 00 00 	movl   $0x0,0x1c(%rsp)
  400e48:	00 
  400e49:	eb 1d                	jmp    400e68 <_Z18load_market_matrixPKc+0x78>
  400e4b:	0f 1f 44 00 00       	nopl   0x0(%rax,%rax,1)
  400e50:	48 8d 7c 24 20       	lea    0x20(%rsp),%rdi
  400e55:	be 25 00 00 00       	mov    $0x25,%esi
  400e5a:	e8 11 fc ff ff       	callq  400a70 <strchr@plt>
  400e5f:	48 85 c0             	test   %rax,%rax
  400e62:	0f 84 3a 01 00 00    	je     400fa2 <_Z18load_market_matrixPKc+0x1b2>
  400e68:	48 8d 7c 24 20       	lea    0x20(%rsp),%rdi
  400e6d:	48 89 ea             	mov    %rbp,%rdx
  400e70:	be 00 04 00 00       	mov    $0x400,%esi
  400e75:	e8 b6 fb ff ff       	callq  400a30 <fgets@plt>
  400e7a:	48 85 c0             	test   %rax,%rax
  400e7d:	75 d1                	jne    400e50 <_Z18load_market_matrixPKc+0x60>
  400e7f:	8b 13                	mov    (%rbx),%edx
  400e81:	be 70 a6 40 00       	mov    $0x40a670,%esi
  400e86:	bf 01 00 00 00       	mov    $0x1,%edi
  400e8b:	31 c0                	xor    %eax,%eax
  400e8d:	e8 5e fb ff ff       	callq  4009f0 <__printf_chk@plt>
  400e92:	48 63 3b             	movslq (%rbx),%rdi
  400e95:	be 04 00 00 00       	mov    $0x4,%esi
  400e9a:	49 89 fe             	mov    %rdi,%r14
  400e9d:	41 c1 e6 0a          	shl    $0xa,%r14d
  400ea1:	e8 fa fb ff ff       	callq  400aa0 <calloc@plt>
  400ea6:	49 63 fe             	movslq %r14d,%rdi
  400ea9:	48 89 43 18          	mov    %rax,0x18(%rbx)
  400ead:	be 04 00 00 00       	mov    $0x4,%esi
  400eb2:	49 89 c5             	mov    %rax,%r13
  400eb5:	e8 e6 fb ff ff       	callq  400aa0 <calloc@plt>
  400eba:	48 89 43 20          	mov    %rax,0x20(%rbx)
  400ebe:	48 63 43 04          	movslq 0x4(%rbx),%rax
  400ec2:	31 d2                	xor    %edx,%edx
  400ec4:	4c 8b 53 10          	mov    0x10(%rbx),%r10
  400ec8:	85 c0                	test   %eax,%eax
  400eca:	7e 4f                	jle    400f1b <_Z18load_market_matrixPKc+0x12b>
  400ecc:	4d 89 d1             	mov    %r10,%r9
  400ecf:	45 31 c0             	xor    %r8d,%r8d
  400ed2:	31 d2                	xor    %edx,%edx
  400ed4:	0f 1f 40 00          	nopl   0x0(%rax)
  400ed8:	41 89 11             	mov    %edx,(%r9)
  400edb:	8b 4b 08             	mov    0x8(%rbx),%ecx
  400ede:	85 c9                	test   %ecx,%ecx
  400ee0:	7e 28                	jle    400f0a <_Z18load_market_matrixPKc+0x11a>
  400ee2:	44 89 c0             	mov    %r8d,%eax
  400ee5:	0f af c1             	imul   %ecx,%eax
  400ee8:	48 98                	cltq   
  400eea:	49 8d 34 84          	lea    (%r12,%rax,4),%rsi
  400eee:	31 c0                	xor    %eax,%eax
  400ef0:	8b 3c 86             	mov    (%rsi,%rax,4),%edi
  400ef3:	85 ff                	test   %edi,%edi
  400ef5:	74 0b                	je     400f02 <_Z18load_market_matrixPKc+0x112>
  400ef7:	48 63 fa             	movslq %edx,%rdi
  400efa:	83 c2 01             	add    $0x1,%edx
  400efd:	41 89 44 bd 00       	mov    %eax,0x0(%r13,%rdi,4)
  400f02:	48 83 c0 01          	add    $0x1,%rax
  400f06:	39 c1                	cmp    %eax,%ecx
  400f08:	7f e6                	jg     400ef0 <_Z18load_market_matrixPKc+0x100>
  400f0a:	48 63 43 04          	movslq 0x4(%rbx),%rax
  400f0e:	41 83 c0 01          	add    $0x1,%r8d
  400f12:	49 83 c1 04          	add    $0x4,%r9
  400f16:	44 39 c0             	cmp    %r8d,%eax
  400f19:	7f bd                	jg     400ed8 <_Z18load_market_matrixPKc+0xe8>
  400f1b:	41 89 14 82          	mov    %edx,(%r10,%rax,4)
  400f1f:	8b 44 24 18          	mov    0x18(%rsp),%eax
  400f23:	be d0 a6 40 00       	mov    $0x40a6d0,%esi
  400f28:	8b 54 24 1c          	mov    0x1c(%rsp),%edx
  400f2c:	66 0f ef c0          	pxor   %xmm0,%xmm0
  400f30:	66 0f ef c9          	pxor   %xmm1,%xmm1
  400f34:	bf 01 00 00 00       	mov    $0x1,%edi
  400f39:	c1 e0 02             	shl    $0x2,%eax
  400f3c:	8d 14 d0             	lea    (%rax,%rdx,8),%edx
  400f3f:	8b 03                	mov    (%rbx),%eax
  400f41:	f3 0f 2a ca          	cvtsi2ss %edx,%xmm1
  400f45:	89 c1                	mov    %eax,%ecx
  400f47:	c1 e1 0a             	shl    $0xa,%ecx
  400f4a:	01 c1                	add    %eax,%ecx
  400f4c:	03 4b 04             	add    0x4(%rbx),%ecx
  400f4f:	b8 01 00 00 00       	mov    $0x1,%eax
  400f54:	c1 e1 02             	shl    $0x2,%ecx
  400f57:	f3 0f 2a c1          	cvtsi2ss %ecx,%xmm0
  400f5b:	f3 0f 5e c1          	divss  %xmm1,%xmm0
  400f5f:	f3 0f 5a c0          	cvtss2sd %xmm0,%xmm0
  400f63:	e8 88 fa ff ff       	callq  4009f0 <__printf_chk@plt>
  400f68:	4c 89 e7             	mov    %r12,%rdi
  400f6b:	e8 d0 fa ff ff       	callq  400a40 <free@plt>
  400f70:	48 89 ef             	mov    %rbp,%rdi
  400f73:	e8 48 fb ff ff       	callq  400ac0 <fclose@plt>
  400f78:	48 89 d8             	mov    %rbx,%rax
  400f7b:	48 8b 9c 24 28 04 00 	mov    0x428(%rsp),%rbx
  400f82:	00 
  400f83:	64 48 33 1c 25 28 00 	xor    %fs:0x28,%rbx
  400f8a:	00 00 
  400f8c:	0f 85 2a 01 00 00    	jne    4010bc <_Z18load_market_matrixPKc+0x2cc>
  400f92:	48 81 c4 30 04 00 00 	add    $0x430,%rsp
  400f99:	5b                   	pop    %rbx
  400f9a:	5d                   	pop    %rbp
  400f9b:	41 5c                	pop    %r12
  400f9d:	41 5d                	pop    %r13
  400f9f:	41 5e                	pop    %r14
  400fa1:	c3                   	retq   
  400fa2:	44 8b 4c 24 14       	mov    0x14(%rsp),%r9d
  400fa7:	45 85 c9             	test   %r9d,%r9d
  400faa:	74 6f                	je     40101b <_Z18load_market_matrixPKc+0x22b>
  400fac:	48 8d 4c 24 10       	lea    0x10(%rsp),%rcx
  400fb1:	48 8d 54 24 0c       	lea    0xc(%rsp),%rdx
  400fb6:	48 8d 7c 24 20       	lea    0x20(%rsp),%rdi
  400fbb:	be 69 a6 40 00       	mov    $0x40a669,%esi
  400fc0:	31 c0                	xor    %eax,%eax
  400fc2:	e8 99 fa ff ff       	callq  400a60 <sscanf@plt>
  400fc7:	8b 54 24 10          	mov    0x10(%rsp),%edx
  400fcb:	8b 44 24 0c          	mov    0xc(%rsp),%eax
  400fcf:	8d 4a ff             	lea    -0x1(%rdx),%ecx
  400fd2:	83 c2 1e             	add    $0x1e,%edx
  400fd5:	8d 70 ff             	lea    -0x1(%rax),%esi
  400fd8:	85 c9                	test   %ecx,%ecx
  400fda:	89 4c 24 10          	mov    %ecx,0x10(%rsp)
  400fde:	89 74 24 0c          	mov    %esi,0xc(%rsp)
  400fe2:	0f 48 ca             	cmovs  %edx,%ecx
  400fe5:	8d 50 1e             	lea    0x1e(%rax),%edx
  400fe8:	89 f0                	mov    %esi,%eax
  400fea:	c1 f9 05             	sar    $0x5,%ecx
  400fed:	0f af 4b 08          	imul   0x8(%rbx),%ecx
  400ff1:	85 f6                	test   %esi,%esi
  400ff3:	0f 48 c2             	cmovs  %edx,%eax
  400ff6:	c1 f8 05             	sar    $0x5,%eax
  400ff9:	01 c8                	add    %ecx,%eax
  400ffb:	48 98                	cltq   
  400ffd:	49 8d 14 84          	lea    (%r12,%rax,4),%rdx
  401001:	44 8b 02             	mov    (%rdx),%r8d
  401004:	45 85 c0             	test   %r8d,%r8d
  401007:	0f 85 5b fe ff ff    	jne    400e68 <_Z18load_market_matrixPKc+0x78>
  40100d:	8b 03                	mov    (%rbx),%eax
  40100f:	83 c0 01             	add    $0x1,%eax
  401012:	89 02                	mov    %eax,(%rdx)
  401014:	89 03                	mov    %eax,(%rbx)
  401016:	e9 4d fe ff ff       	jmpq   400e68 <_Z18load_market_matrixPKc+0x78>
  40101b:	4c 8d 44 24 1c       	lea    0x1c(%rsp),%r8
  401020:	48 8d 4c 24 18       	lea    0x18(%rsp),%rcx
  401025:	48 8d 54 24 14       	lea    0x14(%rsp),%rdx
  40102a:	48 8d 7c 24 20       	lea    0x20(%rsp),%rdi
  40102f:	be 66 a6 40 00       	mov    $0x40a666,%esi
  401034:	e8 27 fa ff ff       	callq  400a60 <sscanf@plt>
  401039:	8b 54 24 14          	mov    0x14(%rsp),%edx
  40103d:	be 04 00 00 00       	mov    $0x4,%esi
  401042:	8d 42 3e             	lea    0x3e(%rdx),%eax
  401045:	83 c2 1f             	add    $0x1f,%edx
  401048:	41 89 d4             	mov    %edx,%r12d
  40104b:	8b 54 24 18          	mov    0x18(%rsp),%edx
  40104f:	44 0f 48 e0          	cmovs  %eax,%r12d
  401053:	41 c1 fc 05          	sar    $0x5,%r12d
  401057:	8d 42 3e             	lea    0x3e(%rdx),%eax
  40105a:	83 c2 1f             	add    $0x1f,%edx
  40105d:	41 8d 7c 24 01       	lea    0x1(%r12),%edi
  401062:	41 89 d5             	mov    %edx,%r13d
  401065:	44 89 63 04          	mov    %r12d,0x4(%rbx)
  401069:	44 0f 48 e8          	cmovs  %eax,%r13d
  40106d:	48 63 ff             	movslq %edi,%rdi
  401070:	41 c1 fd 05          	sar    $0x5,%r13d
  401074:	44 89 6b 08          	mov    %r13d,0x8(%rbx)
  401078:	e8 23 fa ff ff       	callq  400aa0 <calloc@plt>
  40107d:	8b 4c 24 18          	mov    0x18(%rsp),%ecx
  401081:	8b 54 24 14          	mov    0x14(%rsp),%edx
  401085:	45 89 e0             	mov    %r12d,%r8d
  401088:	48 89 43 10          	mov    %rax,0x10(%rbx)
  40108c:	45 89 e9             	mov    %r13d,%r9d
  40108f:	be a0 a6 40 00       	mov    $0x40a6a0,%esi
  401094:	bf 01 00 00 00       	mov    $0x1,%edi
  401099:	31 c0                	xor    %eax,%eax
  40109b:	e8 50 f9 ff ff       	callq  4009f0 <__printf_chk@plt>
  4010a0:	8b 7b 08             	mov    0x8(%rbx),%edi
  4010a3:	be 04 00 00 00       	mov    $0x4,%esi
  4010a8:	0f af 7b 04          	imul   0x4(%rbx),%edi
  4010ac:	48 63 ff             	movslq %edi,%rdi
  4010af:	e8 ec f9 ff ff       	callq  400aa0 <calloc@plt>
  4010b4:	49 89 c4             	mov    %rax,%r12
  4010b7:	e9 ac fd ff ff       	jmpq   400e68 <_Z18load_market_matrixPKc+0x78>
  4010bc:	e8 bf f9 ff ff       	callq  400a80 <__stack_chk_fail@plt>
  4010c1:	0f 1f 44 00 00       	nopl   0x0(%rax,%rax,1)
  4010c6:	66 2e 0f 1f 84 00 00 	nopw   %cs:0x0(%rax,%rax,1)
  4010cd:	00 00 00 

00000000004010d0 <_Z18free_market_matrixP6bcsr_t>:
  4010d0:	53                   	push   %rbx
  4010d1:	48 89 fb             	mov    %rdi,%rbx
  4010d4:	48 8b 7f 10          	mov    0x10(%rdi),%rdi
  4010d8:	e8 63 f9 ff ff       	callq  400a40 <free@plt>
  4010dd:	48 8b 7b 18          	mov    0x18(%rbx),%rdi
  4010e1:	e8 5a f9 ff ff       	callq  400a40 <free@plt>
  4010e6:	48 8b 7b 20          	mov    0x20(%rbx),%rdi
  4010ea:	e8 51 f9 ff ff       	callq  400a40 <free@plt>
  4010ef:	48 89 df             	mov    %rbx,%rdi
  4010f2:	5b                   	pop    %rbx
  4010f3:	e9 48 f9 ff ff       	jmpq   400a40 <free@plt>

00000000004010f8 <_Z9loop_multPfS_S_ii>:
  4010f8:	55                   	push   %rbp
  4010f9:	48 89 e5             	mov    %rsp,%rbp
  4010fc:	48 89 7d e8          	mov    %rdi,-0x18(%rbp)
  401100:	48 89 75 e0          	mov    %rsi,-0x20(%rbp)
  401104:	48 89 55 d8          	mov    %rdx,-0x28(%rbp)
  401108:	89 4d d4             	mov    %ecx,-0x2c(%rbp)
  40110b:	44 89 45 d0          	mov    %r8d,-0x30(%rbp)
  40110f:	c7 45 f4 00 00 00 00 	movl   $0x0,-0xc(%rbp)
  401116:	83 7d f4 1f          	cmpl   $0x1f,-0xc(%rbp)
  40111a:	0f 8f d1 00 00 00    	jg     4011f1 <_Z9loop_multPfS_S_ii+0xf9>
  401120:	c7 45 f8 00 00 00 00 	movl   $0x0,-0x8(%rbp)
  401127:	83 7d f8 1f          	cmpl   $0x1f,-0x8(%rbp)
  40112b:	0f 8f b7 00 00 00    	jg     4011e8 <_Z9loop_multPfS_S_ii+0xf0>
  401131:	c7 45 fc 00 00 00 00 	movl   $0x0,-0x4(%rbp)
  401138:	83 7d fc 1f          	cmpl   $0x1f,-0x4(%rbp)
  40113c:	0f 8f 9d 00 00 00    	jg     4011df <_Z9loop_multPfS_S_ii+0xe7>
  401142:	8b 45 f4             	mov    -0xc(%rbp),%eax
  401145:	0f af 45 d0          	imul   -0x30(%rbp),%eax
  401149:	89 c2                	mov    %eax,%edx
  40114b:	8b 45 f8             	mov    -0x8(%rbp),%eax
  40114e:	01 d0                	add    %edx,%eax
  401150:	48 98                	cltq   
  401152:	48 8d 14 85 00 00 00 	lea    0x0(,%rax,4),%rdx
  401159:	00 
  40115a:	48 8b 45 d8          	mov    -0x28(%rbp),%rax
  40115e:	48 01 c2             	add    %rax,%rdx
  401161:	8b 45 f4             	mov    -0xc(%rbp),%eax
  401164:	0f af 45 d0          	imul   -0x30(%rbp),%eax
  401168:	89 c1                	mov    %eax,%ecx
  40116a:	8b 45 f8             	mov    -0x8(%rbp),%eax
  40116d:	01 c8                	add    %ecx,%eax
  40116f:	48 98                	cltq   
  401171:	48 8d 0c 85 00 00 00 	lea    0x0(,%rax,4),%rcx
  401178:	00 
  401179:	48 8b 45 d8          	mov    -0x28(%rbp),%rax
  40117d:	48 01 c8             	add    %rcx,%rax
  401180:	f3 0f 10 08          	movss  (%rax),%xmm1
  401184:	8b 45 f4             	mov    -0xc(%rbp),%eax
  401187:	0f af 45 d4          	imul   -0x2c(%rbp),%eax
  40118b:	89 c1                	mov    %eax,%ecx
  40118d:	8b 45 fc             	mov    -0x4(%rbp),%eax
  401190:	01 c8                	add    %ecx,%eax
  401192:	48 98                	cltq   
  401194:	48 8d 0c 85 00 00 00 	lea    0x0(,%rax,4),%rcx
  40119b:	00 
  40119c:	48 8b 45 e8          	mov    -0x18(%rbp),%rax
  4011a0:	48 01 c8             	add    %rcx,%rax
  4011a3:	f3 0f 10 10          	movss  (%rax),%xmm2
  4011a7:	8b 45 fc             	mov    -0x4(%rbp),%eax
  4011aa:	0f af 45 d0          	imul   -0x30(%rbp),%eax
  4011ae:	89 c1                	mov    %eax,%ecx
  4011b0:	8b 45 f8             	mov    -0x8(%rbp),%eax
  4011b3:	01 c8                	add    %ecx,%eax
  4011b5:	48 98                	cltq   
  4011b7:	48 8d 0c 85 00 00 00 	lea    0x0(,%rax,4),%rcx
  4011be:	00 
  4011bf:	48 8b 45 e0          	mov    -0x20(%rbp),%rax
  4011c3:	48 01 c8             	add    %rcx,%rax
  4011c6:	f3 0f 10 00          	movss  (%rax),%xmm0
  4011ca:	f3 0f 59 c2          	mulss  %xmm2,%xmm0
  4011ce:	f3 0f 58 c1          	addss  %xmm1,%xmm0
  4011d2:	f3 0f 11 02          	movss  %xmm0,(%rdx)
  4011d6:	83 45 fc 01          	addl   $0x1,-0x4(%rbp)
  4011da:	e9 59 ff ff ff       	jmpq   401138 <_Z9loop_multPfS_S_ii+0x40>
  4011df:	83 45 f8 01          	addl   $0x1,-0x8(%rbp)
  4011e3:	e9 3f ff ff ff       	jmpq   401127 <_Z9loop_multPfS_S_ii+0x2f>
  4011e8:	83 45 f4 01          	addl   $0x1,-0xc(%rbp)
  4011ec:	e9 25 ff ff ff       	jmpq   401116 <_Z9loop_multPfS_S_ii+0x1e>
  4011f1:	90                   	nop
  4011f2:	5d                   	pop    %rbp
  4011f3:	c3                   	retq   

00000000004011f4 <_Z6vectorPN5Eigen6MatrixIfLi32ELi32ELi0ELi32ELi32EEES2_S2_>:
  4011f4:	55                   	push   %rbp
  4011f5:	48 89 e5             	mov    %rsp,%rbp
  4011f8:	48 83 ec 40          	sub    $0x40,%rsp
  4011fc:	48 89 7d d8          	mov    %rdi,-0x28(%rbp)
  401200:	48 89 75 d0          	mov    %rsi,-0x30(%rbp)
  401204:	48 89 55 c8          	mov    %rdx,-0x38(%rbp)
  401208:	64 48 8b 04 25 28 00 	mov    %fs:0x28,%rax
  40120f:	00 00 
  401211:	48 89 45 f8          	mov    %rax,-0x8(%rbp)
  401215:	31 c0                	xor    %eax,%eax
  401217:	48 8b 55 d0          	mov    -0x30(%rbp),%rdx
  40121b:	48 8b 45 d8          	mov    -0x28(%rbp),%rax
  40121f:	48 89 d6             	mov    %rdx,%rsi
  401222:	48 89 c7             	mov    %rax,%rdi
  401225:	e8 86 06 00 00       	callq  4018b0 <_ZNK5Eigen10MatrixBaseINS_6MatrixIfLi32ELi32ELi0ELi32ELi32EEEEmlIS2_EEKNS_7ProductIS2_T_Li0EEERKNS0_IS6_EE>
  40122a:	48 89 45 e0          	mov    %rax,-0x20(%rbp)
  40122e:	48 89 55 e8          	mov    %rdx,-0x18(%rbp)
  401232:	48 8d 55 e0          	lea    -0x20(%rbp),%rdx
  401236:	48 8b 45 c8          	mov    -0x38(%rbp),%rax
  40123a:	48 89 d6             	mov    %rdx,%rsi
  40123d:	48 89 c7             	mov    %rax,%rdi
  401240:	e8 df 06 00 00       	callq  401924 <_ZN5Eigen10MatrixBaseINS_6MatrixIfLi32ELi32ELi0ELi32ELi32EEEEpLINS_7ProductIS2_S2_Li0EEEEERS2_RKNS0_IT_EE>
  401245:	90                   	nop
  401246:	48 8b 45 f8          	mov    -0x8(%rbp),%rax
  40124a:	64 48 33 04 25 28 00 	xor    %fs:0x28,%rax
  401251:	00 00 
  401253:	74 05                	je     40125a <_Z6vectorPN5Eigen6MatrixIfLi32ELi32ELi0ELi32ELi32EEES2_S2_+0x66>
  401255:	e8 26 f8 ff ff       	callq  400a80 <__stack_chk_fail@plt>
  40125a:	c9                   	leaveq 
  40125b:	c3                   	retq   

000000000040125c <_Z12accl_func2x2PfS_S_ii>:
  40125c:	de e9                	fsubrp %st,%st(1)
  40125e:	c3                   	retq   

000000000040125f <_Z12accl_func4x4PfS_S_ii>:
  40125f:	d9 fc                	frndint 
  401261:	c3                   	retq   

0000000000401262 <_Z12accl_func8x8PfS_S_ii>:
  401262:	d9 fa                	fsqrt  
  401264:	c3                   	retq   
  401265:	90                   	nop

0000000000401266 <_ZNSt9exceptionC1Ev>:
  401266:	55                   	push   %rbp
  401267:	48 89 e5             	mov    %rsp,%rbp
  40126a:	48 89 7d f8          	mov    %rdi,-0x8(%rbp)
  40126e:	ba d0 f0 60 00       	mov    $0x60f0d0,%edx
  401273:	48 8b 45 f8          	mov    -0x8(%rbp),%rax
  401277:	48 89 10             	mov    %rdx,(%rax)
  40127a:	90                   	nop
  40127b:	5d                   	pop    %rbp
  40127c:	c3                   	retq   
  40127d:	90                   	nop

000000000040127e <_ZNSt9bad_allocC1Ev>:
  40127e:	55                   	push   %rbp
  40127f:	48 89 e5             	mov    %rsp,%rbp
  401282:	48 83 ec 10          	sub    $0x10,%rsp
  401286:	48 89 7d f8          	mov    %rdi,-0x8(%rbp)
  40128a:	48 8b 45 f8          	mov    -0x8(%rbp),%rax
  40128e:	48 89 c7             	mov    %rax,%rdi
  401291:	e8 d0 ff ff ff       	callq  401266 <_ZNSt9exceptionC1Ev>
  401296:	ba f8 f0 60 00       	mov    $0x60f0f8,%edx
  40129b:	48 8b 45 f8          	mov    -0x8(%rbp),%rax
  40129f:	48 89 10             	mov    %rdx,(%rax)
  4012a2:	90                   	nop
  4012a3:	c9                   	leaveq 
  4012a4:	c3                   	retq   
  4012a5:	90                   	nop

00000000004012a6 <_ZN5Eigen8internal11noncopyableC1Ev>:
  4012a6:	55                   	push   %rbp
  4012a7:	48 89 e5             	mov    %rsp,%rbp
  4012aa:	48 89 7d f8          	mov    %rdi,-0x8(%rbp)
  4012ae:	90                   	nop
  4012af:	5d                   	pop    %rbp
  4012b0:	c3                   	retq   
  4012b1:	90                   	nop

00000000004012b2 <_ZN5Eigen8internal11noncopyableD1Ev>:
  4012b2:	55                   	push   %rbp
  4012b3:	48 89 e5             	mov    %rsp,%rbp
  4012b6:	48 89 7d f8          	mov    %rdi,-0x8(%rbp)
  4012ba:	90                   	nop
  4012bb:	5d                   	pop    %rbp
  4012bc:	c3                   	retq   

00000000004012bd <_ZN5Eigen8internal19throw_std_bad_allocEv>:
  4012bd:	55                   	push   %rbp
  4012be:	48 89 e5             	mov    %rsp,%rbp
  4012c1:	53                   	push   %rbx
  4012c2:	48 83 ec 08          	sub    $0x8,%rsp
  4012c6:	bf 08 00 00 00       	mov    $0x8,%edi
  4012cb:	e8 c0 f7 ff ff       	callq  400a90 <__cxa_allocate_exception@plt>
  4012d0:	48 89 c3             	mov    %rax,%rbx
  4012d3:	48 89 df             	mov    %rbx,%rdi
  4012d6:	e8 a3 ff ff ff       	callq  40127e <_ZNSt9bad_allocC1Ev>
  4012db:	ba 50 0a 40 00       	mov    $0x400a50,%edx
  4012e0:	be 10 f1 60 00       	mov    $0x60f110,%esi
  4012e5:	48 89 df             	mov    %rbx,%rdi
  4012e8:	e8 c3 f7 ff ff       	callq  400ab0 <__cxa_throw@plt>

00000000004012ed <_ZN5Eigen8internal28check_that_malloc_is_allowedEv>:
  4012ed:	55                   	push   %rbp
  4012ee:	48 89 e5             	mov    %rsp,%rbp
  4012f1:	90                   	nop
  4012f2:	5d                   	pop    %rbp
  4012f3:	c3                   	retq   

00000000004012f4 <_ZN5Eigen8internal14aligned_mallocEm>:
  4012f4:	55                   	push   %rbp
  4012f5:	48 89 e5             	mov    %rsp,%rbp
  4012f8:	48 83 ec 20          	sub    $0x20,%rsp
  4012fc:	48 89 7d e8          	mov    %rdi,-0x18(%rbp)
  401300:	e8 e8 ff ff ff       	callq  4012ed <_ZN5Eigen8internal28check_that_malloc_is_allowedEv>
  401305:	48 8b 45 e8          	mov    -0x18(%rbp),%rax
  401309:	48 89 c7             	mov    %rax,%rdi
  40130c:	e8 ef f6 ff ff       	callq  400a00 <malloc@plt>
  401311:	48 89 45 f8          	mov    %rax,-0x8(%rbp)
  401315:	48 83 7d f8 00       	cmpq   $0x0,-0x8(%rbp)
  40131a:	75 0c                	jne    401328 <_ZN5Eigen8internal14aligned_mallocEm+0x34>
  40131c:	48 83 7d e8 00       	cmpq   $0x0,-0x18(%rbp)
  401321:	74 05                	je     401328 <_ZN5Eigen8internal14aligned_mallocEm+0x34>
  401323:	e8 95 ff ff ff       	callq  4012bd <_ZN5Eigen8internal19throw_std_bad_allocEv>
  401328:	48 8b 45 f8          	mov    -0x8(%rbp),%rax
  40132c:	c9                   	leaveq 
  40132d:	c3                   	retq   

000000000040132e <_ZN5Eigen8internal12aligned_freeEPv>:
  40132e:	55                   	push   %rbp
  40132f:	48 89 e5             	mov    %rsp,%rbp
  401332:	48 83 ec 10          	sub    $0x10,%rsp
  401336:	48 89 7d f8          	mov    %rdi,-0x8(%rbp)
  40133a:	48 8b 45 f8          	mov    -0x8(%rbp),%rax
  40133e:	48 89 c7             	mov    %rax,%rdi
  401341:	e8 fa f6 ff ff       	callq  400a40 <free@plt>
  401346:	90                   	nop
  401347:	c9                   	leaveq 
  401348:	c3                   	retq   

0000000000401349 <_ZN5Eigen8internal5pset1IDv4_fEET_RKNS0_15unpacket_traitsIS3_E4typeE>:
  401349:	55                   	push   %rbp
  40134a:	48 89 e5             	mov    %rsp,%rbp
  40134d:	48 89 7d e8          	mov    %rdi,-0x18(%rbp)
  401351:	48 8b 45 e8          	mov    -0x18(%rbp),%rax
  401355:	f3 0f 10 00          	movss  (%rax),%xmm0
  401359:	f3 0f 11 45 f8       	movss  %xmm0,-0x8(%rbp)
  40135e:	f3 0f 10 45 f8       	movss  -0x8(%rbp),%xmm0
  401363:	f3 0f 11 45 fc       	movss  %xmm0,-0x4(%rbp)
  401368:	f3 0f 10 45 fc       	movss  -0x4(%rbp),%xmm0
  40136d:	0f c6 c0 00          	shufps $0x0,%xmm0,%xmm0
  401371:	90                   	nop
  401372:	5d                   	pop    %rbp
  401373:	c3                   	retq   

0000000000401374 <_ZN5Eigen8internal6pload1IDv4_fEET_PKNS0_15unpacket_traitsIS3_E4typeE>:
  401374:	55                   	push   %rbp
  401375:	48 89 e5             	mov    %rsp,%rbp
  401378:	48 89 7d c8          	mov    %rdi,-0x38(%rbp)
  40137c:	48 8b 45 c8          	mov    -0x38(%rbp),%rax
  401380:	48 89 45 d8          	mov    %rax,-0x28(%rbp)
  401384:	48 8b 45 d8          	mov    -0x28(%rbp),%rax
  401388:	f3 0f 10 00          	movss  (%rax),%xmm0
  40138c:	f3 0f 11 45 d4       	movss  %xmm0,-0x2c(%rbp)
  401391:	f3 0f 10 45 d4       	movss  -0x2c(%rbp),%xmm0
  401396:	f3 0f 11 45 c4       	movss  %xmm0,-0x3c(%rbp)
  40139b:	f3 0f 10 45 c4       	movss  -0x3c(%rbp),%xmm0
  4013a0:	0f 29 45 e0          	movaps %xmm0,-0x20(%rbp)
  4013a4:	66 0f 6f 45 e0       	movdqa -0x20(%rbp),%xmm0
  4013a9:	66 0f 70 c0 00       	pshufd $0x0,%xmm0,%xmm0
  4013ae:	0f 29 45 f0          	movaps %xmm0,-0x10(%rbp)
  4013b2:	0f 28 45 f0          	movaps -0x10(%rbp),%xmm0
  4013b6:	90                   	nop
  4013b7:	5d                   	pop    %rbp
  4013b8:	c3                   	retq   

00000000004013b9 <_ZN5Eigen8internal4paddIDv4_fEET_RKS3_S5_>:
  4013b9:	55                   	push   %rbp
  4013ba:	48 89 e5             	mov    %rsp,%rbp
  4013bd:	48 89 7d d8          	mov    %rdi,-0x28(%rbp)
  4013c1:	48 89 75 d0          	mov    %rsi,-0x30(%rbp)
  4013c5:	48 8b 45 d0          	mov    -0x30(%rbp),%rax
  4013c9:	0f 28 00             	movaps (%rax),%xmm0
  4013cc:	48 8b 45 d8          	mov    -0x28(%rbp),%rax
  4013d0:	0f 28 08             	movaps (%rax),%xmm1
  4013d3:	0f 29 4d e0          	movaps %xmm1,-0x20(%rbp)
  4013d7:	0f 29 45 f0          	movaps %xmm0,-0x10(%rbp)
  4013db:	0f 28 45 e0          	movaps -0x20(%rbp),%xmm0
  4013df:	0f 58 45 f0          	addps  -0x10(%rbp),%xmm0
  4013e3:	90                   	nop
  4013e4:	5d                   	pop    %rbp
  4013e5:	c3                   	retq   

00000000004013e6 <_ZN5Eigen8internal4pmulIDv4_fEET_RKS3_S5_>:
  4013e6:	55                   	push   %rbp
  4013e7:	48 89 e5             	mov    %rsp,%rbp
  4013ea:	48 89 7d d8          	mov    %rdi,-0x28(%rbp)
  4013ee:	48 89 75 d0          	mov    %rsi,-0x30(%rbp)
  4013f2:	48 8b 45 d0          	mov    -0x30(%rbp),%rax
  4013f6:	0f 28 00             	movaps (%rax),%xmm0
  4013f9:	48 8b 45 d8          	mov    -0x28(%rbp),%rax
  4013fd:	0f 28 08             	movaps (%rax),%xmm1
  401400:	0f 29 4d e0          	movaps %xmm1,-0x20(%rbp)
  401404:	0f 29 45 f0          	movaps %xmm0,-0x10(%rbp)
  401408:	0f 28 45 e0          	movaps -0x20(%rbp),%xmm0
  40140c:	0f 59 45 f0          	mulps  -0x10(%rbp),%xmm0
  401410:	90                   	nop
  401411:	5d                   	pop    %rbp
  401412:	c3                   	retq   

0000000000401413 <_ZN5Eigen8internal5ploadIDv4_fEET_PKNS0_15unpacket_traitsIS3_E4typeE>:
  401413:	55                   	push   %rbp
  401414:	48 89 e5             	mov    %rsp,%rbp
  401417:	48 89 7d e8          	mov    %rdi,-0x18(%rbp)
  40141b:	48 8b 45 e8          	mov    -0x18(%rbp),%rax
  40141f:	48 89 45 f8          	mov    %rax,-0x8(%rbp)
  401423:	48 8b 45 f8          	mov    -0x8(%rbp),%rax
  401427:	0f 28 00             	movaps (%rax),%xmm0
  40142a:	90                   	nop
  40142b:	5d                   	pop    %rbp
  40142c:	c3                   	retq   

000000000040142d <_ZN5Eigen8internal6ploaduIDv4_fEET_PKNS0_15unpacket_traitsIS3_E4typeE>:
  40142d:	55                   	push   %rbp
  40142e:	48 89 e5             	mov    %rsp,%rbp
  401431:	48 89 7d e8          	mov    %rdi,-0x18(%rbp)
  401435:	48 8b 45 e8          	mov    -0x18(%rbp),%rax
  401439:	48 89 45 f8          	mov    %rax,-0x8(%rbp)
  40143d:	48 8b 45 f8          	mov    -0x8(%rbp),%rax
  401441:	0f 10 00             	movups (%rax),%xmm0
  401444:	90                   	nop
  401445:	5d                   	pop    %rbp
  401446:	c3                   	retq   

0000000000401447 <_ZN5Eigen8internal6pstoreIfDv4_fEEvPT_RKT0_>:
  401447:	55                   	push   %rbp
  401448:	48 89 e5             	mov    %rsp,%rbp
  40144b:	48 89 7d d8          	mov    %rdi,-0x28(%rbp)
  40144f:	48 89 75 d0          	mov    %rsi,-0x30(%rbp)
  401453:	48 8b 45 d0          	mov    -0x30(%rbp),%rax
  401457:	0f 28 00             	movaps (%rax),%xmm0
  40145a:	48 8b 45 d8          	mov    -0x28(%rbp),%rax
  40145e:	48 89 45 e8          	mov    %rax,-0x18(%rbp)
  401462:	0f 29 45 f0          	movaps %xmm0,-0x10(%rbp)
  401466:	48 8b 45 e8          	mov    -0x18(%rbp),%rax
  40146a:	0f 28 45 f0          	movaps -0x10(%rbp),%xmm0
  40146e:	0f 29 00             	movaps %xmm0,(%rax)
  401471:	90                   	nop
  401472:	5d                   	pop    %rbp
  401473:	c3                   	retq   

0000000000401474 <_ZN5Eigen8internal7pstoreuIfDv4_fEEvPT_RKT0_>:
  401474:	55                   	push   %rbp
  401475:	48 89 e5             	mov    %rsp,%rbp
  401478:	48 89 7d d8          	mov    %rdi,-0x28(%rbp)
  40147c:	48 89 75 d0          	mov    %rsi,-0x30(%rbp)
  401480:	48 8b 45 d0          	mov    -0x30(%rbp),%rax
  401484:	0f 28 00             	movaps (%rax),%xmm0
  401487:	48 8b 45 d8          	mov    -0x28(%rbp),%rax
  40148b:	48 89 45 e8          	mov    %rax,-0x18(%rbp)
  40148f:	0f 29 45 f0          	movaps %xmm0,-0x10(%rbp)
  401493:	48 8b 45 e8          	mov    -0x18(%rbp),%rax
  401497:	0f 28 45 f0          	movaps -0x10(%rbp),%xmm0
  40149b:	0f 11 00             	movups %xmm0,(%rax)
  40149e:	90                   	nop
  40149f:	5d                   	pop    %rbp
  4014a0:	c3                   	retq   

00000000004014a1 <_ZN5Eigen8internal7pgatherIfDv4_fEET0_PKT_l>:
  4014a1:	55                   	push   %rbp
  4014a2:	48 89 e5             	mov    %rsp,%rbp
  4014a5:	48 89 7d e8          	mov    %rdi,-0x18(%rbp)
  4014a9:	48 89 75 e0          	mov    %rsi,-0x20(%rbp)
  4014ad:	48 8b 45 e8          	mov    -0x18(%rbp),%rax
  4014b1:	f3 0f 10 00          	movss  (%rax),%xmm0
  4014b5:	48 8b 45 e0          	mov    -0x20(%rbp),%rax
  4014b9:	48 8d 14 85 00 00 00 	lea    0x0(,%rax,4),%rdx
  4014c0:	00 
  4014c1:	48 8b 45 e8          	mov    -0x18(%rbp),%rax
  4014c5:	48 01 d0             	add    %rdx,%rax
  4014c8:	f3 0f 10 08          	movss  (%rax),%xmm1
  4014cc:	48 8b 45 e0          	mov    -0x20(%rbp),%rax
  4014d0:	48 c1 e0 03          	shl    $0x3,%rax
  4014d4:	48 89 c2             	mov    %rax,%rdx
  4014d7:	48 8b 45 e8          	mov    -0x18(%rbp),%rax
  4014db:	48 01 d0             	add    %rdx,%rax
  4014de:	f3 0f 10 10          	movss  (%rax),%xmm2
  4014e2:	48 8b 55 e0          	mov    -0x20(%rbp),%rdx
  4014e6:	48 89 d0             	mov    %rdx,%rax
  4014e9:	48 01 c0             	add    %rax,%rax
  4014ec:	48 01 d0             	add    %rdx,%rax
  4014ef:	48 c1 e0 02          	shl    $0x2,%rax
  4014f3:	48 89 c2             	mov    %rax,%rdx
  4014f6:	48 8b 45 e8          	mov    -0x18(%rbp),%rax
  4014fa:	48 01 d0             	add    %rdx,%rax
  4014fd:	f3 0f 10 18          	movss  (%rax),%xmm3
  401501:	f3 0f 11 5d f0       	movss  %xmm3,-0x10(%rbp)
  401506:	f3 0f 11 55 f4       	movss  %xmm2,-0xc(%rbp)
  40150b:	f3 0f 11 4d f8       	movss  %xmm1,-0x8(%rbp)
  401510:	f3 0f 11 45 fc       	movss  %xmm0,-0x4(%rbp)
  401515:	f3 0f 10 45 f0       	movss  -0x10(%rbp),%xmm0
  40151a:	f3 0f 10 4d f4       	movss  -0xc(%rbp),%xmm1
  40151f:	0f 28 d1             	movaps %xmm1,%xmm2
  401522:	0f 14 d0             	unpcklps %xmm0,%xmm2
  401525:	f3 0f 10 45 f8       	movss  -0x8(%rbp),%xmm0
  40152a:	f3 0f 10 4d fc       	movss  -0x4(%rbp),%xmm1
  40152f:	0f 28 e1             	movaps %xmm1,%xmm4
  401532:	0f 14 e0             	unpcklps %xmm0,%xmm4
  401535:	0f 28 c4             	movaps %xmm4,%xmm0
  401538:	0f 16 c2             	movlhps %xmm2,%xmm0
  40153b:	90                   	nop
  40153c:	5d                   	pop    %rbp
  40153d:	c3                   	retq   

000000000040153e <_ZN5Eigen8internal8pscatterIfDv4_fEEvPT_RKT0_l>:
  40153e:	55                   	push   %rbp
  40153f:	48 89 e5             	mov    %rsp,%rbp
  401542:	48 83 c4 80          	add    $0xffffffffffffff80,%rsp
  401546:	48 89 7d 98          	mov    %rdi,-0x68(%rbp)
  40154a:	48 89 75 90          	mov    %rsi,-0x70(%rbp)
  40154e:	48 89 55 88          	mov    %rdx,-0x78(%rbp)
  401552:	64 48 8b 04 25 28 00 	mov    %fs:0x28,%rax
  401559:	00 00 
  40155b:	48 89 45 f8          	mov    %rax,-0x8(%rbp)
  40155f:	31 c0                	xor    %eax,%eax
  401561:	48 8b 45 90          	mov    -0x70(%rbp),%rax
  401565:	0f 28 00             	movaps (%rax),%xmm0
  401568:	0f 29 45 b0          	movaps %xmm0,-0x50(%rbp)
  40156c:	0f 28 45 b0          	movaps -0x50(%rbp),%xmm0
  401570:	0f 29 45 a0          	movaps %xmm0,-0x60(%rbp)
  401574:	f3 0f 10 45 a0       	movss  -0x60(%rbp),%xmm0
  401579:	48 8b 45 98          	mov    -0x68(%rbp),%rax
  40157d:	f3 0f 11 00          	movss  %xmm0,(%rax)
  401581:	48 8b 45 88          	mov    -0x78(%rbp),%rax
  401585:	48 8d 14 85 00 00 00 	lea    0x0(,%rax,4),%rdx
  40158c:	00 
  40158d:	48 8b 45 98          	mov    -0x68(%rbp),%rax
  401591:	48 01 c2             	add    %rax,%rdx
  401594:	48 8b 45 90          	mov    -0x70(%rbp),%rax
  401598:	0f 28 08             	movaps (%rax),%xmm1
  40159b:	48 8b 45 90          	mov    -0x70(%rbp),%rax
  40159f:	0f 28 00             	movaps (%rax),%xmm0
  4015a2:	0f c6 c1 01          	shufps $0x1,%xmm1,%xmm0
  4015a6:	0f 29 45 c0          	movaps %xmm0,-0x40(%rbp)
  4015aa:	0f 28 45 c0          	movaps -0x40(%rbp),%xmm0
  4015ae:	0f 29 45 a0          	movaps %xmm0,-0x60(%rbp)
  4015b2:	f3 0f 10 45 a0       	movss  -0x60(%rbp),%xmm0
  4015b7:	f3 0f 11 02          	movss  %xmm0,(%rdx)
  4015bb:	48 8b 45 88          	mov    -0x78(%rbp),%rax
  4015bf:	48 c1 e0 03          	shl    $0x3,%rax
  4015c3:	48 89 c2             	mov    %rax,%rdx
  4015c6:	48 8b 45 98          	mov    -0x68(%rbp),%rax
  4015ca:	48 01 c2             	add    %rax,%rdx
  4015cd:	48 8b 45 90          	mov    -0x70(%rbp),%rax
  4015d1:	0f 28 08             	movaps (%rax),%xmm1
  4015d4:	48 8b 45 90          	mov    -0x70(%rbp),%rax
  4015d8:	0f 28 00             	movaps (%rax),%xmm0
  4015db:	0f c6 c1 02          	shufps $0x2,%xmm1,%xmm0
  4015df:	0f 29 45 d0          	movaps %xmm0,-0x30(%rbp)
  4015e3:	0f 28 45 d0          	movaps -0x30(%rbp),%xmm0
  4015e7:	0f 29 45 a0          	movaps %xmm0,-0x60(%rbp)
  4015eb:	f3 0f 10 45 a0       	movss  -0x60(%rbp),%xmm0
  4015f0:	f3 0f 11 02          	movss  %xmm0,(%rdx)
  4015f4:	48 8b 55 88          	mov    -0x78(%rbp),%rdx
  4015f8:	48 89 d0             	mov    %rdx,%rax
  4015fb:	48 01 c0             	add    %rax,%rax
  4015fe:	48 01 d0             	add    %rdx,%rax
  401601:	48 c1 e0 02          	shl    $0x2,%rax
  401605:	48 89 c2             	mov    %rax,%rdx
  401608:	48 8b 45 98          	mov    -0x68(%rbp),%rax
  40160c:	48 01 c2             	add    %rax,%rdx
  40160f:	48 8b 45 90          	mov    -0x70(%rbp),%rax
  401613:	0f 28 08             	movaps (%rax),%xmm1
  401616:	48 8b 45 90          	mov    -0x70(%rbp),%rax
  40161a:	0f 28 00             	movaps (%rax),%xmm0
  40161d:	0f c6 c1 03          	shufps $0x3,%xmm1,%xmm0
  401621:	0f 29 45 e0          	movaps %xmm0,-0x20(%rbp)
  401625:	0f 28 45 e0          	movaps -0x20(%rbp),%xmm0
  401629:	0f 29 45 a0          	movaps %xmm0,-0x60(%rbp)
  40162d:	f3 0f 10 45 a0       	movss  -0x60(%rbp),%xmm0
  401632:	f3 0f 11 02          	movss  %xmm0,(%rdx)
  401636:	90                   	nop
  401637:	48 8b 45 f8          	mov    -0x8(%rbp),%rax
  40163b:	64 48 33 04 25 28 00 	xor    %fs:0x28,%rax
  401642:	00 00 
  401644:	74 05                	je     40164b <_ZN5Eigen8internal8pscatterIfDv4_fEEvPT_RKT0_l+0x10d>
  401646:	e8 35 f4 ff ff       	callq  400a80 <__stack_chk_fail@plt>
  40164b:	c9                   	leaveq 
  40164c:	c3                   	retq   

000000000040164d <_ZN5Eigen8internal8prefetchIfEEvPKT_>:
  40164d:	55                   	push   %rbp
  40164e:	48 89 e5             	mov    %rsp,%rbp
  401651:	48 89 7d f8          	mov    %rdi,-0x8(%rbp)
  401655:	48 8b 45 f8          	mov    -0x8(%rbp),%rax
  401659:	0f 18 08             	prefetcht0 (%rax)
  40165c:	90                   	nop
  40165d:	5d                   	pop    %rbp
  40165e:	c3                   	retq   

000000000040165f <_ZN5Eigen8internal11pbroadcast4IDv4_fEEvPKNS0_15unpacket_traitsIT_E4typeERS4_S9_S9_S9_>:
  40165f:	55                   	push   %rbp
  401660:	48 89 e5             	mov    %rsp,%rbp
  401663:	48 81 ec b0 00 00 00 	sub    $0xb0,%rsp
  40166a:	48 89 bd 78 ff ff ff 	mov    %rdi,-0x88(%rbp)
  401671:	48 89 b5 70 ff ff ff 	mov    %rsi,-0x90(%rbp)
  401678:	48 89 95 68 ff ff ff 	mov    %rdx,-0x98(%rbp)
  40167f:	48 89 8d 60 ff ff ff 	mov    %rcx,-0xa0(%rbp)
  401686:	4c 89 85 58 ff ff ff 	mov    %r8,-0xa8(%rbp)
  40168d:	48 8b 85 78 ff ff ff 	mov    -0x88(%rbp),%rax
  401694:	48 89 c7             	mov    %rax,%rdi
  401697:	e8 77 fd ff ff       	callq  401413 <_ZN5Eigen8internal5ploadIDv4_fEET_PKNS0_15unpacket_traitsIS3_E4typeE>
  40169c:	48 8b 85 58 ff ff ff 	mov    -0xa8(%rbp),%rax
  4016a3:	0f 29 00             	movaps %xmm0,(%rax)
  4016a6:	48 8b 85 58 ff ff ff 	mov    -0xa8(%rbp),%rax
  4016ad:	0f 28 00             	movaps (%rax),%xmm0
  4016b0:	0f 29 45 80          	movaps %xmm0,-0x80(%rbp)
  4016b4:	66 0f 6f 45 80       	movdqa -0x80(%rbp),%xmm0
  4016b9:	66 0f 70 c0 00       	pshufd $0x0,%xmm0,%xmm0
  4016be:	0f 29 45 90          	movaps %xmm0,-0x70(%rbp)
  4016c2:	0f 28 45 90          	movaps -0x70(%rbp),%xmm0
  4016c6:	48 8b 85 70 ff ff ff 	mov    -0x90(%rbp),%rax
  4016cd:	0f 29 00             	movaps %xmm0,(%rax)
  4016d0:	48 8b 85 58 ff ff ff 	mov    -0xa8(%rbp),%rax
  4016d7:	0f 28 00             	movaps (%rax),%xmm0
  4016da:	0f 29 45 a0          	movaps %xmm0,-0x60(%rbp)
  4016de:	66 0f 6f 45 a0       	movdqa -0x60(%rbp),%xmm0
  4016e3:	66 0f 70 c0 55       	pshufd $0x55,%xmm0,%xmm0
  4016e8:	0f 29 45 b0          	movaps %xmm0,-0x50(%rbp)
  4016ec:	0f 28 45 b0          	movaps -0x50(%rbp),%xmm0
  4016f0:	48 8b 85 68 ff ff ff 	mov    -0x98(%rbp),%rax
  4016f7:	0f 29 00             	movaps %xmm0,(%rax)
  4016fa:	48 8b 85 58 ff ff ff 	mov    -0xa8(%rbp),%rax
  401701:	0f 28 00             	movaps (%rax),%xmm0
  401704:	0f 29 45 c0          	movaps %xmm0,-0x40(%rbp)
  401708:	66 0f 6f 45 c0       	movdqa -0x40(%rbp),%xmm0
  40170d:	66 0f 70 c0 aa       	pshufd $0xaa,%xmm0,%xmm0
  401712:	0f 29 45 d0          	movaps %xmm0,-0x30(%rbp)
  401716:	0f 28 45 d0          	movaps -0x30(%rbp),%xmm0
  40171a:	48 8b 85 60 ff ff ff 	mov    -0xa0(%rbp),%rax
  401721:	0f 29 00             	movaps %xmm0,(%rax)
  401724:	48 8b 85 58 ff ff ff 	mov    -0xa8(%rbp),%rax
  40172b:	0f 28 00             	movaps (%rax),%xmm0
  40172e:	0f 29 45 e0          	movaps %xmm0,-0x20(%rbp)
  401732:	66 0f 6f 45 e0       	movdqa -0x20(%rbp),%xmm0
  401737:	66 0f 70 c0 ff       	pshufd $0xff,%xmm0,%xmm0
  40173c:	0f 29 45 f0          	movaps %xmm0,-0x10(%rbp)
  401740:	0f 28 45 f0          	movaps -0x10(%rbp),%xmm0
  401744:	48 8b 85 58 ff ff ff 	mov    -0xa8(%rbp),%rax
  40174b:	0f 29 00             	movaps %xmm0,(%rax)
  40174e:	90                   	nop
  40174f:	c9                   	leaveq 
  401750:	c3                   	retq   

0000000000401751 <_ZN5Eigen8internal10ptransposeERNS0_11PacketBlockIDv4_fLi4EEE>:
  401751:	55                   	push   %rbp
  401752:	48 89 e5             	mov    %rsp,%rbp
  401755:	48 83 ec 18          	sub    $0x18,%rsp
  401759:	48 89 bd 78 ff ff ff 	mov    %rdi,-0x88(%rbp)
  401760:	48 8b 85 78 ff ff ff 	mov    -0x88(%rbp),%rax
  401767:	0f 28 00             	movaps (%rax),%xmm0
  40176a:	0f 29 45 80          	movaps %xmm0,-0x80(%rbp)
  40176e:	48 8b 85 78 ff ff ff 	mov    -0x88(%rbp),%rax
  401775:	0f 28 40 10          	movaps 0x10(%rax),%xmm0
  401779:	0f 29 45 90          	movaps %xmm0,-0x70(%rbp)
  40177d:	48 8b 85 78 ff ff ff 	mov    -0x88(%rbp),%rax
  401784:	0f 28 40 20          	movaps 0x20(%rax),%xmm0
  401788:	0f 29 45 a0          	movaps %xmm0,-0x60(%rbp)
  40178c:	48 8b 85 78 ff ff ff 	mov    -0x88(%rbp),%rax
  401793:	0f 28 40 30          	movaps 0x30(%rax),%xmm0
  401797:	0f 29 45 b0          	movaps %xmm0,-0x50(%rbp)
  40179b:	0f 28 45 80          	movaps -0x80(%rbp),%xmm0
  40179f:	0f 14 45 90          	unpcklps -0x70(%rbp),%xmm0
  4017a3:	0f 29 45 c0          	movaps %xmm0,-0x40(%rbp)
  4017a7:	0f 28 45 a0          	movaps -0x60(%rbp),%xmm0
  4017ab:	0f 14 45 b0          	unpcklps -0x50(%rbp),%xmm0
  4017af:	0f 29 45 d0          	movaps %xmm0,-0x30(%rbp)
  4017b3:	0f 28 45 80          	movaps -0x80(%rbp),%xmm0
  4017b7:	0f 15 45 90          	unpckhps -0x70(%rbp),%xmm0
  4017bb:	0f 29 45 e0          	movaps %xmm0,-0x20(%rbp)
  4017bf:	0f 28 45 a0          	movaps -0x60(%rbp),%xmm0
  4017c3:	0f 15 45 b0          	unpckhps -0x50(%rbp),%xmm0
  4017c7:	0f 29 45 f0          	movaps %xmm0,-0x10(%rbp)
  4017cb:	0f 28 45 c0          	movaps -0x40(%rbp),%xmm0
  4017cf:	0f 16 45 d0          	movhps -0x30(%rbp),%xmm0
  4017d3:	48 8b 85 78 ff ff ff 	mov    -0x88(%rbp),%rax
  4017da:	0f 29 00             	movaps %xmm0,(%rax)
  4017dd:	0f 28 45 d0          	movaps -0x30(%rbp),%xmm0
  4017e1:	0f 12 45 c8          	movlps -0x38(%rbp),%xmm0
  4017e5:	48 8b 85 78 ff ff ff 	mov    -0x88(%rbp),%rax
  4017ec:	0f 29 40 10          	movaps %xmm0,0x10(%rax)
  4017f0:	0f 28 45 e0          	movaps -0x20(%rbp),%xmm0
  4017f4:	0f 16 45 f0          	movhps -0x10(%rbp),%xmm0
  4017f8:	48 8b 85 78 ff ff ff 	mov    -0x88(%rbp),%rax
  4017ff:	0f 29 40 20          	movaps %xmm0,0x20(%rax)
  401803:	0f 28 45 f0          	movaps -0x10(%rbp),%xmm0
  401807:	0f 12 45 e8          	movlps -0x18(%rbp),%xmm0
  40180b:	48 8b 85 78 ff ff ff 	mov    -0x88(%rbp),%rax
  401812:	0f 29 40 30          	movaps %xmm0,0x30(%rax)
  401816:	90                   	nop
  401817:	c9                   	leaveq 
  401818:	c3                   	retq   

0000000000401819 <_ZSt3maxIiERKT_S2_S2_>:
  401819:	55                   	push   %rbp
  40181a:	48 89 e5             	mov    %rsp,%rbp
  40181d:	48 89 7d f8          	mov    %rdi,-0x8(%rbp)
  401821:	48 89 75 f0          	mov    %rsi,-0x10(%rbp)
  401825:	48 8b 45 f8          	mov    -0x8(%rbp),%rax
  401829:	8b 10                	mov    (%rax),%edx
  40182b:	48 8b 45 f0          	mov    -0x10(%rbp),%rax
  40182f:	8b 00                	mov    (%rax),%eax
  401831:	39 c2                	cmp    %eax,%edx
  401833:	7d 06                	jge    40183b <_ZSt3maxIiERKT_S2_S2_+0x22>
  401835:	48 8b 45 f0          	mov    -0x10(%rbp),%rax
  401839:	eb 04                	jmp    40183f <_ZSt3maxIiERKT_S2_S2_+0x26>
  40183b:	48 8b 45 f8          	mov    -0x8(%rbp),%rax
  40183f:	5d                   	pop    %rbp
  401840:	c3                   	retq   

0000000000401841 <_ZN5Eigen8internal5pmaddIDv4_fEET_RKS3_S5_S5_>:
  401841:	55                   	push   %rbp
  401842:	48 89 e5             	mov    %rsp,%rbp
  401845:	48 83 ec 40          	sub    $0x40,%rsp
  401849:	48 89 7d d8          	mov    %rdi,-0x28(%rbp)
  40184d:	48 89 75 d0          	mov    %rsi,-0x30(%rbp)
  401851:	48 89 55 c8          	mov    %rdx,-0x38(%rbp)
  401855:	64 48 8b 04 25 28 00 	mov    %fs:0x28,%rax
  40185c:	00 00 
  40185e:	48 89 45 f8          	mov    %rax,-0x8(%rbp)
  401862:	31 c0                	xor    %eax,%eax
  401864:	48 8b 55 d0          	mov    -0x30(%rbp),%rdx
  401868:	48 8b 45 d8          	mov    -0x28(%rbp),%rax
  40186c:	48 89 d6             	mov    %rdx,%rsi
  40186f:	48 89 c7             	mov    %rax,%rdi
  401872:	e8 6f fb ff ff       	callq  4013e6 <_ZN5Eigen8internal4pmulIDv4_fEET_RKS3_S5_>
  401877:	0f 29 45 e0          	movaps %xmm0,-0x20(%rbp)
  40187b:	48 8b 55 c8          	mov    -0x38(%rbp),%rdx
  40187f:	48 8d 45 e0          	lea    -0x20(%rbp),%rax
  401883:	48 89 d6             	mov    %rdx,%rsi
  401886:	48 89 c7             	mov    %rax,%rdi
  401889:	e8 2b fb ff ff       	callq  4013b9 <_ZN5Eigen8internal4paddIDv4_fEET_RKS3_S5_>
  40188e:	48 8b 45 f8          	mov    -0x8(%rbp),%rax
  401892:	64 48 33 04 25 28 00 	xor    %fs:0x28,%rax
  401899:	00 00 
  40189b:	74 05                	je     4018a2 <_ZN5Eigen8internal5pmaddIDv4_fEET_RKS3_S5_S5_+0x61>
  40189d:	e8 de f1 ff ff       	callq  400a80 <__stack_chk_fail@plt>
  4018a2:	c9                   	leaveq 
  4018a3:	c3                   	retq   

00000000004018a4 <_ZN5Eigen8internal22ignore_unused_variableIlEEvRKT_>:
  4018a4:	55                   	push   %rbp
  4018a5:	48 89 e5             	mov    %rsp,%rbp
  4018a8:	48 89 7d f8          	mov    %rdi,-0x8(%rbp)
  4018ac:	90                   	nop
  4018ad:	5d                   	pop    %rbp
  4018ae:	c3                   	retq   
  4018af:	90                   	nop

00000000004018b0 <_ZNK5Eigen10MatrixBaseINS_6MatrixIfLi32ELi32ELi0ELi32ELi32EEEEmlIS2_EEKNS_7ProductIS2_T_Li0EEERKNS0_IS6_EE>:
  4018b0:	55                   	push   %rbp
  4018b1:	48 89 e5             	mov    %rsp,%rbp
  4018b4:	53                   	push   %rbx
  4018b5:	48 83 ec 38          	sub    $0x38,%rsp
  4018b9:	48 89 7d c8          	mov    %rdi,-0x38(%rbp)
  4018bd:	48 89 75 c0          	mov    %rsi,-0x40(%rbp)
  4018c1:	64 48 8b 04 25 28 00 	mov    %fs:0x28,%rax
  4018c8:	00 00 
  4018ca:	48 89 45 e8          	mov    %rax,-0x18(%rbp)
  4018ce:	31 c0                	xor    %eax,%eax
  4018d0:	48 8b 45 c0          	mov    -0x40(%rbp),%rax
  4018d4:	48 89 c7             	mov    %rax,%rdi
  4018d7:	e8 ce 00 00 00       	callq  4019aa <_ZNK5Eigen9EigenBaseINS_6MatrixIfLi32ELi32ELi0ELi32ELi32EEEE7derivedEv>
  4018dc:	48 89 c3             	mov    %rax,%rbx
  4018df:	48 8b 45 c8          	mov    -0x38(%rbp),%rax
  4018e3:	48 89 c7             	mov    %rax,%rdi
  4018e6:	e8 bf 00 00 00       	callq  4019aa <_ZNK5Eigen9EigenBaseINS_6MatrixIfLi32ELi32ELi0ELi32ELi32EEEE7derivedEv>
  4018eb:	48 89 c1             	mov    %rax,%rcx
  4018ee:	48 8d 45 d0          	lea    -0x30(%rbp),%rax
  4018f2:	48 89 da             	mov    %rbx,%rdx
  4018f5:	48 89 ce             	mov    %rcx,%rsi
  4018f8:	48 89 c7             	mov    %rax,%rdi
  4018fb:	e8 f0 00 00 00       	callq  4019f0 <_ZN5Eigen7ProductINS_6MatrixIfLi32ELi32ELi0ELi32ELi32EEES2_Li0EEC1ERKS2_S5_>
  401900:	48 8b 45 d0          	mov    -0x30(%rbp),%rax
  401904:	48 8b 55 d8          	mov    -0x28(%rbp),%rdx
  401908:	48 8b 4d e8          	mov    -0x18(%rbp),%rcx
  40190c:	64 48 33 0c 25 28 00 	xor    %fs:0x28,%rcx
  401913:	00 00 
  401915:	74 05                	je     40191c <_ZNK5Eigen10MatrixBaseINS_6MatrixIfLi32ELi32ELi0ELi32ELi32EEEEmlIS2_EEKNS_7ProductIS2_T_Li0EEERKNS0_IS6_EE+0x6c>
  401917:	e8 64 f1 ff ff       	callq  400a80 <__stack_chk_fail@plt>
  40191c:	48 83 c4 38          	add    $0x38,%rsp
  401920:	5b                   	pop    %rbx
  401921:	5d                   	pop    %rbp
  401922:	c3                   	retq   
  401923:	90                   	nop

0000000000401924 <_ZN5Eigen10MatrixBaseINS_6MatrixIfLi32ELi32ELi0ELi32ELi32EEEEpLINS_7ProductIS2_S2_Li0EEEEERS2_RKNS0_IT_EE>:
  401924:	55                   	push   %rbp
  401925:	48 89 e5             	mov    %rsp,%rbp
  401928:	53                   	push   %rbx
  401929:	48 83 ec 28          	sub    $0x28,%rsp
  40192d:	48 89 7d d8          	mov    %rdi,-0x28(%rbp)
  401931:	48 89 75 d0          	mov    %rsi,-0x30(%rbp)
  401935:	64 48 8b 04 25 28 00 	mov    %fs:0x28,%rax
  40193c:	00 00 
  40193e:	48 89 45 e8          	mov    %rax,-0x18(%rbp)
  401942:	31 c0                	xor    %eax,%eax
  401944:	48 8d 45 e7          	lea    -0x19(%rbp),%rax
  401948:	48 89 c7             	mov    %rax,%rdi
  40194b:	e8 36 01 00 00       	callq  401a86 <_ZN5Eigen8internal13add_assign_opIfEC1Ev>
  401950:	48 8b 45 d0          	mov    -0x30(%rbp),%rax
  401954:	48 89 c7             	mov    %rax,%rdi
  401957:	e8 1c 01 00 00       	callq  401a78 <_ZNK5Eigen9EigenBaseINS_7ProductINS_6MatrixIfLi32ELi32ELi0ELi32ELi32EEES3_Li0EEEE7derivedEv>
  40195c:	48 89 c3             	mov    %rax,%rbx
  40195f:	48 8b 45 d8          	mov    -0x28(%rbp),%rax
  401963:	48 89 c7             	mov    %rax,%rdi
  401966:	e8 ff 00 00 00       	callq  401a6a <_ZN5Eigen9EigenBaseINS_6MatrixIfLi32ELi32ELi0ELi32ELi32EEEE7derivedEv>
  40196b:	48 89 c7             	mov    %rax,%rdi
  40196e:	48 8d 45 e7          	lea    -0x19(%rbp),%rax
  401972:	b9 00 00 00 00       	mov    $0x0,%ecx
  401977:	48 89 c2             	mov    %rax,%rdx
  40197a:	48 89 de             	mov    %rbx,%rsi
  40197d:	e8 0f 01 00 00       	callq  401a91 <_ZN5Eigen8internal15call_assignmentINS_6MatrixIfLi32ELi32ELi0ELi32ELi32EEENS_7ProductIS3_S3_Li0EEENS0_13add_assign_opIfEEEEvRT_RKT0_RKT1_NS0_9enable_ifIXsrNS0_25evaluator_assume_aliasingISA_NS0_16evaluator_traitsISA_E5ShapeEEE5valueEPvE4typeE>
  401982:	48 8b 45 d8          	mov    -0x28(%rbp),%rax
  401986:	48 89 c7             	mov    %rax,%rdi
  401989:	e8 dc 00 00 00       	callq  401a6a <_ZN5Eigen9EigenBaseINS_6MatrixIfLi32ELi32ELi0ELi32ELi32EEEE7derivedEv>
  40198e:	48 8b 55 e8          	mov    -0x18(%rbp),%rdx
  401992:	64 48 33 14 25 28 00 	xor    %fs:0x28,%rdx
  401999:	00 00 
  40199b:	74 05                	je     4019a2 <_ZN5Eigen10MatrixBaseINS_6MatrixIfLi32ELi32ELi0ELi32ELi32EEEEpLINS_7ProductIS2_S2_Li0EEEEERS2_RKNS0_IT_EE+0x7e>
  40199d:	e8 de f0 ff ff       	callq  400a80 <__stack_chk_fail@plt>
  4019a2:	48 83 c4 28          	add    $0x28,%rsp
  4019a6:	5b                   	pop    %rbx
  4019a7:	5d                   	pop    %rbp
  4019a8:	c3                   	retq   
  4019a9:	90                   	nop

00000000004019aa <_ZNK5Eigen9EigenBaseINS_6MatrixIfLi32ELi32ELi0ELi32ELi32EEEE7derivedEv>:
  4019aa:	55                   	push   %rbp
  4019ab:	48 89 e5             	mov    %rsp,%rbp
  4019ae:	48 89 7d f8          	mov    %rdi,-0x8(%rbp)
  4019b2:	48 8b 45 f8          	mov    -0x8(%rbp),%rax
  4019b6:	5d                   	pop    %rbp
  4019b7:	c3                   	retq   

00000000004019b8 <_ZN5Eigen8internal18dense_product_baseINS_6MatrixIfLi32ELi32ELi0ELi32ELi32EEES3_Li0ELi8EEC1Ev>:
  4019b8:	55                   	push   %rbp
  4019b9:	48 89 e5             	mov    %rsp,%rbp
  4019bc:	48 83 ec 10          	sub    $0x10,%rsp
  4019c0:	48 89 7d f8          	mov    %rdi,-0x8(%rbp)
  4019c4:	48 8b 45 f8          	mov    -0x8(%rbp),%rax
  4019c8:	48 89 c7             	mov    %rax,%rdi
  4019cb:	e8 48 01 00 00       	callq  401b18 <_ZN5Eigen10MatrixBaseINS_7ProductINS_6MatrixIfLi32ELi32ELi0ELi32ELi32EEES3_Li0EEEEC1Ev>
  4019d0:	90                   	nop
  4019d1:	c9                   	leaveq 
  4019d2:	c3                   	retq   
  4019d3:	90                   	nop

00000000004019d4 <_ZN5Eigen11ProductImplINS_6MatrixIfLi32ELi32ELi0ELi32ELi32EEES2_Li0ENS_5DenseEEC1Ev>:
  4019d4:	55                   	push   %rbp
  4019d5:	48 89 e5             	mov    %rsp,%rbp
  4019d8:	48 83 ec 10          	sub    $0x10,%rsp
  4019dc:	48 89 7d f8          	mov    %rdi,-0x8(%rbp)
  4019e0:	48 8b 45 f8          	mov    -0x8(%rbp),%rax
  4019e4:	48 89 c7             	mov    %rax,%rdi
  4019e7:	e8 cc ff ff ff       	callq  4019b8 <_ZN5Eigen8internal18dense_product_baseINS_6MatrixIfLi32ELi32ELi0ELi32ELi32EEES3_Li0ELi8EEC1Ev>
  4019ec:	90                   	nop
  4019ed:	c9                   	leaveq 
  4019ee:	c3                   	retq   
  4019ef:	90                   	nop

00000000004019f0 <_ZN5Eigen7ProductINS_6MatrixIfLi32ELi32ELi0ELi32ELi32EEES2_Li0EEC1ERKS2_S5_>:
  4019f0:	55                   	push   %rbp
  4019f1:	48 89 e5             	mov    %rsp,%rbp
  4019f4:	53                   	push   %rbx
  4019f5:	48 83 ec 28          	sub    $0x28,%rsp
  4019f9:	48 89 7d e8          	mov    %rdi,-0x18(%rbp)
  4019fd:	48 89 75 e0          	mov    %rsi,-0x20(%rbp)
  401a01:	48 89 55 d8          	mov    %rdx,-0x28(%rbp)
  401a05:	48 8b 45 e8          	mov    -0x18(%rbp),%rax
  401a09:	48 89 c7             	mov    %rax,%rdi
  401a0c:	e8 c3 ff ff ff       	callq  4019d4 <_ZN5Eigen11ProductImplINS_6MatrixIfLi32ELi32ELi0ELi32ELi32EEES2_Li0ENS_5DenseEEC1Ev>
  401a11:	48 8b 45 e8          	mov    -0x18(%rbp),%rax
  401a15:	48 8b 55 e0          	mov    -0x20(%rbp),%rdx
  401a19:	48 89 10             	mov    %rdx,(%rax)
  401a1c:	48 8b 45 e8          	mov    -0x18(%rbp),%rax
  401a20:	48 8b 55 d8          	mov    -0x28(%rbp),%rdx
  401a24:	48 89 50 08          	mov    %rdx,0x8(%rax)
  401a28:	48 8b 45 e0          	mov    -0x20(%rbp),%rax
  401a2c:	48 89 c7             	mov    %rax,%rdi
  401a2f:	e8 00 01 00 00       	callq  401b34 <_ZNK5Eigen15PlainObjectBaseINS_6MatrixIfLi32ELi32ELi0ELi32ELi32EEEE4colsEv>
  401a34:	48 89 c3             	mov    %rax,%rbx
  401a37:	48 8b 45 d8          	mov    -0x28(%rbp),%rax
  401a3b:	48 89 c7             	mov    %rax,%rdi
  401a3e:	e8 05 01 00 00       	callq  401b48 <_ZNK5Eigen15PlainObjectBaseINS_6MatrixIfLi32ELi32ELi0ELi32ELi32EEEE4rowsEv>
  401a43:	48 39 c3             	cmp    %rax,%rbx
  401a46:	74 19                	je     401a61 <_ZN5Eigen7ProductINS_6MatrixIfLi32ELi32ELi0ELi32ELi32EEES2_Li0EEC1ERKS2_S5_+0x71>
  401a48:	b9 40 ae 40 00       	mov    $0x40ae40,%ecx
  401a4d:	ba 85 00 00 00       	mov    $0x85,%edx
  401a52:	be c0 a7 40 00       	mov    $0x40a7c0,%esi
  401a57:	bf f0 a7 40 00       	mov    $0x40a7f0,%edi
  401a5c:	e8 7f ef ff ff       	callq  4009e0 <__assert_fail@plt>
  401a61:	90                   	nop
  401a62:	48 83 c4 28          	add    $0x28,%rsp
  401a66:	5b                   	pop    %rbx
  401a67:	5d                   	pop    %rbp
  401a68:	c3                   	retq   
  401a69:	90                   	nop

0000000000401a6a <_ZN5Eigen9EigenBaseINS_6MatrixIfLi32ELi32ELi0ELi32ELi32EEEE7derivedEv>:
  401a6a:	55                   	push   %rbp
  401a6b:	48 89 e5             	mov    %rsp,%rbp
  401a6e:	48 89 7d f8          	mov    %rdi,-0x8(%rbp)
  401a72:	48 8b 45 f8          	mov    -0x8(%rbp),%rax
  401a76:	5d                   	pop    %rbp
  401a77:	c3                   	retq   

0000000000401a78 <_ZNK5Eigen9EigenBaseINS_7ProductINS_6MatrixIfLi32ELi32ELi0ELi32ELi32EEES3_Li0EEEE7derivedEv>:
  401a78:	55                   	push   %rbp
  401a79:	48 89 e5             	mov    %rsp,%rbp
  401a7c:	48 89 7d f8          	mov    %rdi,-0x8(%rbp)
  401a80:	48 8b 45 f8          	mov    -0x8(%rbp),%rax
  401a84:	5d                   	pop    %rbp
  401a85:	c3                   	retq   

0000000000401a86 <_ZN5Eigen8internal13add_assign_opIfEC1Ev>:
  401a86:	55                   	push   %rbp
  401a87:	48 89 e5             	mov    %rsp,%rbp
  401a8a:	48 89 7d f8          	mov    %rdi,-0x8(%rbp)
  401a8e:	90                   	nop
  401a8f:	5d                   	pop    %rbp
  401a90:	c3                   	retq   

0000000000401a91 <_ZN5Eigen8internal15call_assignmentINS_6MatrixIfLi32ELi32ELi0ELi32ELi32EEENS_7ProductIS3_S3_Li0EEENS0_13add_assign_opIfEEEEvRT_RKT0_RKT1_NS0_9enable_ifIXsrNS0_25evaluator_assume_aliasingISA_NS0_16evaluator_traitsISA_E5ShapeEEE5valueEPvE4typeE>:
  401a91:	55                   	push   %rbp
  401a92:	48 89 e5             	mov    %rsp,%rbp
  401a95:	48 81 ec 30 10 00 00 	sub    $0x1030,%rsp
  401a9c:	48 89 bd e8 ef ff ff 	mov    %rdi,-0x1018(%rbp)
  401aa3:	48 89 b5 e0 ef ff ff 	mov    %rsi,-0x1020(%rbp)
  401aaa:	48 89 95 d8 ef ff ff 	mov    %rdx,-0x1028(%rbp)
  401ab1:	48 89 8d d0 ef ff ff 	mov    %rcx,-0x1030(%rbp)
  401ab8:	64 48 8b 04 25 28 00 	mov    %fs:0x28,%rax
  401abf:	00 00 
  401ac1:	48 89 45 f8          	mov    %rax,-0x8(%rbp)
  401ac5:	31 c0                	xor    %eax,%eax
  401ac7:	48 8b 95 e0 ef ff ff 	mov    -0x1020(%rbp),%rdx
  401ace:	48 8d 85 f0 ef ff ff 	lea    -0x1010(%rbp),%rax
  401ad5:	48 89 d6             	mov    %rdx,%rsi
  401ad8:	48 89 c7             	mov    %rax,%rdi
  401adb:	e8 7c 00 00 00       	callq  401b5c <_ZN5Eigen6MatrixIfLi32ELi32ELi0ELi32ELi32EEC1INS_7ProductIS1_S1_Li0EEEEERKT_>
  401ae0:	48 8b 95 d8 ef ff ff 	mov    -0x1028(%rbp),%rdx
  401ae7:	48 8d 8d f0 ef ff ff 	lea    -0x1010(%rbp),%rcx
  401aee:	48 8b 85 e8 ef ff ff 	mov    -0x1018(%rbp),%rax
  401af5:	48 89 ce             	mov    %rcx,%rsi
  401af8:	48 89 c7             	mov    %rax,%rdi
  401afb:	e8 93 00 00 00       	callq  401b93 <_ZN5Eigen8internal24call_assignment_no_aliasINS_6MatrixIfLi32ELi32ELi0ELi32ELi32EEES3_NS0_13add_assign_opIfEEEEvRT_RKT0_RKT1_>
  401b00:	90                   	nop
  401b01:	48 8b 45 f8          	mov    -0x8(%rbp),%rax
  401b05:	64 48 33 04 25 28 00 	xor    %fs:0x28,%rax
  401b0c:	00 00 
  401b0e:	74 05                	je     401b15 <_ZN5Eigen8internal15call_assignmentINS_6MatrixIfLi32ELi32ELi0ELi32ELi32EEENS_7ProductIS3_S3_Li0EEENS0_13add_assign_opIfEEEEvRT_RKT0_RKT1_NS0_9enable_ifIXsrNS0_25evaluator_assume_aliasingISA_NS0_16evaluator_traitsISA_E5ShapeEEE5valueEPvE4typeE+0x84>
  401b10:	e8 6b ef ff ff       	callq  400a80 <__stack_chk_fail@plt>
  401b15:	c9                   	leaveq 
  401b16:	c3                   	retq   
  401b17:	90                   	nop

0000000000401b18 <_ZN5Eigen10MatrixBaseINS_7ProductINS_6MatrixIfLi32ELi32ELi0ELi32ELi32EEES3_Li0EEEEC1Ev>:
  401b18:	55                   	push   %rbp
  401b19:	48 89 e5             	mov    %rsp,%rbp
  401b1c:	48 83 ec 10          	sub    $0x10,%rsp
  401b20:	48 89 7d f8          	mov    %rdi,-0x8(%rbp)
  401b24:	48 8b 45 f8          	mov    -0x8(%rbp),%rax
  401b28:	48 89 c7             	mov    %rax,%rdi
  401b2b:	e8 48 01 00 00       	callq  401c78 <_ZN5Eigen9DenseBaseINS_7ProductINS_6MatrixIfLi32ELi32ELi0ELi32ELi32EEES3_Li0EEEEC1Ev>
  401b30:	90                   	nop
  401b31:	c9                   	leaveq 
  401b32:	c3                   	retq   
  401b33:	90                   	nop

0000000000401b34 <_ZNK5Eigen15PlainObjectBaseINS_6MatrixIfLi32ELi32ELi0ELi32ELi32EEEE4colsEv>:
  401b34:	55                   	push   %rbp
  401b35:	48 89 e5             	mov    %rsp,%rbp
  401b38:	48 83 ec 10          	sub    $0x10,%rsp
  401b3c:	48 89 7d f8          	mov    %rdi,-0x8(%rbp)
  401b40:	e8 4e 01 00 00       	callq  401c93 <_ZN5Eigen12DenseStorageIfLi1024ELi32ELi32ELi0EE4colsEv>
  401b45:	c9                   	leaveq 
  401b46:	c3                   	retq   
  401b47:	90                   	nop

0000000000401b48 <_ZNK5Eigen15PlainObjectBaseINS_6MatrixIfLi32ELi32ELi0ELi32ELi32EEEE4rowsEv>:
  401b48:	55                   	push   %rbp
  401b49:	48 89 e5             	mov    %rsp,%rbp
  401b4c:	48 83 ec 10          	sub    $0x10,%rsp
  401b50:	48 89 7d f8          	mov    %rdi,-0x8(%rbp)
  401b54:	e8 45 01 00 00       	callq  401c9e <_ZN5Eigen12DenseStorageIfLi1024ELi32ELi32ELi0EE4rowsEv>
  401b59:	c9                   	leaveq 
  401b5a:	c3                   	retq   
  401b5b:	90                   	nop

0000000000401b5c <_ZN5Eigen6MatrixIfLi32ELi32ELi0ELi32ELi32EEC1INS_7ProductIS1_S1_Li0EEEEERKT_>:
  401b5c:	55                   	push   %rbp
  401b5d:	48 89 e5             	mov    %rsp,%rbp
  401b60:	48 83 ec 10          	sub    $0x10,%rsp
  401b64:	48 89 7d f8          	mov    %rdi,-0x8(%rbp)
  401b68:	48 89 75 f0          	mov    %rsi,-0x10(%rbp)
  401b6c:	48 8b 45 f8          	mov    -0x8(%rbp),%rax
  401b70:	48 89 c7             	mov    %rax,%rdi
  401b73:	e8 32 01 00 00       	callq  401caa <_ZN5Eigen15PlainObjectBaseINS_6MatrixIfLi32ELi32ELi0ELi32ELi32EEEEC1Ev>
  401b78:	e8 54 01 00 00       	callq  401cd1 <_ZN5Eigen15PlainObjectBaseINS_6MatrixIfLi32ELi32ELi0ELi32ELi32EEEE22_check_template_paramsEv>
  401b7d:	48 8b 45 f8          	mov    -0x8(%rbp),%rax
  401b81:	48 8b 55 f0          	mov    -0x10(%rbp),%rdx
  401b85:	48 89 d6             	mov    %rdx,%rsi
  401b88:	48 89 c7             	mov    %rax,%rdi
  401b8b:	e8 48 01 00 00       	callq  401cd8 <_ZN5Eigen15PlainObjectBaseINS_6MatrixIfLi32ELi32ELi0ELi32ELi32EEEE6_init1INS_7ProductIS2_S2_Li0EEES6_EEvRKNS_9DenseBaseIT0_EE>
  401b90:	90                   	nop
  401b91:	c9                   	leaveq 
  401b92:	c3                   	retq   

0000000000401b93 <_ZN5Eigen8internal24call_assignment_no_aliasINS_6MatrixIfLi32ELi32ELi0ELi32ELi32EEES3_NS0_13add_assign_opIfEEEEvRT_RKT0_RKT1_>:
  401b93:	55                   	push   %rbp
  401b94:	48 89 e5             	mov    %rsp,%rbp
  401b97:	48 83 ec 40          	sub    $0x40,%rsp
  401b9b:	48 89 7d d8          	mov    %rdi,-0x28(%rbp)
  401b9f:	48 89 75 d0          	mov    %rsi,-0x30(%rbp)
  401ba3:	48 89 55 c8          	mov    %rdx,-0x38(%rbp)
  401ba7:	48 8b 45 d0          	mov    -0x30(%rbp),%rax
  401bab:	48 89 c7             	mov    %rax,%rdi
  401bae:	e8 95 ff ff ff       	callq  401b48 <_ZNK5Eigen15PlainObjectBaseINS_6MatrixIfLi32ELi32ELi0ELi32ELi32EEEE4rowsEv>
  401bb3:	48 89 45 e8          	mov    %rax,-0x18(%rbp)
  401bb7:	48 8b 45 d0          	mov    -0x30(%rbp),%rax
  401bbb:	48 89 c7             	mov    %rax,%rdi
  401bbe:	e8 71 ff ff ff       	callq  401b34 <_ZNK5Eigen15PlainObjectBaseINS_6MatrixIfLi32ELi32ELi0ELi32ELi32EEEE4colsEv>
  401bc3:	48 89 45 f0          	mov    %rax,-0x10(%rbp)
  401bc7:	48 8b 45 d8          	mov    -0x28(%rbp),%rax
  401bcb:	48 89 c7             	mov    %rax,%rdi
  401bce:	e8 75 ff ff ff       	callq  401b48 <_ZNK5Eigen15PlainObjectBaseINS_6MatrixIfLi32ELi32ELi0ELi32ELi32EEEE4rowsEv>
  401bd3:	48 3b 45 e8          	cmp    -0x18(%rbp),%rax
  401bd7:	75 12                	jne    401beb <_ZN5Eigen8internal24call_assignment_no_aliasINS_6MatrixIfLi32ELi32ELi0ELi32ELi32EEES3_NS0_13add_assign_opIfEEEEvRT_RKT0_RKT1_+0x58>
  401bd9:	48 8b 45 d8          	mov    -0x28(%rbp),%rax
  401bdd:	48 89 c7             	mov    %rax,%rdi
  401be0:	e8 4f ff ff ff       	callq  401b34 <_ZNK5Eigen15PlainObjectBaseINS_6MatrixIfLi32ELi32ELi0ELi32ELi32EEEE4colsEv>
  401be5:	48 3b 45 f0          	cmp    -0x10(%rbp),%rax
  401be9:	74 07                	je     401bf2 <_ZN5Eigen8internal24call_assignment_no_aliasINS_6MatrixIfLi32ELi32ELi0ELi32ELi32EEES3_NS0_13add_assign_opIfEEEEvRT_RKT0_RKT1_+0x5f>
  401beb:	b8 01 00 00 00       	mov    $0x1,%eax
  401bf0:	eb 05                	jmp    401bf7 <_ZN5Eigen8internal24call_assignment_no_aliasINS_6MatrixIfLi32ELi32ELi0ELi32ELi32EEES3_NS0_13add_assign_opIfEEEEvRT_RKT0_RKT1_+0x64>
  401bf2:	b8 00 00 00 00       	mov    $0x0,%eax
  401bf7:	84 c0                	test   %al,%al
  401bf9:	74 17                	je     401c12 <_ZN5Eigen8internal24call_assignment_no_aliasINS_6MatrixIfLi32ELi32ELi0ELi32ELi32EEES3_NS0_13add_assign_opIfEEEEvRT_RKT0_RKT1_+0x7f>
  401bfb:	48 8b 45 d8          	mov    -0x28(%rbp),%rax
  401bff:	48 8b 55 f0          	mov    -0x10(%rbp),%rdx
  401c03:	48 8b 4d e8          	mov    -0x18(%rbp),%rcx
  401c07:	48 89 ce             	mov    %rcx,%rsi
  401c0a:	48 89 c7             	mov    %rax,%rdi
  401c0d:	e8 ec 00 00 00       	callq  401cfe <_ZN5Eigen15PlainObjectBaseINS_6MatrixIfLi32ELi32ELi0ELi32ELi32EEEE6resizeEll>
  401c12:	48 8b 45 d8          	mov    -0x28(%rbp),%rax
  401c16:	48 89 45 f8          	mov    %rax,-0x8(%rbp)
  401c1a:	48 8b 55 c8          	mov    -0x38(%rbp),%rdx
  401c1e:	48 8b 4d d0          	mov    -0x30(%rbp),%rcx
  401c22:	48 8b 45 f8          	mov    -0x8(%rbp),%rax
  401c26:	48 89 ce             	mov    %rcx,%rsi
  401c29:	48 89 c7             	mov    %rax,%rdi
  401c2c:	e8 49 01 00 00       	callq  401d7a <_ZN5Eigen8internal10AssignmentINS_6MatrixIfLi32ELi32ELi0ELi32ELi32EEES3_NS0_13add_assign_opIfEENS0_11Dense2DenseEfE3runERS3_RKS3_RKS5_>
  401c31:	90                   	nop
  401c32:	c9                   	leaveq 
  401c33:	c3                   	retq   

0000000000401c34 <_ZN5Eigen9EigenBaseINS_7ProductINS_6MatrixIfLi32ELi32ELi0ELi32ELi32EEES3_Li0EEEEC1Ev>:
  401c34:	55                   	push   %rbp
  401c35:	48 89 e5             	mov    %rsp,%rbp
  401c38:	48 89 7d f8          	mov    %rdi,-0x8(%rbp)
  401c3c:	90                   	nop
  401c3d:	5d                   	pop    %rbp
  401c3e:	c3                   	retq   
  401c3f:	90                   	nop

0000000000401c40 <_ZN5Eigen15DenseCoeffsBaseINS_7ProductINS_6MatrixIfLi32ELi32ELi0ELi32ELi32EEES3_Li0EEELi0EEC1Ev>:
  401c40:	55                   	push   %rbp
  401c41:	48 89 e5             	mov    %rsp,%rbp
  401c44:	48 83 ec 10          	sub    $0x10,%rsp
  401c48:	48 89 7d f8          	mov    %rdi,-0x8(%rbp)
  401c4c:	48 8b 45 f8          	mov    -0x8(%rbp),%rax
  401c50:	48 89 c7             	mov    %rax,%rdi
  401c53:	e8 dc ff ff ff       	callq  401c34 <_ZN5Eigen9EigenBaseINS_7ProductINS_6MatrixIfLi32ELi32ELi0ELi32ELi32EEES3_Li0EEEEC1Ev>
  401c58:	90                   	nop
  401c59:	c9                   	leaveq 
  401c5a:	c3                   	retq   
  401c5b:	90                   	nop

0000000000401c5c <_ZN5Eigen8internal22special_scalar_op_baseINS_7ProductINS_6MatrixIfLi32ELi32ELi0ELi32ELi32EEES4_Li0EEEffNS_15DenseCoeffsBaseIS5_Li0EEELb0EEC1Ev>:
  401c5c:	55                   	push   %rbp
  401c5d:	48 89 e5             	mov    %rsp,%rbp
  401c60:	48 83 ec 10          	sub    $0x10,%rsp
  401c64:	48 89 7d f8          	mov    %rdi,-0x8(%rbp)
  401c68:	48 8b 45 f8          	mov    -0x8(%rbp),%rax
  401c6c:	48 89 c7             	mov    %rax,%rdi
  401c6f:	e8 cc ff ff ff       	callq  401c40 <_ZN5Eigen15DenseCoeffsBaseINS_7ProductINS_6MatrixIfLi32ELi32ELi0ELi32ELi32EEES3_Li0EEELi0EEC1Ev>
  401c74:	90                   	nop
  401c75:	c9                   	leaveq 
  401c76:	c3                   	retq   
  401c77:	90                   	nop

0000000000401c78 <_ZN5Eigen9DenseBaseINS_7ProductINS_6MatrixIfLi32ELi32ELi0ELi32ELi32EEES3_Li0EEEEC1Ev>:
  401c78:	55                   	push   %rbp
  401c79:	48 89 e5             	mov    %rsp,%rbp
  401c7c:	48 83 ec 10          	sub    $0x10,%rsp
  401c80:	48 89 7d f8          	mov    %rdi,-0x8(%rbp)
  401c84:	48 8b 45 f8          	mov    -0x8(%rbp),%rax
  401c88:	48 89 c7             	mov    %rax,%rdi
  401c8b:	e8 cc ff ff ff       	callq  401c5c <_ZN5Eigen8internal22special_scalar_op_baseINS_7ProductINS_6MatrixIfLi32ELi32ELi0ELi32ELi32EEES4_Li0EEEffNS_15DenseCoeffsBaseIS5_Li0EEELb0EEC1Ev>
  401c90:	90                   	nop
  401c91:	c9                   	leaveq 
  401c92:	c3                   	retq   

0000000000401c93 <_ZN5Eigen12DenseStorageIfLi1024ELi32ELi32ELi0EE4colsEv>:
  401c93:	55                   	push   %rbp
  401c94:	48 89 e5             	mov    %rsp,%rbp
  401c97:	b8 20 00 00 00       	mov    $0x20,%eax
  401c9c:	5d                   	pop    %rbp
  401c9d:	c3                   	retq   

0000000000401c9e <_ZN5Eigen12DenseStorageIfLi1024ELi32ELi32ELi0EE4rowsEv>:
  401c9e:	55                   	push   %rbp
  401c9f:	48 89 e5             	mov    %rsp,%rbp
  401ca2:	b8 20 00 00 00       	mov    $0x20,%eax
  401ca7:	5d                   	pop    %rbp
  401ca8:	c3                   	retq   
  401ca9:	90                   	nop

0000000000401caa <_ZN5Eigen15PlainObjectBaseINS_6MatrixIfLi32ELi32ELi0ELi32ELi32EEEEC1Ev>:
  401caa:	55                   	push   %rbp
  401cab:	48 89 e5             	mov    %rsp,%rbp
  401cae:	48 83 ec 10          	sub    $0x10,%rsp
  401cb2:	48 89 7d f8          	mov    %rdi,-0x8(%rbp)
  401cb6:	48 8b 45 f8          	mov    -0x8(%rbp),%rax
  401cba:	48 89 c7             	mov    %rax,%rdi
  401cbd:	e8 58 01 00 00       	callq  401e1a <_ZN5Eigen10MatrixBaseINS_6MatrixIfLi32ELi32ELi0ELi32ELi32EEEEC1Ev>
  401cc2:	48 8b 45 f8          	mov    -0x8(%rbp),%rax
  401cc6:	48 89 c7             	mov    %rax,%rdi
  401cc9:	e8 68 01 00 00       	callq  401e36 <_ZN5Eigen12DenseStorageIfLi1024ELi32ELi32ELi0EEC1Ev>
  401cce:	90                   	nop
  401ccf:	c9                   	leaveq 
  401cd0:	c3                   	retq   

0000000000401cd1 <_ZN5Eigen15PlainObjectBaseINS_6MatrixIfLi32ELi32ELi0ELi32ELi32EEEE22_check_template_paramsEv>:
  401cd1:	55                   	push   %rbp
  401cd2:	48 89 e5             	mov    %rsp,%rbp
  401cd5:	90                   	nop
  401cd6:	5d                   	pop    %rbp
  401cd7:	c3                   	retq   

0000000000401cd8 <_ZN5Eigen15PlainObjectBaseINS_6MatrixIfLi32ELi32ELi0ELi32ELi32EEEE6_init1INS_7ProductIS2_S2_Li0EEES6_EEvRKNS_9DenseBaseIT0_EE>:
  401cd8:	55                   	push   %rbp
  401cd9:	48 89 e5             	mov    %rsp,%rbp
  401cdc:	48 83 ec 10          	sub    $0x10,%rsp
  401ce0:	48 89 7d f8          	mov    %rdi,-0x8(%rbp)
  401ce4:	48 89 75 f0          	mov    %rsi,-0x10(%rbp)
  401ce8:	48 8b 55 f0          	mov    -0x10(%rbp),%rdx
  401cec:	48 8b 45 f8          	mov    -0x8(%rbp),%rax
  401cf0:	48 89 d6             	mov    %rdx,%rsi
  401cf3:	48 89 c7             	mov    %rax,%rdi
  401cf6:	e8 57 01 00 00       	callq  401e52 <_ZN5Eigen15PlainObjectBaseINS_6MatrixIfLi32ELi32ELi0ELi32ELi32EEEE12_set_noaliasINS_7ProductIS2_S2_Li0EEEEERS2_RKNS_9DenseBaseIT_EE>
  401cfb:	90                   	nop
  401cfc:	c9                   	leaveq 
  401cfd:	c3                   	retq   

0000000000401cfe <_ZN5Eigen15PlainObjectBaseINS_6MatrixIfLi32ELi32ELi0ELi32ELi32EEEE6resizeEll>:
  401cfe:	55                   	push   %rbp
  401cff:	48 89 e5             	mov    %rsp,%rbp
  401d02:	48 83 ec 30          	sub    $0x30,%rsp
  401d06:	48 89 7d e8          	mov    %rdi,-0x18(%rbp)
  401d0a:	48 89 75 e0          	mov    %rsi,-0x20(%rbp)
  401d0e:	48 89 55 d8          	mov    %rdx,-0x28(%rbp)
  401d12:	48 83 7d e0 20       	cmpq   $0x20,-0x20(%rbp)
  401d17:	75 15                	jne    401d2e <_ZN5Eigen15PlainObjectBaseINS_6MatrixIfLi32ELi32ELi0ELi32ELi32EEEE6resizeEll+0x30>
  401d19:	48 83 7d d8 20       	cmpq   $0x20,-0x28(%rbp)
  401d1e:	75 0e                	jne    401d2e <_ZN5Eigen15PlainObjectBaseINS_6MatrixIfLi32ELi32ELi0ELi32ELi32EEEE6resizeEll+0x30>
  401d20:	48 83 7d e0 00       	cmpq   $0x0,-0x20(%rbp)
  401d25:	78 07                	js     401d2e <_ZN5Eigen15PlainObjectBaseINS_6MatrixIfLi32ELi32ELi0ELi32ELi32EEEE6resizeEll+0x30>
  401d27:	48 83 7d d8 00       	cmpq   $0x0,-0x28(%rbp)
  401d2c:	79 19                	jns    401d47 <_ZN5Eigen15PlainObjectBaseINS_6MatrixIfLi32ELi32ELi0ELi32ELi32EEEE6resizeEll+0x49>
  401d2e:	b9 20 b0 40 00       	mov    $0x40b020,%ecx
  401d33:	ba 02 01 00 00       	mov    $0x102,%edx
  401d38:	be 80 a8 40 00       	mov    $0x40a880,%esi
  401d3d:	bf b8 a8 40 00       	mov    $0x40a8b8,%edi
  401d42:	e8 99 ec ff ff       	callq  4009e0 <__assert_fail@plt>
  401d47:	48 8b 45 e0          	mov    -0x20(%rbp),%rax
  401d4b:	48 89 45 f0          	mov    %rax,-0x10(%rbp)
  401d4f:	48 8b 45 d8          	mov    -0x28(%rbp),%rax
  401d53:	48 89 45 f8          	mov    %rax,-0x8(%rbp)
  401d57:	48 8b 45 e0          	mov    -0x20(%rbp),%rax
  401d5b:	48 0f af 45 d8       	imul   -0x28(%rbp),%rax
  401d60:	48 89 c6             	mov    %rax,%rsi
  401d63:	48 8b 45 e8          	mov    -0x18(%rbp),%rax
  401d67:	48 8b 4d d8          	mov    -0x28(%rbp),%rcx
  401d6b:	48 8b 55 e0          	mov    -0x20(%rbp),%rdx
  401d6f:	48 89 c7             	mov    %rax,%rdi
  401d72:	e8 5f 01 00 00       	callq  401ed6 <_ZN5Eigen12DenseStorageIfLi1024ELi32ELi32ELi0EE6resizeElll>
  401d77:	90                   	nop
  401d78:	c9                   	leaveq 
  401d79:	c3                   	retq   

0000000000401d7a <_ZN5Eigen8internal10AssignmentINS_6MatrixIfLi32ELi32ELi0ELi32ELi32EEES3_NS0_13add_assign_opIfEENS0_11Dense2DenseEfE3runERS3_RKS3_RKS5_>:
  401d7a:	55                   	push   %rbp
  401d7b:	48 89 e5             	mov    %rsp,%rbp
  401d7e:	53                   	push   %rbx
  401d7f:	48 83 ec 28          	sub    $0x28,%rsp
  401d83:	48 89 7d e8          	mov    %rdi,-0x18(%rbp)
  401d87:	48 89 75 e0          	mov    %rsi,-0x20(%rbp)
  401d8b:	48 89 55 d8          	mov    %rdx,-0x28(%rbp)
  401d8f:	48 8b 45 e8          	mov    -0x18(%rbp),%rax
  401d93:	48 89 c7             	mov    %rax,%rdi
  401d96:	e8 ad fd ff ff       	callq  401b48 <_ZNK5Eigen15PlainObjectBaseINS_6MatrixIfLi32ELi32ELi0ELi32ELi32EEEE4rowsEv>
  401d9b:	48 89 c3             	mov    %rax,%rbx
  401d9e:	48 8b 45 e0          	mov    -0x20(%rbp),%rax
  401da2:	48 89 c7             	mov    %rax,%rdi
  401da5:	e8 9e fd ff ff       	callq  401b48 <_ZNK5Eigen15PlainObjectBaseINS_6MatrixIfLi32ELi32ELi0ELi32ELi32EEEE4rowsEv>
  401daa:	48 39 c3             	cmp    %rax,%rbx
  401dad:	75 20                	jne    401dcf <_ZN5Eigen8internal10AssignmentINS_6MatrixIfLi32ELi32ELi0ELi32ELi32EEES3_NS0_13add_assign_opIfEENS0_11Dense2DenseEfE3runERS3_RKS3_RKS5_+0x55>
  401daf:	48 8b 45 e8          	mov    -0x18(%rbp),%rax
  401db3:	48 89 c7             	mov    %rax,%rdi
  401db6:	e8 79 fd ff ff       	callq  401b34 <_ZNK5Eigen15PlainObjectBaseINS_6MatrixIfLi32ELi32ELi0ELi32ELi32EEEE4colsEv>
  401dbb:	48 89 c3             	mov    %rax,%rbx
  401dbe:	48 8b 45 e0          	mov    -0x20(%rbp),%rax
  401dc2:	48 89 c7             	mov    %rax,%rdi
  401dc5:	e8 6a fd ff ff       	callq  401b34 <_ZNK5Eigen15PlainObjectBaseINS_6MatrixIfLi32ELi32ELi0ELi32ELi32EEEE4colsEv>
  401dca:	48 39 c3             	cmp    %rax,%rbx
  401dcd:	74 19                	je     401de8 <_ZN5Eigen8internal10AssignmentINS_6MatrixIfLi32ELi32ELi0ELi32ELi32EEES3_NS0_13add_assign_opIfEENS0_11Dense2DenseEfE3runERS3_RKS3_RKS5_+0x6e>
  401dcf:	b9 80 bd 40 00       	mov    $0x40bd80,%ecx
  401dd4:	ba 10 03 00 00       	mov    $0x310,%edx
  401dd9:	be 48 aa 40 00       	mov    $0x40aa48,%esi
  401dde:	bf 80 aa 40 00       	mov    $0x40aa80,%edi
  401de3:	e8 f8 eb ff ff       	callq  4009e0 <__assert_fail@plt>
  401de8:	48 8b 55 e0          	mov    -0x20(%rbp),%rdx
  401dec:	48 8b 45 e8          	mov    -0x18(%rbp),%rax
  401df0:	48 89 d6             	mov    %rdx,%rsi
  401df3:	48 89 c7             	mov    %rax,%rdi
  401df6:	e8 f2 00 00 00       	callq  401eed <_ZN5Eigen8internal18check_for_aliasingINS_6MatrixIfLi32ELi32ELi0ELi32ELi32EEES3_EEvRKT_RKT0_>
  401dfb:	48 8b 55 d8          	mov    -0x28(%rbp),%rdx
  401dff:	48 8b 4d e0          	mov    -0x20(%rbp),%rcx
  401e03:	48 8b 45 e8          	mov    -0x18(%rbp),%rax
  401e07:	48 89 ce             	mov    %rcx,%rsi
  401e0a:	48 89 c7             	mov    %rax,%rdi
  401e0d:	e8 55 01 00 00       	callq  401f67 <_ZN5Eigen8internal26call_dense_assignment_loopINS_6MatrixIfLi32ELi32ELi0ELi32ELi32EEES3_NS0_13add_assign_opIfEEEEvRKT_RKT0_RKT1_>
  401e12:	90                   	nop
  401e13:	48 83 c4 28          	add    $0x28,%rsp
  401e17:	5b                   	pop    %rbx
  401e18:	5d                   	pop    %rbp
  401e19:	c3                   	retq   

0000000000401e1a <_ZN5Eigen10MatrixBaseINS_6MatrixIfLi32ELi32ELi0ELi32ELi32EEEEC1Ev>:
  401e1a:	55                   	push   %rbp
  401e1b:	48 89 e5             	mov    %rsp,%rbp
  401e1e:	48 83 ec 10          	sub    $0x10,%rsp
  401e22:	48 89 7d f8          	mov    %rdi,-0x8(%rbp)
  401e26:	48 8b 45 f8          	mov    -0x8(%rbp),%rax
  401e2a:	48 89 c7             	mov    %rax,%rdi
  401e2d:	e8 ec 02 00 00       	callq  40211e <_ZN5Eigen9DenseBaseINS_6MatrixIfLi32ELi32ELi0ELi32ELi32EEEEC1Ev>
  401e32:	90                   	nop
  401e33:	c9                   	leaveq 
  401e34:	c3                   	retq   
  401e35:	90                   	nop

0000000000401e36 <_ZN5Eigen12DenseStorageIfLi1024ELi32ELi32ELi0EEC1Ev>:
  401e36:	55                   	push   %rbp
  401e37:	48 89 e5             	mov    %rsp,%rbp
  401e3a:	48 83 ec 10          	sub    $0x10,%rsp
  401e3e:	48 89 7d f8          	mov    %rdi,-0x8(%rbp)
  401e42:	48 8b 45 f8          	mov    -0x8(%rbp),%rax
  401e46:	48 89 c7             	mov    %rax,%rdi
  401e49:	e8 ec 02 00 00       	callq  40213a <_ZN5Eigen8internal11plain_arrayIfLi1024ELi0ELi16EEC1Ev>
  401e4e:	90                   	nop
  401e4f:	c9                   	leaveq 
  401e50:	c3                   	retq   
  401e51:	90                   	nop

0000000000401e52 <_ZN5Eigen15PlainObjectBaseINS_6MatrixIfLi32ELi32ELi0ELi32ELi32EEEE12_set_noaliasINS_7ProductIS2_S2_Li0EEEEERS2_RKNS_9DenseBaseIT_EE>:
  401e52:	55                   	push   %rbp
  401e53:	48 89 e5             	mov    %rsp,%rbp
  401e56:	53                   	push   %rbx
  401e57:	48 83 ec 28          	sub    $0x28,%rsp
  401e5b:	48 89 7d d8          	mov    %rdi,-0x28(%rbp)
  401e5f:	48 89 75 d0          	mov    %rsi,-0x30(%rbp)
  401e63:	64 48 8b 04 25 28 00 	mov    %fs:0x28,%rax
  401e6a:	00 00 
  401e6c:	48 89 45 e8          	mov    %rax,-0x18(%rbp)
  401e70:	31 c0                	xor    %eax,%eax
  401e72:	48 8d 45 e7          	lea    -0x19(%rbp),%rax
  401e76:	48 89 c7             	mov    %rax,%rdi
  401e79:	e8 fe 02 00 00       	callq  40217c <_ZN5Eigen8internal9assign_opIfEC1Ev>
  401e7e:	48 8b 45 d0          	mov    -0x30(%rbp),%rax
  401e82:	48 89 c7             	mov    %rax,%rdi
  401e85:	e8 ee fb ff ff       	callq  401a78 <_ZNK5Eigen9EigenBaseINS_7ProductINS_6MatrixIfLi32ELi32ELi0ELi32ELi32EEES3_Li0EEEE7derivedEv>
  401e8a:	48 89 c3             	mov    %rax,%rbx
  401e8d:	48 8b 45 d8          	mov    -0x28(%rbp),%rax
  401e91:	48 89 c7             	mov    %rax,%rdi
  401e94:	e8 d1 fb ff ff       	callq  401a6a <_ZN5Eigen9EigenBaseINS_6MatrixIfLi32ELi32ELi0ELi32ELi32EEEE7derivedEv>
  401e99:	48 89 c1             	mov    %rax,%rcx
  401e9c:	48 8d 45 e7          	lea    -0x19(%rbp),%rax
  401ea0:	48 89 c2             	mov    %rax,%rdx
  401ea3:	48 89 de             	mov    %rbx,%rsi
  401ea6:	48 89 cf             	mov    %rcx,%rdi
  401ea9:	e8 d9 02 00 00       	callq  402187 <_ZN5Eigen8internal24call_assignment_no_aliasINS_6MatrixIfLi32ELi32ELi0ELi32ELi32EEENS_7ProductIS3_S3_Li0EEENS0_9assign_opIfEEEEvRT_RKT0_RKT1_>
  401eae:	48 8b 45 d8          	mov    -0x28(%rbp),%rax
  401eb2:	48 89 c7             	mov    %rax,%rdi
  401eb5:	e8 b0 fb ff ff       	callq  401a6a <_ZN5Eigen9EigenBaseINS_6MatrixIfLi32ELi32ELi0ELi32ELi32EEEE7derivedEv>
  401eba:	48 8b 55 e8          	mov    -0x18(%rbp),%rdx
  401ebe:	64 48 33 14 25 28 00 	xor    %fs:0x28,%rdx
  401ec5:	00 00 
  401ec7:	74 05                	je     401ece <_ZN5Eigen15PlainObjectBaseINS_6MatrixIfLi32ELi32ELi0ELi32ELi32EEEE12_set_noaliasINS_7ProductIS2_S2_Li0EEEEERS2_RKNS_9DenseBaseIT_EE+0x7c>
  401ec9:	e8 b2 eb ff ff       	callq  400a80 <__stack_chk_fail@plt>
  401ece:	48 83 c4 28          	add    $0x28,%rsp
  401ed2:	5b                   	pop    %rbx
  401ed3:	5d                   	pop    %rbp
  401ed4:	c3                   	retq   
  401ed5:	90                   	nop

0000000000401ed6 <_ZN5Eigen12DenseStorageIfLi1024ELi32ELi32ELi0EE6resizeElll>:
  401ed6:	55                   	push   %rbp
  401ed7:	48 89 e5             	mov    %rsp,%rbp
  401eda:	48 89 7d f8          	mov    %rdi,-0x8(%rbp)
  401ede:	48 89 75 f0          	mov    %rsi,-0x10(%rbp)
  401ee2:	48 89 55 e8          	mov    %rdx,-0x18(%rbp)
  401ee6:	48 89 4d e0          	mov    %rcx,-0x20(%rbp)
  401eea:	90                   	nop
  401eeb:	5d                   	pop    %rbp
  401eec:	c3                   	retq   

0000000000401eed <_ZN5Eigen8internal18check_for_aliasingINS_6MatrixIfLi32ELi32ELi0ELi32ELi32EEES3_EEvRKT_RKT0_>:
  401eed:	55                   	push   %rbp
  401eee:	48 89 e5             	mov    %rsp,%rbp
  401ef1:	48 83 ec 10          	sub    $0x10,%rsp
  401ef5:	48 89 7d f8          	mov    %rdi,-0x8(%rbp)
  401ef9:	48 89 75 f0          	mov    %rsi,-0x10(%rbp)
  401efd:	48 8b 55 f0          	mov    -0x10(%rbp),%rdx
  401f01:	48 8b 45 f8          	mov    -0x8(%rbp),%rax
  401f05:	48 89 d6             	mov    %rdx,%rsi
  401f08:	48 89 c7             	mov    %rax,%rdi
  401f0b:	e8 18 03 00 00       	callq  402228 <_ZN5Eigen8internal27checkTransposeAliasing_implINS_6MatrixIfLi32ELi32ELi0ELi32ELi32EEES3_Lb0EE3runERKS3_S6_>
  401f10:	90                   	nop
  401f11:	c9                   	leaveq 
  401f12:	c3                   	retq   
  401f13:	90                   	nop

0000000000401f14 <_ZN5Eigen8internal14evaluator_baseINS_6MatrixIfLi32ELi32ELi0ELi32ELi32EEEED1Ev>:
  401f14:	55                   	push   %rbp
  401f15:	48 89 e5             	mov    %rsp,%rbp
  401f18:	48 83 ec 10          	sub    $0x10,%rsp
  401f1c:	48 89 7d f8          	mov    %rdi,-0x8(%rbp)
  401f20:	48 8b 45 f8          	mov    -0x8(%rbp),%rax
  401f24:	48 89 c7             	mov    %rax,%rdi
  401f27:	e8 86 f3 ff ff       	callq  4012b2 <_ZN5Eigen8internal11noncopyableD1Ev>
  401f2c:	90                   	nop
  401f2d:	c9                   	leaveq 
  401f2e:	c3                   	retq   
  401f2f:	90                   	nop

0000000000401f30 <_ZN5Eigen8internal9evaluatorINS_15PlainObjectBaseINS_6MatrixIfLi32ELi32ELi0ELi32ELi32EEEEEED1Ev>:
  401f30:	55                   	push   %rbp
  401f31:	48 89 e5             	mov    %rsp,%rbp
  401f34:	48 83 ec 10          	sub    $0x10,%rsp
  401f38:	48 89 7d f8          	mov    %rdi,-0x8(%rbp)
  401f3c:	48 8b 45 f8          	mov    -0x8(%rbp),%rax
  401f40:	48 89 c7             	mov    %rax,%rdi
  401f43:	e8 cc ff ff ff       	callq  401f14 <_ZN5Eigen8internal14evaluator_baseINS_6MatrixIfLi32ELi32ELi0ELi32ELi32EEEED1Ev>
  401f48:	90                   	nop
  401f49:	c9                   	leaveq 
  401f4a:	c3                   	retq   
  401f4b:	90                   	nop

0000000000401f4c <_ZN5Eigen8internal9evaluatorINS_6MatrixIfLi32ELi32ELi0ELi32ELi32EEEED1Ev>:
  401f4c:	55                   	push   %rbp
  401f4d:	48 89 e5             	mov    %rsp,%rbp
  401f50:	48 83 ec 10          	sub    $0x10,%rsp
  401f54:	48 89 7d f8          	mov    %rdi,-0x8(%rbp)
  401f58:	48 8b 45 f8          	mov    -0x8(%rbp),%rax
  401f5c:	48 89 c7             	mov    %rax,%rdi
  401f5f:	e8 cc ff ff ff       	callq  401f30 <_ZN5Eigen8internal9evaluatorINS_15PlainObjectBaseINS_6MatrixIfLi32ELi32ELi0ELi32ELi32EEEEEED1Ev>
  401f64:	90                   	nop
  401f65:	c9                   	leaveq 
  401f66:	c3                   	retq   

0000000000401f67 <_ZN5Eigen8internal26call_dense_assignment_loopINS_6MatrixIfLi32ELi32ELi0ELi32ELi32EEES3_NS0_13add_assign_opIfEEEEvRKT_RKT0_RKT1_>:
  401f67:	55                   	push   %rbp
  401f68:	48 89 e5             	mov    %rsp,%rbp
  401f6b:	53                   	push   %rbx
  401f6c:	48 83 ec 78          	sub    $0x78,%rsp
  401f70:	48 89 7d 98          	mov    %rdi,-0x68(%rbp)
  401f74:	48 89 75 90          	mov    %rsi,-0x70(%rbp)
  401f78:	48 89 55 88          	mov    %rdx,-0x78(%rbp)
  401f7c:	64 48 8b 04 25 28 00 	mov    %fs:0x28,%rax
  401f83:	00 00 
  401f85:	48 89 45 e8          	mov    %rax,-0x18(%rbp)
  401f89:	31 c0                	xor    %eax,%eax
  401f8b:	48 8b 45 98          	mov    -0x68(%rbp),%rax
  401f8f:	48 89 c7             	mov    %rax,%rdi
  401f92:	e8 b1 fb ff ff       	callq  401b48 <_ZNK5Eigen15PlainObjectBaseINS_6MatrixIfLi32ELi32ELi0ELi32ELi32EEEE4rowsEv>
  401f97:	48 89 c3             	mov    %rax,%rbx
  401f9a:	48 8b 45 90          	mov    -0x70(%rbp),%rax
  401f9e:	48 89 c7             	mov    %rax,%rdi
  401fa1:	e8 a2 fb ff ff       	callq  401b48 <_ZNK5Eigen15PlainObjectBaseINS_6MatrixIfLi32ELi32ELi0ELi32ELi32EEEE4rowsEv>
  401fa6:	48 39 c3             	cmp    %rax,%rbx
  401fa9:	75 20                	jne    401fcb <_ZN5Eigen8internal26call_dense_assignment_loopINS_6MatrixIfLi32ELi32ELi0ELi32ELi32EEES3_NS0_13add_assign_opIfEEEEvRKT_RKT0_RKT1_+0x64>
  401fab:	48 8b 45 98          	mov    -0x68(%rbp),%rax
  401faf:	48 89 c7             	mov    %rax,%rdi
  401fb2:	e8 7d fb ff ff       	callq  401b34 <_ZNK5Eigen15PlainObjectBaseINS_6MatrixIfLi32ELi32ELi0ELi32ELi32EEEE4colsEv>
  401fb7:	48 89 c3             	mov    %rax,%rbx
  401fba:	48 8b 45 90          	mov    -0x70(%rbp),%rax
  401fbe:	48 89 c7             	mov    %rax,%rdi
  401fc1:	e8 6e fb ff ff       	callq  401b34 <_ZNK5Eigen15PlainObjectBaseINS_6MatrixIfLi32ELi32ELi0ELi32ELi32EEEE4colsEv>
  401fc6:	48 39 c3             	cmp    %rax,%rbx
  401fc9:	74 19                	je     401fe4 <_ZN5Eigen8internal26call_dense_assignment_loopINS_6MatrixIfLi32ELi32ELi0ELi32ELi32EEES3_NS0_13add_assign_opIfEEEEvRKT_RKT0_RKT1_+0x7d>
  401fcb:	b9 e0 be 40 00       	mov    $0x40bee0,%ecx
  401fd0:	ba 82 02 00 00       	mov    $0x282,%edx
  401fd5:	be 48 aa 40 00       	mov    $0x40aa48,%esi
  401fda:	bf 80 aa 40 00       	mov    $0x40aa80,%edi
  401fdf:	e8 fc e9 ff ff       	callq  4009e0 <__assert_fail@plt>
  401fe4:	48 8b 55 98          	mov    -0x68(%rbp),%rdx
  401fe8:	48 8d 45 a0          	lea    -0x60(%rbp),%rax
  401fec:	48 89 d6             	mov    %rdx,%rsi
  401fef:	48 89 c7             	mov    %rax,%rdi
  401ff2:	e8 41 02 00 00       	callq  402238 <_ZN5Eigen8internal9evaluatorINS_6MatrixIfLi32ELi32ELi0ELi32ELi32EEEEC1ERKS3_>
  401ff7:	48 8b 55 90          	mov    -0x70(%rbp),%rdx
  401ffb:	48 8d 45 b0          	lea    -0x50(%rbp),%rax
  401fff:	48 89 d6             	mov    %rdx,%rsi
  402002:	48 89 c7             	mov    %rax,%rdi
  402005:	e8 2e 02 00 00       	callq  402238 <_ZN5Eigen8internal9evaluatorINS_6MatrixIfLi32ELi32ELi0ELi32ELi32EEEEC1ERKS3_>
  40200a:	48 8b 45 98          	mov    -0x68(%rbp),%rax
  40200e:	48 89 c7             	mov    %rax,%rdi
  402011:	e8 48 02 00 00       	callq  40225e <_ZNK5Eigen9EigenBaseINS_6MatrixIfLi32ELi32ELi0ELi32ELi32EEEE18const_cast_derivedEv>
  402016:	48 89 c7             	mov    %rax,%rdi
  402019:	48 8b 4d 88          	mov    -0x78(%rbp),%rcx
  40201d:	48 8d 55 b0          	lea    -0x50(%rbp),%rdx
  402021:	48 8d 75 a0          	lea    -0x60(%rbp),%rsi
  402025:	48 8d 45 c0          	lea    -0x40(%rbp),%rax
  402029:	49 89 f8             	mov    %rdi,%r8
  40202c:	48 89 c7             	mov    %rax,%rdi
  40202f:	e8 38 02 00 00       	callq  40226c <_ZN5Eigen8internal31generic_dense_assignment_kernelINS0_9evaluatorINS_6MatrixIfLi32ELi32ELi0ELi32ELi32EEEEES5_NS0_13add_assign_opIfEELi0EEC1ERS5_RKS5_RKS7_RS4_>
  402034:	48 8d 45 c0          	lea    -0x40(%rbp),%rax
  402038:	48 89 c7             	mov    %rax,%rdi
  40203b:	e8 76 02 00 00       	callq  4022b6 <_ZN5Eigen8internal21dense_assignment_loopINS0_31generic_dense_assignment_kernelINS0_9evaluatorINS_6MatrixIfLi32ELi32ELi0ELi32ELi32EEEEES6_NS0_13add_assign_opIfEELi0EEELi2ELi1EE3runERS9_>
  402040:	48 8d 45 b0          	lea    -0x50(%rbp),%rax
  402044:	48 89 c7             	mov    %rax,%rdi
  402047:	e8 00 ff ff ff       	callq  401f4c <_ZN5Eigen8internal9evaluatorINS_6MatrixIfLi32ELi32ELi0ELi32ELi32EEEED1Ev>
  40204c:	48 8d 45 a0          	lea    -0x60(%rbp),%rax
  402050:	48 89 c7             	mov    %rax,%rdi
  402053:	e8 f4 fe ff ff       	callq  401f4c <_ZN5Eigen8internal9evaluatorINS_6MatrixIfLi32ELi32ELi0ELi32ELi32EEEED1Ev>
  402058:	90                   	nop
  402059:	48 8b 45 e8          	mov    -0x18(%rbp),%rax
  40205d:	64 48 33 04 25 28 00 	xor    %fs:0x28,%rax
  402064:	00 00 
  402066:	74 32                	je     40209a <_ZN5Eigen8internal26call_dense_assignment_loopINS_6MatrixIfLi32ELi32ELi0ELi32ELi32EEES3_NS0_13add_assign_opIfEEEEvRKT_RKT0_RKT1_+0x133>
  402068:	eb 2b                	jmp    402095 <_ZN5Eigen8internal26call_dense_assignment_loopINS_6MatrixIfLi32ELi32ELi0ELi32ELi32EEES3_NS0_13add_assign_opIfEEEEvRKT_RKT0_RKT1_+0x12e>
  40206a:	48 89 c3             	mov    %rax,%rbx
  40206d:	48 8d 45 b0          	lea    -0x50(%rbp),%rax
  402071:	48 89 c7             	mov    %rax,%rdi
  402074:	e8 d3 fe ff ff       	callq  401f4c <_ZN5Eigen8internal9evaluatorINS_6MatrixIfLi32ELi32ELi0ELi32ELi32EEEED1Ev>
  402079:	eb 03                	jmp    40207e <_ZN5Eigen8internal26call_dense_assignment_loopINS_6MatrixIfLi32ELi32ELi0ELi32ELi32EEES3_NS0_13add_assign_opIfEEEEvRKT_RKT0_RKT1_+0x117>
  40207b:	48 89 c3             	mov    %rax,%rbx
  40207e:	48 8d 45 a0          	lea    -0x60(%rbp),%rax
  402082:	48 89 c7             	mov    %rax,%rdi
  402085:	e8 c2 fe ff ff       	callq  401f4c <_ZN5Eigen8internal9evaluatorINS_6MatrixIfLi32ELi32ELi0ELi32ELi32EEEED1Ev>
  40208a:	48 89 d8             	mov    %rbx,%rax
  40208d:	48 89 c7             	mov    %rax,%rdi
  402090:	e8 4b ea ff ff       	callq  400ae0 <_Unwind_Resume@plt>
  402095:	e8 e6 e9 ff ff       	callq  400a80 <__stack_chk_fail@plt>
  40209a:	48 83 c4 78          	add    $0x78,%rsp
  40209e:	5b                   	pop    %rbx
  40209f:	5d                   	pop    %rbp
  4020a0:	c3                   	retq   
  4020a1:	90                   	nop

00000000004020a2 <_ZN5Eigen9EigenBaseINS_6MatrixIfLi32ELi32ELi0ELi32ELi32EEEEC1Ev>:
  4020a2:	55                   	push   %rbp
  4020a3:	48 89 e5             	mov    %rsp,%rbp
  4020a6:	48 89 7d f8          	mov    %rdi,-0x8(%rbp)
  4020aa:	90                   	nop
  4020ab:	5d                   	pop    %rbp
  4020ac:	c3                   	retq   
  4020ad:	90                   	nop

00000000004020ae <_ZN5Eigen15DenseCoeffsBaseINS_6MatrixIfLi32ELi32ELi0ELi32ELi32EEELi0EEC1Ev>:
  4020ae:	55                   	push   %rbp
  4020af:	48 89 e5             	mov    %rsp,%rbp
  4020b2:	48 83 ec 10          	sub    $0x10,%rsp
  4020b6:	48 89 7d f8          	mov    %rdi,-0x8(%rbp)
  4020ba:	48 8b 45 f8          	mov    -0x8(%rbp),%rax
  4020be:	48 89 c7             	mov    %rax,%rdi
  4020c1:	e8 dc ff ff ff       	callq  4020a2 <_ZN5Eigen9EigenBaseINS_6MatrixIfLi32ELi32ELi0ELi32ELi32EEEEC1Ev>
  4020c6:	90                   	nop
  4020c7:	c9                   	leaveq 
  4020c8:	c3                   	retq   
  4020c9:	90                   	nop

00000000004020ca <_ZN5Eigen15DenseCoeffsBaseINS_6MatrixIfLi32ELi32ELi0ELi32ELi32EEELi1EEC1Ev>:
  4020ca:	55                   	push   %rbp
  4020cb:	48 89 e5             	mov    %rsp,%rbp
  4020ce:	48 83 ec 10          	sub    $0x10,%rsp
  4020d2:	48 89 7d f8          	mov    %rdi,-0x8(%rbp)
  4020d6:	48 8b 45 f8          	mov    -0x8(%rbp),%rax
  4020da:	48 89 c7             	mov    %rax,%rdi
  4020dd:	e8 cc ff ff ff       	callq  4020ae <_ZN5Eigen15DenseCoeffsBaseINS_6MatrixIfLi32ELi32ELi0ELi32ELi32EEELi0EEC1Ev>
  4020e2:	90                   	nop
  4020e3:	c9                   	leaveq 
  4020e4:	c3                   	retq   
  4020e5:	90                   	nop

00000000004020e6 <_ZN5Eigen15DenseCoeffsBaseINS_6MatrixIfLi32ELi32ELi0ELi32ELi32EEELi3EEC1Ev>:
  4020e6:	55                   	push   %rbp
  4020e7:	48 89 e5             	mov    %rsp,%rbp
  4020ea:	48 83 ec 10          	sub    $0x10,%rsp
  4020ee:	48 89 7d f8          	mov    %rdi,-0x8(%rbp)
  4020f2:	48 8b 45 f8          	mov    -0x8(%rbp),%rax
  4020f6:	48 89 c7             	mov    %rax,%rdi
  4020f9:	e8 cc ff ff ff       	callq  4020ca <_ZN5Eigen15DenseCoeffsBaseINS_6MatrixIfLi32ELi32ELi0ELi32ELi32EEELi1EEC1Ev>
  4020fe:	90                   	nop
  4020ff:	c9                   	leaveq 
  402100:	c3                   	retq   
  402101:	90                   	nop

0000000000402102 <_ZN5Eigen8internal22special_scalar_op_baseINS_6MatrixIfLi32ELi32ELi0ELi32ELi32EEEffNS_15DenseCoeffsBaseIS3_Li3EEELb0EEC1Ev>:
  402102:	55                   	push   %rbp
  402103:	48 89 e5             	mov    %rsp,%rbp
  402106:	48 83 ec 10          	sub    $0x10,%rsp
  40210a:	48 89 7d f8          	mov    %rdi,-0x8(%rbp)
  40210e:	48 8b 45 f8          	mov    -0x8(%rbp),%rax
  402112:	48 89 c7             	mov    %rax,%rdi
  402115:	e8 cc ff ff ff       	callq  4020e6 <_ZN5Eigen15DenseCoeffsBaseINS_6MatrixIfLi32ELi32ELi0ELi32ELi32EEELi3EEC1Ev>
  40211a:	90                   	nop
  40211b:	c9                   	leaveq 
  40211c:	c3                   	retq   
  40211d:	90                   	nop

000000000040211e <_ZN5Eigen9DenseBaseINS_6MatrixIfLi32ELi32ELi0ELi32ELi32EEEEC1Ev>:
  40211e:	55                   	push   %rbp
  40211f:	48 89 e5             	mov    %rsp,%rbp
  402122:	48 83 ec 10          	sub    $0x10,%rsp
  402126:	48 89 7d f8          	mov    %rdi,-0x8(%rbp)
  40212a:	48 8b 45 f8          	mov    -0x8(%rbp),%rax
  40212e:	48 89 c7             	mov    %rax,%rdi
  402131:	e8 cc ff ff ff       	callq  402102 <_ZN5Eigen8internal22special_scalar_op_baseINS_6MatrixIfLi32ELi32ELi0ELi32ELi32EEEffNS_15DenseCoeffsBaseIS3_Li3EEELb0EEC1Ev>
  402136:	90                   	nop
  402137:	c9                   	leaveq 
  402138:	c3                   	retq   
  402139:	90                   	nop

000000000040213a <_ZN5Eigen8internal11plain_arrayIfLi1024ELi0ELi16EEC1Ev>:
  40213a:	55                   	push   %rbp
  40213b:	48 89 e5             	mov    %rsp,%rbp
  40213e:	48 83 ec 20          	sub    $0x20,%rsp
  402142:	48 89 7d e8          	mov    %rdi,-0x18(%rbp)
  402146:	48 8b 45 e8          	mov    -0x18(%rbp),%rax
  40214a:	48 89 45 f8          	mov    %rax,-0x8(%rbp)
  40214e:	48 8b 45 f8          	mov    -0x8(%rbp),%rax
  402152:	83 e0 0f             	and    $0xf,%eax
  402155:	48 85 c0             	test   %rax,%rax
  402158:	74 19                	je     402173 <_ZN5Eigen8internal11plain_arrayIfLi1024ELi0ELi16EEC1Ev+0x39>
  40215a:	b9 80 af 40 00       	mov    $0x40af80,%ecx
  40215f:	ba 6d 00 00 00       	mov    $0x6d,%edx
  402164:	be b8 aa 40 00       	mov    $0x40aab8,%esi
  402169:	bf f0 aa 40 00       	mov    $0x40aaf0,%edi
  40216e:	e8 6d e8 ff ff       	callq  4009e0 <__assert_fail@plt>
  402173:	e8 89 01 00 00       	callq  402301 <_ZN5Eigen8internal28check_static_allocation_sizeIfLi1024EEEvv>
  402178:	90                   	nop
  402179:	c9                   	leaveq 
  40217a:	c3                   	retq   
  40217b:	90                   	nop

000000000040217c <_ZN5Eigen8internal9assign_opIfEC1Ev>:
  40217c:	55                   	push   %rbp
  40217d:	48 89 e5             	mov    %rsp,%rbp
  402180:	48 89 7d f8          	mov    %rdi,-0x8(%rbp)
  402184:	90                   	nop
  402185:	5d                   	pop    %rbp
  402186:	c3                   	retq   

0000000000402187 <_ZN5Eigen8internal24call_assignment_no_aliasINS_6MatrixIfLi32ELi32ELi0ELi32ELi32EEENS_7ProductIS3_S3_Li0EEENS0_9assign_opIfEEEEvRT_RKT0_RKT1_>:
  402187:	55                   	push   %rbp
  402188:	48 89 e5             	mov    %rsp,%rbp
  40218b:	48 83 ec 40          	sub    $0x40,%rsp
  40218f:	48 89 7d d8          	mov    %rdi,-0x28(%rbp)
  402193:	48 89 75 d0          	mov    %rsi,-0x30(%rbp)
  402197:	48 89 55 c8          	mov    %rdx,-0x38(%rbp)
  40219b:	48 8b 45 d0          	mov    -0x30(%rbp),%rax
  40219f:	48 89 c7             	mov    %rax,%rdi
  4021a2:	e8 7f 01 00 00       	callq  402326 <_ZNK5Eigen7ProductINS_6MatrixIfLi32ELi32ELi0ELi32ELi32EEES2_Li0EE4rowsEv>
  4021a7:	48 89 45 e8          	mov    %rax,-0x18(%rbp)
  4021ab:	48 8b 45 d0          	mov    -0x30(%rbp),%rax
  4021af:	48 89 c7             	mov    %rax,%rdi
  4021b2:	e8 51 01 00 00       	callq  402308 <_ZNK5Eigen7ProductINS_6MatrixIfLi32ELi32ELi0ELi32ELi32EEES2_Li0EE4colsEv>
  4021b7:	48 89 45 f0          	mov    %rax,-0x10(%rbp)
  4021bb:	48 8b 45 d8          	mov    -0x28(%rbp),%rax
  4021bf:	48 89 c7             	mov    %rax,%rdi
  4021c2:	e8 81 f9 ff ff       	callq  401b48 <_ZNK5Eigen15PlainObjectBaseINS_6MatrixIfLi32ELi32ELi0ELi32ELi32EEEE4rowsEv>
  4021c7:	48 3b 45 e8          	cmp    -0x18(%rbp),%rax
  4021cb:	75 12                	jne    4021df <_ZN5Eigen8internal24call_assignment_no_aliasINS_6MatrixIfLi32ELi32ELi0ELi32ELi32EEENS_7ProductIS3_S3_Li0EEENS0_9assign_opIfEEEEvRT_RKT0_RKT1_+0x58>
  4021cd:	48 8b 45 d8          	mov    -0x28(%rbp),%rax
  4021d1:	48 89 c7             	mov    %rax,%rdi
  4021d4:	e8 5b f9 ff ff       	callq  401b34 <_ZNK5Eigen15PlainObjectBaseINS_6MatrixIfLi32ELi32ELi0ELi32ELi32EEEE4colsEv>
  4021d9:	48 3b 45 f0          	cmp    -0x10(%rbp),%rax
  4021dd:	74 07                	je     4021e6 <_ZN5Eigen8internal24call_assignment_no_aliasINS_6MatrixIfLi32ELi32ELi0ELi32ELi32EEENS_7ProductIS3_S3_Li0EEENS0_9assign_opIfEEEEvRT_RKT0_RKT1_+0x5f>
  4021df:	b8 01 00 00 00       	mov    $0x1,%eax
  4021e4:	eb 05                	jmp    4021eb <_ZN5Eigen8internal24call_assignment_no_aliasINS_6MatrixIfLi32ELi32ELi0ELi32ELi32EEENS_7ProductIS3_S3_Li0EEENS0_9assign_opIfEEEEvRT_RKT0_RKT1_+0x64>
  4021e6:	b8 00 00 00 00       	mov    $0x0,%eax
  4021eb:	84 c0                	test   %al,%al
  4021ed:	74 17                	je     402206 <_ZN5Eigen8internal24call_assignment_no_aliasINS_6MatrixIfLi32ELi32ELi0ELi32ELi32EEENS_7ProductIS3_S3_Li0EEENS0_9assign_opIfEEEEvRT_RKT0_RKT1_+0x7f>
  4021ef:	48 8b 45 d8          	mov    -0x28(%rbp),%rax
  4021f3:	48 8b 55 f0          	mov    -0x10(%rbp),%rdx
  4021f7:	48 8b 4d e8          	mov    -0x18(%rbp),%rcx
  4021fb:	48 89 ce             	mov    %rcx,%rsi
  4021fe:	48 89 c7             	mov    %rax,%rdi
  402201:	e8 f8 fa ff ff       	callq  401cfe <_ZN5Eigen15PlainObjectBaseINS_6MatrixIfLi32ELi32ELi0ELi32ELi32EEEE6resizeEll>
  402206:	48 8b 45 d8          	mov    -0x28(%rbp),%rax
  40220a:	48 89 45 f8          	mov    %rax,-0x8(%rbp)
  40220e:	48 8b 55 c8          	mov    -0x38(%rbp),%rdx
  402212:	48 8b 4d d0          	mov    -0x30(%rbp),%rcx
  402216:	48 8b 45 f8          	mov    -0x8(%rbp),%rax
  40221a:	48 89 ce             	mov    %rcx,%rsi
  40221d:	48 89 c7             	mov    %rax,%rdi
  402220:	e8 1e 01 00 00       	callq  402343 <_ZN5Eigen8internal10AssignmentINS_6MatrixIfLi32ELi32ELi0ELi32ELi32EEENS_7ProductIS3_S3_Li0EEENS0_9assign_opIfEENS0_11Dense2DenseEfE3runERS3_RKS5_RKS7_>
  402225:	90                   	nop
  402226:	c9                   	leaveq 
  402227:	c3                   	retq   

0000000000402228 <_ZN5Eigen8internal27checkTransposeAliasing_implINS_6MatrixIfLi32ELi32ELi0ELi32ELi32EEES3_Lb0EE3runERKS3_S6_>:
  402228:	55                   	push   %rbp
  402229:	48 89 e5             	mov    %rsp,%rbp
  40222c:	48 89 7d f8          	mov    %rdi,-0x8(%rbp)
  402230:	48 89 75 f0          	mov    %rsi,-0x10(%rbp)
  402234:	90                   	nop
  402235:	5d                   	pop    %rbp
  402236:	c3                   	retq   
  402237:	90                   	nop

0000000000402238 <_ZN5Eigen8internal9evaluatorINS_6MatrixIfLi32ELi32ELi0ELi32ELi32EEEEC1ERKS3_>:
  402238:	55                   	push   %rbp
  402239:	48 89 e5             	mov    %rsp,%rbp
  40223c:	48 83 ec 10          	sub    $0x10,%rsp
  402240:	48 89 7d f8          	mov    %rdi,-0x8(%rbp)
  402244:	48 89 75 f0          	mov    %rsi,-0x10(%rbp)
  402248:	48 8b 55 f0          	mov    -0x10(%rbp),%rdx
  40224c:	48 8b 45 f8          	mov    -0x8(%rbp),%rax
  402250:	48 89 d6             	mov    %rdx,%rsi
  402253:	48 89 c7             	mov    %rax,%rdi
  402256:	e8 51 01 00 00       	callq  4023ac <_ZN5Eigen8internal9evaluatorINS_15PlainObjectBaseINS_6MatrixIfLi32ELi32ELi0ELi32ELi32EEEEEEC1ERKS5_>
  40225b:	90                   	nop
  40225c:	c9                   	leaveq 
  40225d:	c3                   	retq   

000000000040225e <_ZNK5Eigen9EigenBaseINS_6MatrixIfLi32ELi32ELi0ELi32ELi32EEEE18const_cast_derivedEv>:
  40225e:	55                   	push   %rbp
  40225f:	48 89 e5             	mov    %rsp,%rbp
  402262:	48 89 7d f8          	mov    %rdi,-0x8(%rbp)
  402266:	48 8b 45 f8          	mov    -0x8(%rbp),%rax
  40226a:	5d                   	pop    %rbp
  40226b:	c3                   	retq   

000000000040226c <_ZN5Eigen8internal31generic_dense_assignment_kernelINS0_9evaluatorINS_6MatrixIfLi32ELi32ELi0ELi32ELi32EEEEES5_NS0_13add_assign_opIfEELi0EEC1ERS5_RKS5_RKS7_RS4_>:
  40226c:	55                   	push   %rbp
  40226d:	48 89 e5             	mov    %rsp,%rbp
  402270:	48 89 7d f8          	mov    %rdi,-0x8(%rbp)
  402274:	48 89 75 f0          	mov    %rsi,-0x10(%rbp)
  402278:	48 89 55 e8          	mov    %rdx,-0x18(%rbp)
  40227c:	48 89 4d e0          	mov    %rcx,-0x20(%rbp)
  402280:	4c 89 45 d8          	mov    %r8,-0x28(%rbp)
  402284:	48 8b 45 f8          	mov    -0x8(%rbp),%rax
  402288:	48 8b 55 f0          	mov    -0x10(%rbp),%rdx
  40228c:	48 89 10             	mov    %rdx,(%rax)
  40228f:	48 8b 45 f8          	mov    -0x8(%rbp),%rax
  402293:	48 8b 55 e8          	mov    -0x18(%rbp),%rdx
  402297:	48 89 50 08          	mov    %rdx,0x8(%rax)
  40229b:	48 8b 45 f8          	mov    -0x8(%rbp),%rax
  40229f:	48 8b 55 e0          	mov    -0x20(%rbp),%rdx
  4022a3:	48 89 50 10          	mov    %rdx,0x10(%rax)
  4022a7:	48 8b 45 f8          	mov    -0x8(%rbp),%rax
  4022ab:	48 8b 55 d8          	mov    -0x28(%rbp),%rdx
  4022af:	48 89 50 18          	mov    %rdx,0x18(%rax)
  4022b3:	90                   	nop
  4022b4:	5d                   	pop    %rbp
  4022b5:	c3                   	retq   

00000000004022b6 <_ZN5Eigen8internal21dense_assignment_loopINS0_31generic_dense_assignment_kernelINS0_9evaluatorINS_6MatrixIfLi32ELi32ELi0ELi32ELi32EEEEES6_NS0_13add_assign_opIfEELi0EEELi2ELi1EE3runERS9_>:
  4022b6:	55                   	push   %rbp
  4022b7:	48 89 e5             	mov    %rsp,%rbp
  4022ba:	48 83 ec 20          	sub    $0x20,%rsp
  4022be:	48 89 7d e8          	mov    %rdi,-0x18(%rbp)
  4022c2:	48 8b 45 e8          	mov    -0x18(%rbp),%rax
  4022c6:	48 89 c7             	mov    %rax,%rdi
  4022c9:	e8 56 01 00 00       	callq  402424 <_ZNK5Eigen8internal31generic_dense_assignment_kernelINS0_9evaluatorINS_6MatrixIfLi32ELi32ELi0ELi32ELi32EEEEES5_NS0_13add_assign_opIfEELi0EE9outerSizeEv>
  4022ce:	48 89 45 f8          	mov    %rax,-0x8(%rbp)
  4022d2:	48 c7 45 f0 00 00 00 	movq   $0x0,-0x10(%rbp)
  4022d9:	00 
  4022da:	48 8b 45 f0          	mov    -0x10(%rbp),%rax
  4022de:	48 3b 45 f8          	cmp    -0x8(%rbp),%rax
  4022e2:	7d 1a                	jge    4022fe <_ZN5Eigen8internal21dense_assignment_loopINS0_31generic_dense_assignment_kernelINS0_9evaluatorINS_6MatrixIfLi32ELi32ELi0ELi32ELi32EEEEES6_NS0_13add_assign_opIfEELi0EEELi2ELi1EE3runERS9_+0x48>
  4022e4:	48 8b 55 f0          	mov    -0x10(%rbp),%rdx
  4022e8:	48 8b 45 e8          	mov    -0x18(%rbp),%rax
  4022ec:	48 89 d6             	mov    %rdx,%rsi
  4022ef:	48 89 c7             	mov    %rax,%rdi
  4022f2:	e8 4b 01 00 00       	callq  402442 <_ZN5Eigen8internal44copy_using_evaluator_innervec_InnerUnrollingINS0_31generic_dense_assignment_kernelINS0_9evaluatorINS_6MatrixIfLi32ELi32ELi0ELi32ELi32EEEEES6_NS0_13add_assign_opIfEELi0EEELi0ELi32EE3runERS9_l>
  4022f7:	48 83 45 f0 01       	addq   $0x1,-0x10(%rbp)
  4022fc:	eb dc                	jmp    4022da <_ZN5Eigen8internal21dense_assignment_loopINS0_31generic_dense_assignment_kernelINS0_9evaluatorINS_6MatrixIfLi32ELi32ELi0ELi32ELi32EEEEES6_NS0_13add_assign_opIfEELi0EEELi2ELi1EE3runERS9_+0x24>
  4022fe:	90                   	nop
  4022ff:	c9                   	leaveq 
  402300:	c3                   	retq   

0000000000402301 <_ZN5Eigen8internal28check_static_allocation_sizeIfLi1024EEEvv>:
  402301:	55                   	push   %rbp
  402302:	48 89 e5             	mov    %rsp,%rbp
  402305:	90                   	nop
  402306:	5d                   	pop    %rbp
  402307:	c3                   	retq   

0000000000402308 <_ZNK5Eigen7ProductINS_6MatrixIfLi32ELi32ELi0ELi32ELi32EEES2_Li0EE4colsEv>:
  402308:	55                   	push   %rbp
  402309:	48 89 e5             	mov    %rsp,%rbp
  40230c:	48 83 ec 10          	sub    $0x10,%rsp
  402310:	48 89 7d f8          	mov    %rdi,-0x8(%rbp)
  402314:	48 8b 45 f8          	mov    -0x8(%rbp),%rax
  402318:	48 8b 40 08          	mov    0x8(%rax),%rax
  40231c:	48 89 c7             	mov    %rax,%rdi
  40231f:	e8 10 f8 ff ff       	callq  401b34 <_ZNK5Eigen15PlainObjectBaseINS_6MatrixIfLi32ELi32ELi0ELi32ELi32EEEE4colsEv>
  402324:	c9                   	leaveq 
  402325:	c3                   	retq   

0000000000402326 <_ZNK5Eigen7ProductINS_6MatrixIfLi32ELi32ELi0ELi32ELi32EEES2_Li0EE4rowsEv>:
  402326:	55                   	push   %rbp
  402327:	48 89 e5             	mov    %rsp,%rbp
  40232a:	48 83 ec 10          	sub    $0x10,%rsp
  40232e:	48 89 7d f8          	mov    %rdi,-0x8(%rbp)
  402332:	48 8b 45 f8          	mov    -0x8(%rbp),%rax
  402336:	48 8b 00             	mov    (%rax),%rax
  402339:	48 89 c7             	mov    %rax,%rdi
  40233c:	e8 07 f8 ff ff       	callq  401b48 <_ZNK5Eigen15PlainObjectBaseINS_6MatrixIfLi32ELi32ELi0ELi32ELi32EEEE4rowsEv>
  402341:	c9                   	leaveq 
  402342:	c3                   	retq   

0000000000402343 <_ZN5Eigen8internal10AssignmentINS_6MatrixIfLi32ELi32ELi0ELi32ELi32EEENS_7ProductIS3_S3_Li0EEENS0_9assign_opIfEENS0_11Dense2DenseEfE3runERS3_RKS5_RKS7_>:
  402343:	55                   	push   %rbp
  402344:	48 89 e5             	mov    %rsp,%rbp
  402347:	53                   	push   %rbx
  402348:	48 83 ec 28          	sub    $0x28,%rsp
  40234c:	48 89 7d e8          	mov    %rdi,-0x18(%rbp)
  402350:	48 89 75 e0          	mov    %rsi,-0x20(%rbp)
  402354:	48 89 55 d8          	mov    %rdx,-0x28(%rbp)
  402358:	48 8b 45 e0          	mov    -0x20(%rbp),%rax
  40235c:	48 89 c7             	mov    %rax,%rdi
  40235f:	e8 2e 01 00 00       	callq  402492 <_ZNK5Eigen7ProductINS_6MatrixIfLi32ELi32ELi0ELi32ELi32EEES2_Li0EE3rhsEv>
  402364:	48 89 c3             	mov    %rax,%rbx
  402367:	48 8b 45 e0          	mov    -0x20(%rbp),%rax
  40236b:	48 89 c7             	mov    %rax,%rdi
  40236e:	e8 0d 01 00 00       	callq  402480 <_ZNK5Eigen7ProductINS_6MatrixIfLi32ELi32ELi0ELi32ELi32EEES2_Li0EE3lhsEv>
  402373:	48 89 c1             	mov    %rax,%rcx
  402376:	48 8b 45 e8          	mov    -0x18(%rbp),%rax
  40237a:	48 89 da             	mov    %rbx,%rdx
  40237d:	48 89 ce             	mov    %rcx,%rsi
  402380:	48 89 c7             	mov    %rax,%rdi
  402383:	e8 1c 01 00 00       	callq  4024a4 <_ZN5Eigen8internal20generic_product_implINS_6MatrixIfLi32ELi32ELi0ELi32ELi32EEES3_NS_10DenseShapeES4_Li8EE6evalToIS3_EEvRT_RKS3_SA_>
  402388:	90                   	nop
  402389:	48 83 c4 28          	add    $0x28,%rsp
  40238d:	5b                   	pop    %rbx
  40238e:	5d                   	pop    %rbp
  40238f:	c3                   	retq   

0000000000402390 <_ZN5Eigen8internal14evaluator_baseINS_6MatrixIfLi32ELi32ELi0ELi32ELi32EEEEC1Ev>:
  402390:	55                   	push   %rbp
  402391:	48 89 e5             	mov    %rsp,%rbp
  402394:	48 83 ec 10          	sub    $0x10,%rsp
  402398:	48 89 7d f8          	mov    %rdi,-0x8(%rbp)
  40239c:	48 8b 45 f8          	mov    -0x8(%rbp),%rax
  4023a0:	48 89 c7             	mov    %rax,%rdi
  4023a3:	e8 fe ee ff ff       	callq  4012a6 <_ZN5Eigen8internal11noncopyableC1Ev>
  4023a8:	90                   	nop
  4023a9:	c9                   	leaveq 
  4023aa:	c3                   	retq   
  4023ab:	90                   	nop

00000000004023ac <_ZN5Eigen8internal9evaluatorINS_15PlainObjectBaseINS_6MatrixIfLi32ELi32ELi0ELi32ELi32EEEEEEC1ERKS5_>:
  4023ac:	55                   	push   %rbp
  4023ad:	48 89 e5             	mov    %rsp,%rbp
  4023b0:	53                   	push   %rbx
  4023b1:	48 83 ec 18          	sub    $0x18,%rsp
  4023b5:	48 89 7d e8          	mov    %rdi,-0x18(%rbp)
  4023b9:	48 89 75 e0          	mov    %rsi,-0x20(%rbp)
  4023bd:	48 8b 45 e8          	mov    -0x18(%rbp),%rax
  4023c1:	48 89 c7             	mov    %rax,%rdi
  4023c4:	e8 c7 ff ff ff       	callq  402390 <_ZN5Eigen8internal14evaluator_baseINS_6MatrixIfLi32ELi32ELi0ELi32ELi32EEEEC1Ev>
  4023c9:	48 8b 45 e0          	mov    -0x20(%rbp),%rax
  4023cd:	48 89 c7             	mov    %rax,%rdi
  4023d0:	e8 ad 01 00 00       	callq  402582 <_ZNK5Eigen15PlainObjectBaseINS_6MatrixIfLi32ELi32ELi0ELi32ELi32EEEE4dataEv>
  4023d5:	48 89 c2             	mov    %rax,%rdx
  4023d8:	48 8b 45 e8          	mov    -0x18(%rbp),%rax
  4023dc:	48 89 10             	mov    %rdx,(%rax)
  4023df:	48 8b 45 e0          	mov    -0x20(%rbp),%rax
  4023e3:	48 89 c7             	mov    %rax,%rdi
  4023e6:	e8 b1 01 00 00       	callq  40259c <_ZNK5Eigen15DenseCoeffsBaseINS_6MatrixIfLi32ELi32ELi0ELi32ELi32EEELi3EE11outerStrideEv>
  4023eb:	48 89 c2             	mov    %rax,%rdx
  4023ee:	48 8b 45 e8          	mov    -0x18(%rbp),%rax
  4023f2:	48 83 c0 08          	add    $0x8,%rax
  4023f6:	48 89 d6             	mov    %rdx,%rsi
  4023f9:	48 89 c7             	mov    %rax,%rdi
  4023fc:	e8 bd 01 00 00       	callq  4025be <_ZN5Eigen8internal19variable_if_dynamicIlLi32EEC1El>
  402401:	eb 1a                	jmp    40241d <_ZN5Eigen8internal9evaluatorINS_15PlainObjectBaseINS_6MatrixIfLi32ELi32ELi0ELi32ELi32EEEEEEC1ERKS5_+0x71>
  402403:	48 89 c3             	mov    %rax,%rbx
  402406:	48 8b 45 e8          	mov    -0x18(%rbp),%rax
  40240a:	48 89 c7             	mov    %rax,%rdi
  40240d:	e8 02 fb ff ff       	callq  401f14 <_ZN5Eigen8internal14evaluator_baseINS_6MatrixIfLi32ELi32ELi0ELi32ELi32EEEED1Ev>
  402412:	48 89 d8             	mov    %rbx,%rax
  402415:	48 89 c7             	mov    %rax,%rdi
  402418:	e8 c3 e6 ff ff       	callq  400ae0 <_Unwind_Resume@plt>
  40241d:	48 83 c4 18          	add    $0x18,%rsp
  402421:	5b                   	pop    %rbx
  402422:	5d                   	pop    %rbp
  402423:	c3                   	retq   

0000000000402424 <_ZNK5Eigen8internal31generic_dense_assignment_kernelINS0_9evaluatorINS_6MatrixIfLi32ELi32ELi0ELi32ELi32EEEEES5_NS0_13add_assign_opIfEELi0EE9outerSizeEv>:
  402424:	55                   	push   %rbp
  402425:	48 89 e5             	mov    %rsp,%rbp
  402428:	48 83 ec 10          	sub    $0x10,%rsp
  40242c:	48 89 7d f8          	mov    %rdi,-0x8(%rbp)
  402430:	48 8b 45 f8          	mov    -0x8(%rbp),%rax
  402434:	48 8b 40 18          	mov    0x18(%rax),%rax
  402438:	48 89 c7             	mov    %rax,%rdi
  40243b:	e8 b2 01 00 00       	callq  4025f2 <_ZNK5Eigen9DenseBaseINS_6MatrixIfLi32ELi32ELi0ELi32ELi32EEEE9outerSizeEv>
  402440:	c9                   	leaveq 
  402441:	c3                   	retq   

0000000000402442 <_ZN5Eigen8internal44copy_using_evaluator_innervec_InnerUnrollingINS0_31generic_dense_assignment_kernelINS0_9evaluatorINS_6MatrixIfLi32ELi32ELi0ELi32ELi32EEEEES6_NS0_13add_assign_opIfEELi0EEELi0ELi32EE3runERS9_l>:
  402442:	55                   	push   %rbp
  402443:	48 89 e5             	mov    %rsp,%rbp
  402446:	48 83 ec 10          	sub    $0x10,%rsp
  40244a:	48 89 7d f8          	mov    %rdi,-0x8(%rbp)
  40244e:	48 89 75 f0          	mov    %rsi,-0x10(%rbp)
  402452:	48 8b 4d f0          	mov    -0x10(%rbp),%rcx
  402456:	48 8b 45 f8          	mov    -0x8(%rbp),%rax
  40245a:	ba 00 00 00 00       	mov    $0x0,%edx
  40245f:	48 89 ce             	mov    %rcx,%rsi
  402462:	48 89 c7             	mov    %rax,%rdi
  402465:	e8 a2 01 00 00       	callq  40260c <_ZN5Eigen8internal31generic_dense_assignment_kernelINS0_9evaluatorINS_6MatrixIfLi32ELi32ELi0ELi32ELi32EEEEES5_NS0_13add_assign_opIfEELi0EE24assignPacketByOuterInnerILi16ELi16EDv4_fEEvll>
  40246a:	48 8b 55 f0          	mov    -0x10(%rbp),%rdx
  40246e:	48 8b 45 f8          	mov    -0x8(%rbp),%rax
  402472:	48 89 d6             	mov    %rdx,%rsi
  402475:	48 89 c7             	mov    %rax,%rdi
  402478:	e8 eb 01 00 00       	callq  402668 <_ZN5Eigen8internal44copy_using_evaluator_innervec_InnerUnrollingINS0_31generic_dense_assignment_kernelINS0_9evaluatorINS_6MatrixIfLi32ELi32ELi0ELi32ELi32EEEEES6_NS0_13add_assign_opIfEELi0EEELi4ELi32EE3runERS9_l>
  40247d:	90                   	nop
  40247e:	c9                   	leaveq 
  40247f:	c3                   	retq   

0000000000402480 <_ZNK5Eigen7ProductINS_6MatrixIfLi32ELi32ELi0ELi32ELi32EEES2_Li0EE3lhsEv>:
  402480:	55                   	push   %rbp
  402481:	48 89 e5             	mov    %rsp,%rbp
  402484:	48 89 7d f8          	mov    %rdi,-0x8(%rbp)
  402488:	48 8b 45 f8          	mov    -0x8(%rbp),%rax
  40248c:	48 8b 00             	mov    (%rax),%rax
  40248f:	5d                   	pop    %rbp
  402490:	c3                   	retq   
  402491:	90                   	nop

0000000000402492 <_ZNK5Eigen7ProductINS_6MatrixIfLi32ELi32ELi0ELi32ELi32EEES2_Li0EE3rhsEv>:
  402492:	55                   	push   %rbp
  402493:	48 89 e5             	mov    %rsp,%rbp
  402496:	48 89 7d f8          	mov    %rdi,-0x8(%rbp)
  40249a:	48 8b 45 f8          	mov    -0x8(%rbp),%rax
  40249e:	48 8b 40 08          	mov    0x8(%rax),%rax
  4024a2:	5d                   	pop    %rbp
  4024a3:	c3                   	retq   

00000000004024a4 <_ZN5Eigen8internal20generic_product_implINS_6MatrixIfLi32ELi32ELi0ELi32ELi32EEES3_NS_10DenseShapeES4_Li8EE6evalToIS3_EEvRT_RKS3_SA_>:
  4024a4:	55                   	push   %rbp
  4024a5:	48 89 e5             	mov    %rsp,%rbp
  4024a8:	53                   	push   %rbx
  4024a9:	48 83 ec 38          	sub    $0x38,%rsp
  4024ad:	48 89 7d d8          	mov    %rdi,-0x28(%rbp)
  4024b1:	48 89 75 d0          	mov    %rsi,-0x30(%rbp)
  4024b5:	48 89 55 c8          	mov    %rdx,-0x38(%rbp)
  4024b9:	64 48 8b 04 25 28 00 	mov    %fs:0x28,%rax
  4024c0:	00 00 
  4024c2:	48 89 45 e8          	mov    %rax,-0x18(%rbp)
  4024c6:	31 c0                	xor    %eax,%eax
  4024c8:	48 8b 45 c8          	mov    -0x38(%rbp),%rax
  4024cc:	48 89 c7             	mov    %rax,%rdi
  4024cf:	e8 74 f6 ff ff       	callq  401b48 <_ZNK5Eigen15PlainObjectBaseINS_6MatrixIfLi32ELi32ELi0ELi32ELi32EEEE4rowsEv>
  4024d4:	48 89 c3             	mov    %rax,%rbx
  4024d7:	48 8b 45 d8          	mov    -0x28(%rbp),%rax
  4024db:	48 89 c7             	mov    %rax,%rdi
  4024de:	e8 65 f6 ff ff       	callq  401b48 <_ZNK5Eigen15PlainObjectBaseINS_6MatrixIfLi32ELi32ELi0ELi32ELi32EEEE4rowsEv>
  4024e3:	48 01 c3             	add    %rax,%rbx
  4024e6:	48 8b 45 d8          	mov    -0x28(%rbp),%rax
  4024ea:	48 89 c7             	mov    %rax,%rdi
  4024ed:	e8 42 f6 ff ff       	callq  401b34 <_ZNK5Eigen15PlainObjectBaseINS_6MatrixIfLi32ELi32ELi0ELi32ELi32EEEE4colsEv>
  4024f2:	48 01 d8             	add    %rbx,%rax
  4024f5:	48 83 f8 13          	cmp    $0x13,%rax
  4024f9:	7f 18                	jg     402513 <_ZN5Eigen8internal20generic_product_implINS_6MatrixIfLi32ELi32ELi0ELi32ELi32EEES3_NS_10DenseShapeES4_Li8EE6evalToIS3_EEvRT_RKS3_SA_+0x6f>
  4024fb:	48 8b 45 c8          	mov    -0x38(%rbp),%rax
  4024ff:	48 89 c7             	mov    %rax,%rdi
  402502:	e8 41 f6 ff ff       	callq  401b48 <_ZNK5Eigen15PlainObjectBaseINS_6MatrixIfLi32ELi32ELi0ELi32ELi32EEEE4rowsEv>
  402507:	48 85 c0             	test   %rax,%rax
  40250a:	7e 07                	jle    402513 <_ZN5Eigen8internal20generic_product_implINS_6MatrixIfLi32ELi32ELi0ELi32ELi32EEES3_NS_10DenseShapeES4_Li8EE6evalToIS3_EEvRT_RKS3_SA_+0x6f>
  40250c:	b8 01 00 00 00       	mov    $0x1,%eax
  402511:	eb 05                	jmp    402518 <_ZN5Eigen8internal20generic_product_implINS_6MatrixIfLi32ELi32ELi0ELi32ELi32EEES3_NS_10DenseShapeES4_Li8EE6evalToIS3_EEvRT_RKS3_SA_+0x74>
  402513:	b8 00 00 00 00       	mov    $0x0,%eax
  402518:	84 c0                	test   %al,%al
  40251a:	74 19                	je     402535 <_ZN5Eigen8internal20generic_product_implINS_6MatrixIfLi32ELi32ELi0ELi32ELi32EEES3_NS_10DenseShapeES4_Li8EE6evalToIS3_EEvRT_RKS3_SA_+0x91>
  40251c:	48 8b 55 c8          	mov    -0x38(%rbp),%rdx
  402520:	48 8b 4d d0          	mov    -0x30(%rbp),%rcx
  402524:	48 8b 45 d8          	mov    -0x28(%rbp),%rax
  402528:	48 89 ce             	mov    %rcx,%rsi
  40252b:	48 89 c7             	mov    %rax,%rdi
  40252e:	e8 73 01 00 00       	callq  4026a6 <_ZN5Eigen8internal20generic_product_implINS_6MatrixIfLi32ELi32ELi0ELi32ELi32EEES3_NS_10DenseShapeES4_Li3EE6evalToIS3_EEvRT_RKS3_SA_>
  402533:	eb 31                	jmp    402566 <_ZN5Eigen8internal20generic_product_implINS_6MatrixIfLi32ELi32ELi0ELi32ELi32EEES3_NS_10DenseShapeES4_Li8EE6evalToIS3_EEvRT_RKS3_SA_+0xc2>
  402535:	48 8b 45 d8          	mov    -0x28(%rbp),%rax
  402539:	48 89 c7             	mov    %rax,%rdi
  40253c:	e8 dd 01 00 00       	callq  40271e <_ZN5Eigen9DenseBaseINS_6MatrixIfLi32ELi32ELi0ELi32ELi32EEEE7setZeroEv>
  402541:	f3 0f 10 05 8b 9a 00 	movss  0x9a8b(%rip),%xmm0        # 40bfd4 <_ZZN5Eigen8internal26call_dense_assignment_loopINS_6MatrixIfLi32ELi32ELi0ELi32ELi32EEES3_NS0_13add_assign_opIfEEEEvRKT_RKT0_RKT1_E19__PRETTY_FUNCTION__+0xf4>
  402548:	00 
  402549:	f3 0f 11 45 e4       	movss  %xmm0,-0x1c(%rbp)
  40254e:	48 8d 4d e4          	lea    -0x1c(%rbp),%rcx
  402552:	48 8b 55 c8          	mov    -0x38(%rbp),%rdx
  402556:	48 8b 75 d0          	mov    -0x30(%rbp),%rsi
  40255a:	48 8b 45 d8          	mov    -0x28(%rbp),%rax
  40255e:	48 89 c7             	mov    %rax,%rdi
  402561:	e8 05 02 00 00       	callq  40276b <_ZN5Eigen8internal20generic_product_implINS_6MatrixIfLi32ELi32ELi0ELi32ELi32EEES3_NS_10DenseShapeES4_Li8EE13scaleAndAddToIS3_EEvRT_RKS3_SA_RKf>
  402566:	90                   	nop
  402567:	48 8b 45 e8          	mov    -0x18(%rbp),%rax
  40256b:	64 48 33 04 25 28 00 	xor    %fs:0x28,%rax
  402572:	00 00 
  402574:	74 05                	je     40257b <_ZN5Eigen8internal20generic_product_implINS_6MatrixIfLi32ELi32ELi0ELi32ELi32EEES3_NS_10DenseShapeES4_Li8EE6evalToIS3_EEvRT_RKS3_SA_+0xd7>
  402576:	e8 05 e5 ff ff       	callq  400a80 <__stack_chk_fail@plt>
  40257b:	48 83 c4 38          	add    $0x38,%rsp
  40257f:	5b                   	pop    %rbx
  402580:	5d                   	pop    %rbp
  402581:	c3                   	retq   

0000000000402582 <_ZNK5Eigen15PlainObjectBaseINS_6MatrixIfLi32ELi32ELi0ELi32ELi32EEEE4dataEv>:
  402582:	55                   	push   %rbp
  402583:	48 89 e5             	mov    %rsp,%rbp
  402586:	48 83 ec 10          	sub    $0x10,%rsp
  40258a:	48 89 7d f8          	mov    %rdi,-0x8(%rbp)
  40258e:	48 8b 45 f8          	mov    -0x8(%rbp),%rax
  402592:	48 89 c7             	mov    %rax,%rdi
  402595:	e8 2c 04 00 00       	callq  4029c6 <_ZNK5Eigen12DenseStorageIfLi1024ELi32ELi32ELi0EE4dataEv>
  40259a:	c9                   	leaveq 
  40259b:	c3                   	retq   

000000000040259c <_ZNK5Eigen15DenseCoeffsBaseINS_6MatrixIfLi32ELi32ELi0ELi32ELi32EEELi3EE11outerStrideEv>:
  40259c:	55                   	push   %rbp
  40259d:	48 89 e5             	mov    %rsp,%rbp
  4025a0:	48 83 ec 10          	sub    $0x10,%rsp
  4025a4:	48 89 7d f8          	mov    %rdi,-0x8(%rbp)
  4025a8:	48 8b 45 f8          	mov    -0x8(%rbp),%rax
  4025ac:	48 89 c7             	mov    %rax,%rdi
  4025af:	e8 f6 f3 ff ff       	callq  4019aa <_ZNK5Eigen9EigenBaseINS_6MatrixIfLi32ELi32ELi0ELi32ELi32EEEE7derivedEv>
  4025b4:	48 89 c7             	mov    %rax,%rdi
  4025b7:	e8 18 04 00 00       	callq  4029d4 <_ZNK5Eigen6MatrixIfLi32ELi32ELi0ELi32ELi32EE11outerStrideEv>
  4025bc:	c9                   	leaveq 
  4025bd:	c3                   	retq   

00000000004025be <_ZN5Eigen8internal19variable_if_dynamicIlLi32EEC1El>:
  4025be:	55                   	push   %rbp
  4025bf:	48 89 e5             	mov    %rsp,%rbp
  4025c2:	48 83 ec 10          	sub    $0x10,%rsp
  4025c6:	48 89 7d f8          	mov    %rdi,-0x8(%rbp)
  4025ca:	48 89 75 f0          	mov    %rsi,-0x10(%rbp)
  4025ce:	48 83 7d f0 20       	cmpq   $0x20,-0x10(%rbp)
  4025d3:	74 19                	je     4025ee <_ZN5Eigen8internal19variable_if_dynamicIlLi32EEC1El+0x30>
  4025d5:	b9 c0 b4 40 00       	mov    $0x40b4c0,%ecx
  4025da:	ba 46 00 00 00       	mov    $0x46,%edx
  4025df:	be e8 ab 40 00       	mov    $0x40abe8,%esi
  4025e4:	bf 1b ac 40 00       	mov    $0x40ac1b,%edi
  4025e9:	e8 f2 e3 ff ff       	callq  4009e0 <__assert_fail@plt>
  4025ee:	90                   	nop
  4025ef:	c9                   	leaveq 
  4025f0:	c3                   	retq   
  4025f1:	90                   	nop

00000000004025f2 <_ZNK5Eigen9DenseBaseINS_6MatrixIfLi32ELi32ELi0ELi32ELi32EEEE9outerSizeEv>:
  4025f2:	55                   	push   %rbp
  4025f3:	48 89 e5             	mov    %rsp,%rbp
  4025f6:	48 83 ec 10          	sub    $0x10,%rsp
  4025fa:	48 89 7d f8          	mov    %rdi,-0x8(%rbp)
  4025fe:	48 8b 45 f8          	mov    -0x8(%rbp),%rax
  402602:	48 89 c7             	mov    %rax,%rdi
  402605:	e8 06 04 00 00       	callq  402a10 <_ZNK5Eigen9EigenBaseINS_6MatrixIfLi32ELi32ELi0ELi32ELi32EEEE4colsEv>
  40260a:	c9                   	leaveq 
  40260b:	c3                   	retq   

000000000040260c <_ZN5Eigen8internal31generic_dense_assignment_kernelINS0_9evaluatorINS_6MatrixIfLi32ELi32ELi0ELi32ELi32EEEEES5_NS0_13add_assign_opIfEELi0EE24assignPacketByOuterInnerILi16ELi16EDv4_fEEvll>:
  40260c:	55                   	push   %rbp
  40260d:	48 89 e5             	mov    %rsp,%rbp
  402610:	48 83 ec 30          	sub    $0x30,%rsp
  402614:	48 89 7d e8          	mov    %rdi,-0x18(%rbp)
  402618:	48 89 75 e0          	mov    %rsi,-0x20(%rbp)
  40261c:	48 89 55 d8          	mov    %rdx,-0x28(%rbp)
  402620:	48 8b 55 d8          	mov    -0x28(%rbp),%rdx
  402624:	48 8b 45 e0          	mov    -0x20(%rbp),%rax
  402628:	48 89 d6             	mov    %rdx,%rsi
  40262b:	48 89 c7             	mov    %rax,%rdi
  40262e:	e8 ff 03 00 00       	callq  402a32 <_ZN5Eigen8internal31generic_dense_assignment_kernelINS0_9evaluatorINS_6MatrixIfLi32ELi32ELi0ELi32ELi32EEEEES5_NS0_13add_assign_opIfEELi0EE20rowIndexByOuterInnerEll>
  402633:	48 89 45 f0          	mov    %rax,-0x10(%rbp)
  402637:	48 8b 55 d8          	mov    -0x28(%rbp),%rdx
  40263b:	48 8b 45 e0          	mov    -0x20(%rbp),%rax
  40263f:	48 89 d6             	mov    %rdx,%rsi
  402642:	48 89 c7             	mov    %rax,%rdi
  402645:	e8 fa 03 00 00       	callq  402a44 <_ZN5Eigen8internal31generic_dense_assignment_kernelINS0_9evaluatorINS_6MatrixIfLi32ELi32ELi0ELi32ELi32EEEEES5_NS0_13add_assign_opIfEELi0EE20colIndexByOuterInnerEll>
  40264a:	48 89 45 f8          	mov    %rax,-0x8(%rbp)
  40264e:	48 8b 55 f8          	mov    -0x8(%rbp),%rdx
  402652:	48 8b 4d f0          	mov    -0x10(%rbp),%rcx
  402656:	48 8b 45 e8          	mov    -0x18(%rbp),%rax
  40265a:	48 89 ce             	mov    %rcx,%rsi
  40265d:	48 89 c7             	mov    %rax,%rdi
  402660:	e8 f1 03 00 00       	callq  402a56 <_ZN5Eigen8internal31generic_dense_assignment_kernelINS0_9evaluatorINS_6MatrixIfLi32ELi32ELi0ELi32ELi32EEEEES5_NS0_13add_assign_opIfEELi0EE12assignPacketILi16ELi16EDv4_fEEvll>
  402665:	90                   	nop
  402666:	c9                   	leaveq 
  402667:	c3                   	retq   

0000000000402668 <_ZN5Eigen8internal44copy_using_evaluator_innervec_InnerUnrollingINS0_31generic_dense_assignment_kernelINS0_9evaluatorINS_6MatrixIfLi32ELi32ELi0ELi32ELi32EEEEES6_NS0_13add_assign_opIfEELi0EEELi4ELi32EE3runERS9_l>:
  402668:	55                   	push   %rbp
  402669:	48 89 e5             	mov    %rsp,%rbp
  40266c:	48 83 ec 10          	sub    $0x10,%rsp
  402670:	48 89 7d f8          	mov    %rdi,-0x8(%rbp)
  402674:	48 89 75 f0          	mov    %rsi,-0x10(%rbp)
  402678:	48 8b 4d f0          	mov    -0x10(%rbp),%rcx
  40267c:	48 8b 45 f8          	mov    -0x8(%rbp),%rax
  402680:	ba 04 00 00 00       	mov    $0x4,%edx
  402685:	48 89 ce             	mov    %rcx,%rsi
  402688:	48 89 c7             	mov    %rax,%rdi
  40268b:	e8 7c ff ff ff       	callq  40260c <_ZN5Eigen8internal31generic_dense_assignment_kernelINS0_9evaluatorINS_6MatrixIfLi32ELi32ELi0ELi32ELi32EEEEES5_NS0_13add_assign_opIfEELi0EE24assignPacketByOuterInnerILi16ELi16EDv4_fEEvll>
  402690:	48 8b 55 f0          	mov    -0x10(%rbp),%rdx
  402694:	48 8b 45 f8          	mov    -0x8(%rbp),%rax
  402698:	48 89 d6             	mov    %rdx,%rsi
  40269b:	48 89 c7             	mov    %rax,%rdi
  40269e:	e8 46 04 00 00       	callq  402ae9 <_ZN5Eigen8internal44copy_using_evaluator_innervec_InnerUnrollingINS0_31generic_dense_assignment_kernelINS0_9evaluatorINS_6MatrixIfLi32ELi32ELi0ELi32ELi32EEEEES6_NS0_13add_assign_opIfEELi0EEELi8ELi32EE3runERS9_l>
  4026a3:	90                   	nop
  4026a4:	c9                   	leaveq 
  4026a5:	c3                   	retq   

00000000004026a6 <_ZN5Eigen8internal20generic_product_implINS_6MatrixIfLi32ELi32ELi0ELi32ELi32EEES3_NS_10DenseShapeES4_Li3EE6evalToIS3_EEvRT_RKS3_SA_>:
  4026a6:	55                   	push   %rbp
  4026a7:	48 89 e5             	mov    %rsp,%rbp
  4026aa:	48 83 ec 50          	sub    $0x50,%rsp
  4026ae:	48 89 7d c8          	mov    %rdi,-0x38(%rbp)
  4026b2:	48 89 75 c0          	mov    %rsi,-0x40(%rbp)
  4026b6:	48 89 55 b8          	mov    %rdx,-0x48(%rbp)
  4026ba:	64 48 8b 04 25 28 00 	mov    %fs:0x28,%rax
  4026c1:	00 00 
  4026c3:	48 89 45 f8          	mov    %rax,-0x8(%rbp)
  4026c7:	31 c0                	xor    %eax,%eax
  4026c9:	48 8d 45 df          	lea    -0x21(%rbp),%rax
  4026cd:	48 89 c7             	mov    %rax,%rdi
  4026d0:	e8 a7 fa ff ff       	callq  40217c <_ZN5Eigen8internal9assign_opIfEC1Ev>
  4026d5:	48 8b 55 b8          	mov    -0x48(%rbp),%rdx
  4026d9:	48 8b 45 c0          	mov    -0x40(%rbp),%rax
  4026dd:	48 89 d6             	mov    %rdx,%rsi
  4026e0:	48 89 c7             	mov    %rax,%rdi
  4026e3:	e8 40 04 00 00       	callq  402b28 <_ZNK5Eigen10MatrixBaseINS_6MatrixIfLi32ELi32ELi0ELi32ELi32EEEE11lazyProductIS2_EEKNS_7ProductIS2_T_Li1EEERKNS0_IS6_EE>
  4026e8:	48 89 45 e0          	mov    %rax,-0x20(%rbp)
  4026ec:	48 89 55 e8          	mov    %rdx,-0x18(%rbp)
  4026f0:	48 8d 55 df          	lea    -0x21(%rbp),%rdx
  4026f4:	48 8d 4d e0          	lea    -0x20(%rbp),%rcx
  4026f8:	48 8b 45 c8          	mov    -0x38(%rbp),%rax
  4026fc:	48 89 ce             	mov    %rcx,%rsi
  4026ff:	48 89 c7             	mov    %rax,%rdi
  402702:	e8 94 04 00 00       	callq  402b9b <_ZN5Eigen8internal24call_assignment_no_aliasINS_6MatrixIfLi32ELi32ELi0ELi32ELi32EEENS_7ProductIS3_S3_Li1EEENS0_9assign_opIfEEEEvRT_RKT0_RKT1_>
  402707:	90                   	nop
  402708:	48 8b 45 f8          	mov    -0x8(%rbp),%rax
  40270c:	64 48 33 04 25 28 00 	xor    %fs:0x28,%rax
  402713:	00 00 
  402715:	74 05                	je     40271c <_ZN5Eigen8internal20generic_product_implINS_6MatrixIfLi32ELi32ELi0ELi32ELi32EEES3_NS_10DenseShapeES4_Li3EE6evalToIS3_EEvRT_RKS3_SA_+0x76>
  402717:	e8 64 e3 ff ff       	callq  400a80 <__stack_chk_fail@plt>
  40271c:	c9                   	leaveq 
  40271d:	c3                   	retq   

000000000040271e <_ZN5Eigen9DenseBaseINS_6MatrixIfLi32ELi32ELi0ELi32ELi32EEEE7setZeroEv>:
  40271e:	55                   	push   %rbp
  40271f:	48 89 e5             	mov    %rsp,%rbp
  402722:	48 83 ec 20          	sub    $0x20,%rsp
  402726:	48 89 7d e8          	mov    %rdi,-0x18(%rbp)
  40272a:	64 48 8b 04 25 28 00 	mov    %fs:0x28,%rax
  402731:	00 00 
  402733:	48 89 45 f8          	mov    %rax,-0x8(%rbp)
  402737:	31 c0                	xor    %eax,%eax
  402739:	66 0f ef c0          	pxor   %xmm0,%xmm0
  40273d:	f3 0f 11 45 f4       	movss  %xmm0,-0xc(%rbp)
  402742:	48 8d 55 f4          	lea    -0xc(%rbp),%rdx
  402746:	48 8b 45 e8          	mov    -0x18(%rbp),%rax
  40274a:	48 89 d6             	mov    %rdx,%rsi
  40274d:	48 89 c7             	mov    %rax,%rdi
  402750:	e8 e7 04 00 00       	callq  402c3c <_ZN5Eigen9DenseBaseINS_6MatrixIfLi32ELi32ELi0ELi32ELi32EEEE11setConstantERKf>
  402755:	48 8b 4d f8          	mov    -0x8(%rbp),%rcx
  402759:	64 48 33 0c 25 28 00 	xor    %fs:0x28,%rcx
  402760:	00 00 
  402762:	74 05                	je     402769 <_ZN5Eigen9DenseBaseINS_6MatrixIfLi32ELi32ELi0ELi32ELi32EEEE7setZeroEv+0x4b>
  402764:	e8 17 e3 ff ff       	callq  400a80 <__stack_chk_fail@plt>
  402769:	c9                   	leaveq 
  40276a:	c3                   	retq   

000000000040276b <_ZN5Eigen8internal20generic_product_implINS_6MatrixIfLi32ELi32ELi0ELi32ELi32EEES3_NS_10DenseShapeES4_Li8EE13scaleAndAddToIS3_EEvRT_RKS3_SA_RKf>:
  40276b:	55                   	push   %rbp
  40276c:	48 89 e5             	mov    %rsp,%rbp
  40276f:	41 54                	push   %r12
  402771:	53                   	push   %rbx
  402772:	48 81 ec c0 20 00 00 	sub    $0x20c0,%rsp
  402779:	48 89 bd 58 df ff ff 	mov    %rdi,-0x20a8(%rbp)
  402780:	48 89 b5 50 df ff ff 	mov    %rsi,-0x20b0(%rbp)
  402787:	48 89 95 48 df ff ff 	mov    %rdx,-0x20b8(%rbp)
  40278e:	48 89 8d 40 df ff ff 	mov    %rcx,-0x20c0(%rbp)
  402795:	64 48 8b 04 25 28 00 	mov    %fs:0x28,%rax
  40279c:	00 00 
  40279e:	48 89 45 e8          	mov    %rax,-0x18(%rbp)
  4027a2:	31 c0                	xor    %eax,%eax
  4027a4:	48 8b 85 58 df ff ff 	mov    -0x20a8(%rbp),%rax
  4027ab:	48 89 c7             	mov    %rax,%rdi
  4027ae:	e8 95 f3 ff ff       	callq  401b48 <_ZNK5Eigen15PlainObjectBaseINS_6MatrixIfLi32ELi32ELi0ELi32ELi32EEEE4rowsEv>
  4027b3:	48 89 c3             	mov    %rax,%rbx
  4027b6:	48 8b 85 50 df ff ff 	mov    -0x20b0(%rbp),%rax
  4027bd:	48 89 c7             	mov    %rax,%rdi
  4027c0:	e8 83 f3 ff ff       	callq  401b48 <_ZNK5Eigen15PlainObjectBaseINS_6MatrixIfLi32ELi32ELi0ELi32ELi32EEEE4rowsEv>
  4027c5:	48 39 c3             	cmp    %rax,%rbx
  4027c8:	75 26                	jne    4027f0 <_ZN5Eigen8internal20generic_product_implINS_6MatrixIfLi32ELi32ELi0ELi32ELi32EEES3_NS_10DenseShapeES4_Li8EE13scaleAndAddToIS3_EEvRT_RKS3_SA_RKf+0x85>
  4027ca:	48 8b 85 58 df ff ff 	mov    -0x20a8(%rbp),%rax
  4027d1:	48 89 c7             	mov    %rax,%rdi
  4027d4:	e8 5b f3 ff ff       	callq  401b34 <_ZNK5Eigen15PlainObjectBaseINS_6MatrixIfLi32ELi32ELi0ELi32ELi32EEEE4colsEv>
  4027d9:	48 89 c3             	mov    %rax,%rbx
  4027dc:	48 8b 85 48 df ff ff 	mov    -0x20b8(%rbp),%rax
  4027e3:	48 89 c7             	mov    %rax,%rdi
  4027e6:	e8 49 f3 ff ff       	callq  401b34 <_ZNK5Eigen15PlainObjectBaseINS_6MatrixIfLi32ELi32ELi0ELi32ELi32EEEE4colsEv>
  4027eb:	48 39 c3             	cmp    %rax,%rbx
  4027ee:	74 19                	je     402809 <_ZN5Eigen8internal20generic_product_implINS_6MatrixIfLi32ELi32ELi0ELi32ELi32EEES3_NS_10DenseShapeES4_Li8EE13scaleAndAddToIS3_EEvRT_RKS3_SA_RKf+0x9e>
  4027f0:	b9 20 b9 40 00       	mov    $0x40b920,%ecx
  4027f5:	ba d0 01 00 00       	mov    $0x1d0,%edx
  4027fa:	be 30 ac 40 00       	mov    $0x40ac30,%esi
  4027ff:	bf 78 ac 40 00       	mov    $0x40ac78,%edi
  402804:	e8 d7 e1 ff ff       	callq  4009e0 <__assert_fail@plt>
  402809:	48 8b 85 50 df ff ff 	mov    -0x20b0(%rbp),%rax
  402810:	48 89 c7             	mov    %rax,%rdi
  402813:	e8 1c f3 ff ff       	callq  401b34 <_ZNK5Eigen15PlainObjectBaseINS_6MatrixIfLi32ELi32ELi0ELi32ELi32EEEE4colsEv>
  402818:	48 85 c0             	test   %rax,%rax
  40281b:	74 28                	je     402845 <_ZN5Eigen8internal20generic_product_implINS_6MatrixIfLi32ELi32ELi0ELi32ELi32EEES3_NS_10DenseShapeES4_Li8EE13scaleAndAddToIS3_EEvRT_RKS3_SA_RKf+0xda>
  40281d:	48 8b 85 50 df ff ff 	mov    -0x20b0(%rbp),%rax
  402824:	48 89 c7             	mov    %rax,%rdi
  402827:	e8 1c f3 ff ff       	callq  401b48 <_ZNK5Eigen15PlainObjectBaseINS_6MatrixIfLi32ELi32ELi0ELi32ELi32EEEE4rowsEv>
  40282c:	48 85 c0             	test   %rax,%rax
  40282f:	74 14                	je     402845 <_ZN5Eigen8internal20generic_product_implINS_6MatrixIfLi32ELi32ELi0ELi32ELi32EEES3_NS_10DenseShapeES4_Li8EE13scaleAndAddToIS3_EEvRT_RKS3_SA_RKf+0xda>
  402831:	48 8b 85 48 df ff ff 	mov    -0x20b8(%rbp),%rax
  402838:	48 89 c7             	mov    %rax,%rdi
  40283b:	e8 f4 f2 ff ff       	callq  401b34 <_ZNK5Eigen15PlainObjectBaseINS_6MatrixIfLi32ELi32ELi0ELi32ELi32EEEE4colsEv>
  402840:	48 85 c0             	test   %rax,%rax
  402843:	75 07                	jne    40284c <_ZN5Eigen8internal20generic_product_implINS_6MatrixIfLi32ELi32ELi0ELi32ELi32EEES3_NS_10DenseShapeES4_Li8EE13scaleAndAddToIS3_EEvRT_RKS3_SA_RKf+0xe1>
  402845:	b8 01 00 00 00       	mov    $0x1,%eax
  40284a:	eb 05                	jmp    402851 <_ZN5Eigen8internal20generic_product_implINS_6MatrixIfLi32ELi32ELi0ELi32ELi32EEES3_NS_10DenseShapeES4_Li8EE13scaleAndAddToIS3_EEvRT_RKS3_SA_RKf+0xe6>
  40284c:	b8 00 00 00 00       	mov    $0x0,%eax
  402851:	84 c0                	test   %al,%al
  402853:	0f 85 4c 01 00 00    	jne    4029a5 <_ZN5Eigen8internal20generic_product_implINS_6MatrixIfLi32ELi32ELi0ELi32ELi32EEES3_NS_10DenseShapeES4_Li8EE13scaleAndAddToIS3_EEvRT_RKS3_SA_RKf+0x23a>
  402859:	48 8b 85 50 df ff ff 	mov    -0x20b0(%rbp),%rax
  402860:	48 89 c7             	mov    %rax,%rdi
  402863:	e8 61 04 00 00       	callq  402cc9 <_ZN5Eigen8internal11blas_traitsINS_6MatrixIfLi32ELi32ELi0ELi32ELi32EEEE7extractERKS3_>
  402868:	48 89 85 70 df ff ff 	mov    %rax,-0x2090(%rbp)
  40286f:	48 8b 85 48 df ff ff 	mov    -0x20b8(%rbp),%rax
  402876:	48 89 c7             	mov    %rax,%rdi
  402879:	e8 4b 04 00 00       	callq  402cc9 <_ZN5Eigen8internal11blas_traitsINS_6MatrixIfLi32ELi32ELi0ELi32ELi32EEEE7extractERKS3_>
  40287e:	48 89 85 78 df ff ff 	mov    %rax,-0x2088(%rbp)
  402885:	48 8b 85 40 df ff ff 	mov    -0x20c0(%rbp),%rax
  40288c:	f3 0f 10 10          	movss  (%rax),%xmm2
  402890:	f3 0f 11 95 3c df ff 	movss  %xmm2,-0x20c4(%rbp)
  402897:	ff 
  402898:	48 8b 85 50 df ff ff 	mov    -0x20b0(%rbp),%rax
  40289f:	48 89 c7             	mov    %rax,%rdi
  4028a2:	e8 30 04 00 00       	callq  402cd7 <_ZN5Eigen8internal11blas_traitsINS_6MatrixIfLi32ELi32ELi0ELi32ELi32EEEE19extractScalarFactorERKS3_>
  4028a7:	f3 0f 59 85 3c df ff 	mulss  -0x20c4(%rbp),%xmm0
  4028ae:	ff 
  4028af:	f3 0f 11 85 3c df ff 	movss  %xmm0,-0x20c4(%rbp)
  4028b6:	ff 
  4028b7:	48 8b 85 48 df ff ff 	mov    -0x20b8(%rbp),%rax
  4028be:	48 89 c7             	mov    %rax,%rdi
  4028c1:	e8 11 04 00 00       	callq  402cd7 <_ZN5Eigen8internal11blas_traitsINS_6MatrixIfLi32ELi32ELi0ELi32ELi32EEEE19extractScalarFactorERKS3_>
  4028c6:	f3 0f 59 85 3c df ff 	mulss  -0x20c4(%rbp),%xmm0
  4028cd:	ff 
  4028ce:	f3 0f 11 85 6c df ff 	movss  %xmm0,-0x2094(%rbp)
  4028d5:	ff 
  4028d6:	48 8b 85 70 df ff ff 	mov    -0x2090(%rbp),%rax
  4028dd:	48 89 c7             	mov    %rax,%rdi
  4028e0:	e8 4f f2 ff ff       	callq  401b34 <_ZNK5Eigen15PlainObjectBaseINS_6MatrixIfLi32ELi32ELi0ELi32ELi32EEEE4colsEv>
  4028e5:	49 89 c4             	mov    %rax,%r12
  4028e8:	48 8b 85 58 df ff ff 	mov    -0x20a8(%rbp),%rax
  4028ef:	48 89 c7             	mov    %rax,%rdi
  4028f2:	e8 3d f2 ff ff       	callq  401b34 <_ZNK5Eigen15PlainObjectBaseINS_6MatrixIfLi32ELi32ELi0ELi32ELi32EEEE4colsEv>
  4028f7:	48 89 c3             	mov    %rax,%rbx
  4028fa:	48 8b 85 58 df ff ff 	mov    -0x20a8(%rbp),%rax
  402901:	48 89 c7             	mov    %rax,%rdi
  402904:	e8 3f f2 ff ff       	callq  401b48 <_ZNK5Eigen15PlainObjectBaseINS_6MatrixIfLi32ELi32ELi0ELi32ELi32EEEE4rowsEv>
  402909:	48 89 c6             	mov    %rax,%rsi
  40290c:	48 8d 85 b0 df ff ff 	lea    -0x2050(%rbp),%rax
  402913:	41 b9 01 00 00 00    	mov    $0x1,%r9d
  402919:	41 b8 01 00 00 00    	mov    $0x1,%r8d
  40291f:	4c 89 e1             	mov    %r12,%rcx
  402922:	48 89 da             	mov    %rbx,%rdx
  402925:	48 89 c7             	mov    %rax,%rdi
  402928:	e8 bd 03 00 00       	callq  402cea <_ZN5Eigen8internal19gemm_blocking_spaceILi0EffLi32ELi32ELi32ELi1ELb1EEC1Ellllb>
  40292d:	48 8b 85 48 df ff ff 	mov    -0x20b8(%rbp),%rax
  402934:	48 89 c7             	mov    %rax,%rdi
  402937:	e8 f8 f1 ff ff       	callq  401b34 <_ZNK5Eigen15PlainObjectBaseINS_6MatrixIfLi32ELi32ELi0ELi32ELi32EEEE4colsEv>
  40293c:	49 89 c4             	mov    %rax,%r12
  40293f:	48 8b 85 50 df ff ff 	mov    -0x20b0(%rbp),%rax
  402946:	48 89 c7             	mov    %rax,%rdi
  402949:	e8 fa f1 ff ff       	callq  401b48 <_ZNK5Eigen15PlainObjectBaseINS_6MatrixIfLi32ELi32ELi0ELi32ELi32EEEE4rowsEv>
  40294e:	48 89 c3             	mov    %rax,%rbx
  402951:	4c 8d 85 b0 df ff ff 	lea    -0x2050(%rbp),%r8
  402958:	48 8d bd 6c df ff ff 	lea    -0x2094(%rbp),%rdi
  40295f:	48 8b 8d 58 df ff ff 	mov    -0x20a8(%rbp),%rcx
  402966:	48 8b 95 78 df ff ff 	mov    -0x2088(%rbp),%rdx
  40296d:	48 8b b5 70 df ff ff 	mov    -0x2090(%rbp),%rsi
  402974:	48 8d 85 80 df ff ff 	lea    -0x2080(%rbp),%rax
  40297b:	4d 89 c1             	mov    %r8,%r9
  40297e:	49 89 f8             	mov    %rdi,%r8
  402981:	48 89 c7             	mov    %rax,%rdi
  402984:	e8 d9 03 00 00       	callq  402d62 <_ZN5Eigen8internal12gemm_functorIflNS0_29general_matrix_matrix_productIlfLi0ELb0EfLi0ELb0ELi0EEENS_6MatrixIfLi32ELi32ELi0ELi32ELi32EEES5_S5_NS0_19gemm_blocking_spaceILi0EffLi32ELi32ELi32ELi1ELb1EEEEC1ERKS5_SA_RS5_RKfRS7_>
  402989:	48 8d 85 80 df ff ff 	lea    -0x2080(%rbp),%rax
  402990:	b9 00 00 00 00       	mov    $0x0,%ecx
  402995:	4c 89 e2             	mov    %r12,%rdx
  402998:	48 89 de             	mov    %rbx,%rsi
  40299b:	48 89 c7             	mov    %rax,%rdi
  40299e:	e8 1e 04 00 00       	callq  402dc1 <_ZN5Eigen8internal16parallelize_gemmILb0ENS0_12gemm_functorIflNS0_29general_matrix_matrix_productIlfLi0ELb0EfLi0ELb0ELi0EEENS_6MatrixIfLi32ELi32ELi0ELi32ELi32EEES6_S6_NS0_19gemm_blocking_spaceILi0EffLi32ELi32ELi32ELi1ELb1EEEEElEEvRKT0_T1_SD_b>
  4029a3:	eb 01                	jmp    4029a6 <_ZN5Eigen8internal20generic_product_implINS_6MatrixIfLi32ELi32ELi0ELi32ELi32EEES3_NS_10DenseShapeES4_Li8EE13scaleAndAddToIS3_EEvRT_RKS3_SA_RKf+0x23b>
  4029a5:	90                   	nop
  4029a6:	48 8b 45 e8          	mov    -0x18(%rbp),%rax
  4029aa:	64 48 33 04 25 28 00 	xor    %fs:0x28,%rax
  4029b1:	00 00 
  4029b3:	74 05                	je     4029ba <_ZN5Eigen8internal20generic_product_implINS_6MatrixIfLi32ELi32ELi0ELi32ELi32EEES3_NS_10DenseShapeES4_Li8EE13scaleAndAddToIS3_EEvRT_RKS3_SA_RKf+0x24f>
  4029b5:	e8 c6 e0 ff ff       	callq  400a80 <__stack_chk_fail@plt>
  4029ba:	48 81 c4 c0 20 00 00 	add    $0x20c0,%rsp
  4029c1:	5b                   	pop    %rbx
  4029c2:	41 5c                	pop    %r12
  4029c4:	5d                   	pop    %rbp
  4029c5:	c3                   	retq   

00000000004029c6 <_ZNK5Eigen12DenseStorageIfLi1024ELi32ELi32ELi0EE4dataEv>:
  4029c6:	55                   	push   %rbp
  4029c7:	48 89 e5             	mov    %rsp,%rbp
  4029ca:	48 89 7d f8          	mov    %rdi,-0x8(%rbp)
  4029ce:	48 8b 45 f8          	mov    -0x8(%rbp),%rax
  4029d2:	5d                   	pop    %rbp
  4029d3:	c3                   	retq   

00000000004029d4 <_ZNK5Eigen6MatrixIfLi32ELi32ELi0ELi32ELi32EE11outerStrideEv>:
  4029d4:	55                   	push   %rbp
  4029d5:	48 89 e5             	mov    %rsp,%rbp
  4029d8:	48 83 ec 10          	sub    $0x10,%rsp
  4029dc:	48 89 7d f8          	mov    %rdi,-0x8(%rbp)
  4029e0:	48 8b 45 f8          	mov    -0x8(%rbp),%rax
  4029e4:	48 89 c7             	mov    %rax,%rdi
  4029e7:	e8 24 04 00 00       	callq  402e10 <_ZNK5Eigen9DenseBaseINS_6MatrixIfLi32ELi32ELi0ELi32ELi32EEEE9innerSizeEv>
  4029ec:	c9                   	leaveq 
  4029ed:	c3                   	retq   

00000000004029ee <_ZNK5Eigen9EigenBaseINS_6MatrixIfLi32ELi32ELi0ELi32ELi32EEEE4rowsEv>:
  4029ee:	55                   	push   %rbp
  4029ef:	48 89 e5             	mov    %rsp,%rbp
  4029f2:	48 83 ec 10          	sub    $0x10,%rsp
  4029f6:	48 89 7d f8          	mov    %rdi,-0x8(%rbp)
  4029fa:	48 8b 45 f8          	mov    -0x8(%rbp),%rax
  4029fe:	48 89 c7             	mov    %rax,%rdi
  402a01:	e8 a4 ef ff ff       	callq  4019aa <_ZNK5Eigen9EigenBaseINS_6MatrixIfLi32ELi32ELi0ELi32ELi32EEEE7derivedEv>
  402a06:	48 89 c7             	mov    %rax,%rdi
  402a09:	e8 3a f1 ff ff       	callq  401b48 <_ZNK5Eigen15PlainObjectBaseINS_6MatrixIfLi32ELi32ELi0ELi32ELi32EEEE4rowsEv>
  402a0e:	c9                   	leaveq 
  402a0f:	c3                   	retq   

0000000000402a10 <_ZNK5Eigen9EigenBaseINS_6MatrixIfLi32ELi32ELi0ELi32ELi32EEEE4colsEv>:
  402a10:	55                   	push   %rbp
  402a11:	48 89 e5             	mov    %rsp,%rbp
  402a14:	48 83 ec 10          	sub    $0x10,%rsp
  402a18:	48 89 7d f8          	mov    %rdi,-0x8(%rbp)
  402a1c:	48 8b 45 f8          	mov    -0x8(%rbp),%rax
  402a20:	48 89 c7             	mov    %rax,%rdi
  402a23:	e8 82 ef ff ff       	callq  4019aa <_ZNK5Eigen9EigenBaseINS_6MatrixIfLi32ELi32ELi0ELi32ELi32EEEE7derivedEv>
  402a28:	48 89 c7             	mov    %rax,%rdi
  402a2b:	e8 04 f1 ff ff       	callq  401b34 <_ZNK5Eigen15PlainObjectBaseINS_6MatrixIfLi32ELi32ELi0ELi32ELi32EEEE4colsEv>
  402a30:	c9                   	leaveq 
  402a31:	c3                   	retq   

0000000000402a32 <_ZN5Eigen8internal31generic_dense_assignment_kernelINS0_9evaluatorINS_6MatrixIfLi32ELi32ELi0ELi32ELi32EEEEES5_NS0_13add_assign_opIfEELi0EE20rowIndexByOuterInnerEll>:
  402a32:	55                   	push   %rbp
  402a33:	48 89 e5             	mov    %rsp,%rbp
  402a36:	48 89 7d f8          	mov    %rdi,-0x8(%rbp)
  402a3a:	48 89 75 f0          	mov    %rsi,-0x10(%rbp)
  402a3e:	48 8b 45 f0          	mov    -0x10(%rbp),%rax
  402a42:	5d                   	pop    %rbp
  402a43:	c3                   	retq   

0000000000402a44 <_ZN5Eigen8internal31generic_dense_assignment_kernelINS0_9evaluatorINS_6MatrixIfLi32ELi32ELi0ELi32ELi32EEEEES5_NS0_13add_assign_opIfEELi0EE20colIndexByOuterInnerEll>:
  402a44:	55                   	push   %rbp
  402a45:	48 89 e5             	mov    %rsp,%rbp
  402a48:	48 89 7d f8          	mov    %rdi,-0x8(%rbp)
  402a4c:	48 89 75 f0          	mov    %rsi,-0x10(%rbp)
  402a50:	48 8b 45 f8          	mov    -0x8(%rbp),%rax
  402a54:	5d                   	pop    %rbp
  402a55:	c3                   	retq   

0000000000402a56 <_ZN5Eigen8internal31generic_dense_assignment_kernelINS0_9evaluatorINS_6MatrixIfLi32ELi32ELi0ELi32ELi32EEEEES5_NS0_13add_assign_opIfEELi0EE12assignPacketILi16ELi16EDv4_fEEvll>:
  402a56:	55                   	push   %rbp
  402a57:	48 89 e5             	mov    %rsp,%rbp
  402a5a:	48 83 ec 40          	sub    $0x40,%rsp
  402a5e:	48 89 7d d8          	mov    %rdi,-0x28(%rbp)
  402a62:	48 89 75 d0          	mov    %rsi,-0x30(%rbp)
  402a66:	48 89 55 c8          	mov    %rdx,-0x38(%rbp)
  402a6a:	64 48 8b 04 25 28 00 	mov    %fs:0x28,%rax
  402a71:	00 00 
  402a73:	48 89 45 f8          	mov    %rax,-0x8(%rbp)
  402a77:	31 c0                	xor    %eax,%eax
  402a79:	48 8b 45 d8          	mov    -0x28(%rbp),%rax
  402a7d:	48 8b 40 08          	mov    0x8(%rax),%rax
  402a81:	48 89 c1             	mov    %rax,%rcx
  402a84:	48 8b 55 c8          	mov    -0x38(%rbp),%rdx
  402a88:	48 8b 45 d0          	mov    -0x30(%rbp),%rax
  402a8c:	48 89 c6             	mov    %rax,%rsi
  402a8f:	48 89 cf             	mov    %rcx,%rdi
  402a92:	e8 d1 03 00 00       	callq  402e68 <_ZNK5Eigen8internal9evaluatorINS_15PlainObjectBaseINS_6MatrixIfLi32ELi32ELi0ELi32ELi32EEEEEE6packetILi16EDv4_fEET0_ll>
  402a97:	0f 29 45 e0          	movaps %xmm0,-0x20(%rbp)
  402a9b:	48 8b 45 d8          	mov    -0x28(%rbp),%rax
  402a9f:	48 8b 00             	mov    (%rax),%rax
  402aa2:	48 89 c1             	mov    %rax,%rcx
  402aa5:	48 8b 55 c8          	mov    -0x38(%rbp),%rdx
  402aa9:	48 8b 45 d0          	mov    -0x30(%rbp),%rax
  402aad:	48 89 c6             	mov    %rax,%rsi
  402ab0:	48 89 cf             	mov    %rcx,%rdi
  402ab3:	e8 72 03 00 00       	callq  402e2a <_ZN5Eigen8internal9evaluatorINS_15PlainObjectBaseINS_6MatrixIfLi32ELi32ELi0ELi32ELi32EEEEEE8coeffRefEll>
  402ab8:	48 89 c1             	mov    %rax,%rcx
  402abb:	48 8b 45 d8          	mov    -0x28(%rbp),%rax
  402abf:	48 8b 40 10          	mov    0x10(%rax),%rax
  402ac3:	48 8d 55 e0          	lea    -0x20(%rbp),%rdx
  402ac7:	48 89 ce             	mov    %rcx,%rsi
  402aca:	48 89 c7             	mov    %rax,%rdi
  402acd:	e8 e6 03 00 00       	callq  402eb8 <_ZNK5Eigen8internal13add_assign_opIfE12assignPacketILi16EDv4_fEEvPfRKT0_>
  402ad2:	90                   	nop
  402ad3:	48 8b 45 f8          	mov    -0x8(%rbp),%rax
  402ad7:	64 48 33 04 25 28 00 	xor    %fs:0x28,%rax
  402ade:	00 00 
  402ae0:	74 05                	je     402ae7 <_ZN5Eigen8internal31generic_dense_assignment_kernelINS0_9evaluatorINS_6MatrixIfLi32ELi32ELi0ELi32ELi32EEEEES5_NS0_13add_assign_opIfEELi0EE12assignPacketILi16ELi16EDv4_fEEvll+0x91>
  402ae2:	e8 99 df ff ff       	callq  400a80 <__stack_chk_fail@plt>
  402ae7:	c9                   	leaveq 
  402ae8:	c3                   	retq   

0000000000402ae9 <_ZN5Eigen8internal44copy_using_evaluator_innervec_InnerUnrollingINS0_31generic_dense_assignment_kernelINS0_9evaluatorINS_6MatrixIfLi32ELi32ELi0ELi32ELi32EEEEES6_NS0_13add_assign_opIfEELi0EEELi8ELi32EE3runERS9_l>:
  402ae9:	55                   	push   %rbp
  402aea:	48 89 e5             	mov    %rsp,%rbp
  402aed:	48 83 ec 10          	sub    $0x10,%rsp
  402af1:	48 89 7d f8          	mov    %rdi,-0x8(%rbp)
  402af5:	48 89 75 f0          	mov    %rsi,-0x10(%rbp)
  402af9:	48 8b 4d f0          	mov    -0x10(%rbp),%rcx
  402afd:	48 8b 45 f8          	mov    -0x8(%rbp),%rax
  402b01:	ba 08 00 00 00       	mov    $0x8,%edx
  402b06:	48 89 ce             	mov    %rcx,%rsi
  402b09:	48 89 c7             	mov    %rax,%rdi
  402b0c:	e8 fb fa ff ff       	callq  40260c <_ZN5Eigen8internal31generic_dense_assignment_kernelINS0_9evaluatorINS_6MatrixIfLi32ELi32ELi0ELi32ELi32EEEEES5_NS0_13add_assign_opIfEELi0EE24assignPacketByOuterInnerILi16ELi16EDv4_fEEvll>
  402b11:	48 8b 55 f0          	mov    -0x10(%rbp),%rdx
  402b15:	48 8b 45 f8          	mov    -0x8(%rbp),%rax
  402b19:	48 89 d6             	mov    %rdx,%rsi
  402b1c:	48 89 c7             	mov    %rax,%rdi
  402b1f:	e8 18 04 00 00       	callq  402f3c <_ZN5Eigen8internal44copy_using_evaluator_innervec_InnerUnrollingINS0_31generic_dense_assignment_kernelINS0_9evaluatorINS_6MatrixIfLi32ELi32ELi0ELi32ELi32EEEEES6_NS0_13add_assign_opIfEELi0EEELi12ELi32EE3runERS9_l>
  402b24:	90                   	nop
  402b25:	c9                   	leaveq 
  402b26:	c3                   	retq   
  402b27:	90                   	nop

0000000000402b28 <_ZNK5Eigen10MatrixBaseINS_6MatrixIfLi32ELi32ELi0ELi32ELi32EEEE11lazyProductIS2_EEKNS_7ProductIS2_T_Li1EEERKNS0_IS6_EE>:
  402b28:	55                   	push   %rbp
  402b29:	48 89 e5             	mov    %rsp,%rbp
  402b2c:	53                   	push   %rbx
  402b2d:	48 83 ec 38          	sub    $0x38,%rsp
  402b31:	48 89 7d c8          	mov    %rdi,-0x38(%rbp)
  402b35:	48 89 75 c0          	mov    %rsi,-0x40(%rbp)
  402b39:	64 48 8b 04 25 28 00 	mov    %fs:0x28,%rax
  402b40:	00 00 
  402b42:	48 89 45 e8          	mov    %rax,-0x18(%rbp)
  402b46:	31 c0                	xor    %eax,%eax
  402b48:	48 8b 45 c0          	mov    -0x40(%rbp),%rax
  402b4c:	48 89 c7             	mov    %rax,%rdi
  402b4f:	e8 56 ee ff ff       	callq  4019aa <_ZNK5Eigen9EigenBaseINS_6MatrixIfLi32ELi32ELi0ELi32ELi32EEEE7derivedEv>
  402b54:	48 89 c3             	mov    %rax,%rbx
  402b57:	48 8b 45 c8          	mov    -0x38(%rbp),%rax
  402b5b:	48 89 c7             	mov    %rax,%rdi
  402b5e:	e8 47 ee ff ff       	callq  4019aa <_ZNK5Eigen9EigenBaseINS_6MatrixIfLi32ELi32ELi0ELi32ELi32EEEE7derivedEv>
  402b63:	48 89 c1             	mov    %rax,%rcx
  402b66:	48 8d 45 d0          	lea    -0x30(%rbp),%rax
  402b6a:	48 89 da             	mov    %rbx,%rdx
  402b6d:	48 89 ce             	mov    %rcx,%rsi
  402b70:	48 89 c7             	mov    %rax,%rdi
  402b73:	e8 3a 04 00 00       	callq  402fb2 <_ZN5Eigen7ProductINS_6MatrixIfLi32ELi32ELi0ELi32ELi32EEES2_Li1EEC1ERKS2_S5_>
  402b78:	48 8b 45 d0          	mov    -0x30(%rbp),%rax
  402b7c:	48 8b 55 d8          	mov    -0x28(%rbp),%rdx
  402b80:	48 8b 4d e8          	mov    -0x18(%rbp),%rcx
  402b84:	64 48 33 0c 25 28 00 	xor    %fs:0x28,%rcx
  402b8b:	00 00 
  402b8d:	74 05                	je     402b94 <_ZNK5Eigen10MatrixBaseINS_6MatrixIfLi32ELi32ELi0ELi32ELi32EEEE11lazyProductIS2_EEKNS_7ProductIS2_T_Li1EEERKNS0_IS6_EE+0x6c>
  402b8f:	e8 ec de ff ff       	callq  400a80 <__stack_chk_fail@plt>
  402b94:	48 83 c4 38          	add    $0x38,%rsp
  402b98:	5b                   	pop    %rbx
  402b99:	5d                   	pop    %rbp
  402b9a:	c3                   	retq   

0000000000402b9b <_ZN5Eigen8internal24call_assignment_no_aliasINS_6MatrixIfLi32ELi32ELi0ELi32ELi32EEENS_7ProductIS3_S3_Li1EEENS0_9assign_opIfEEEEvRT_RKT0_RKT1_>:
  402b9b:	55                   	push   %rbp
  402b9c:	48 89 e5             	mov    %rsp,%rbp
  402b9f:	48 83 ec 40          	sub    $0x40,%rsp
  402ba3:	48 89 7d d8          	mov    %rdi,-0x28(%rbp)
  402ba7:	48 89 75 d0          	mov    %rsi,-0x30(%rbp)
  402bab:	48 89 55 c8          	mov    %rdx,-0x38(%rbp)
  402baf:	48 8b 45 d0          	mov    -0x30(%rbp),%rax
  402bb3:	48 89 c7             	mov    %rax,%rdi
  402bb6:	e8 8f 04 00 00       	callq  40304a <_ZNK5Eigen7ProductINS_6MatrixIfLi32ELi32ELi0ELi32ELi32EEES2_Li1EE4rowsEv>
  402bbb:	48 89 45 e8          	mov    %rax,-0x18(%rbp)
  402bbf:	48 8b 45 d0          	mov    -0x30(%rbp),%rax
  402bc3:	48 89 c7             	mov    %rax,%rdi
  402bc6:	e8 61 04 00 00       	callq  40302c <_ZNK5Eigen7ProductINS_6MatrixIfLi32ELi32ELi0ELi32ELi32EEES2_Li1EE4colsEv>
  402bcb:	48 89 45 f0          	mov    %rax,-0x10(%rbp)
  402bcf:	48 8b 45 d8          	mov    -0x28(%rbp),%rax
  402bd3:	48 89 c7             	mov    %rax,%rdi
  402bd6:	e8 6d ef ff ff       	callq  401b48 <_ZNK5Eigen15PlainObjectBaseINS_6MatrixIfLi32ELi32ELi0ELi32ELi32EEEE4rowsEv>
  402bdb:	48 3b 45 e8          	cmp    -0x18(%rbp),%rax
  402bdf:	75 12                	jne    402bf3 <_ZN5Eigen8internal24call_assignment_no_aliasINS_6MatrixIfLi32ELi32ELi0ELi32ELi32EEENS_7ProductIS3_S3_Li1EEENS0_9assign_opIfEEEEvRT_RKT0_RKT1_+0x58>
  402be1:	48 8b 45 d8          	mov    -0x28(%rbp),%rax
  402be5:	48 89 c7             	mov    %rax,%rdi
  402be8:	e8 47 ef ff ff       	callq  401b34 <_ZNK5Eigen15PlainObjectBaseINS_6MatrixIfLi32ELi32ELi0ELi32ELi32EEEE4colsEv>
  402bed:	48 3b 45 f0          	cmp    -0x10(%rbp),%rax
  402bf1:	74 07                	je     402bfa <_ZN5Eigen8internal24call_assignment_no_aliasINS_6MatrixIfLi32ELi32ELi0ELi32ELi32EEENS_7ProductIS3_S3_Li1EEENS0_9assign_opIfEEEEvRT_RKT0_RKT1_+0x5f>
  402bf3:	b8 01 00 00 00       	mov    $0x1,%eax
  402bf8:	eb 05                	jmp    402bff <_ZN5Eigen8internal24call_assignment_no_aliasINS_6MatrixIfLi32ELi32ELi0ELi32ELi32EEENS_7ProductIS3_S3_Li1EEENS0_9assign_opIfEEEEvRT_RKT0_RKT1_+0x64>
  402bfa:	b8 00 00 00 00       	mov    $0x0,%eax
  402bff:	84 c0                	test   %al,%al
  402c01:	74 17                	je     402c1a <_ZN5Eigen8internal24call_assignment_no_aliasINS_6MatrixIfLi32ELi32ELi0ELi32ELi32EEENS_7ProductIS3_S3_Li1EEENS0_9assign_opIfEEEEvRT_RKT0_RKT1_+0x7f>
  402c03:	48 8b 45 d8          	mov    -0x28(%rbp),%rax
  402c07:	48 8b 55 f0          	mov    -0x10(%rbp),%rdx
  402c0b:	48 8b 4d e8          	mov    -0x18(%rbp),%rcx
  402c0f:	48 89 ce             	mov    %rcx,%rsi
  402c12:	48 89 c7             	mov    %rax,%rdi
  402c15:	e8 e4 f0 ff ff       	callq  401cfe <_ZN5Eigen15PlainObjectBaseINS_6MatrixIfLi32ELi32ELi0ELi32ELi32EEEE6resizeEll>
  402c1a:	48 8b 45 d8          	mov    -0x28(%rbp),%rax
  402c1e:	48 89 45 f8          	mov    %rax,-0x8(%rbp)
  402c22:	48 8b 55 c8          	mov    -0x38(%rbp),%rdx
  402c26:	48 8b 4d d0          	mov    -0x30(%rbp),%rcx
  402c2a:	48 8b 45 f8          	mov    -0x8(%rbp),%rax
  402c2e:	48 89 ce             	mov    %rcx,%rsi
  402c31:	48 89 c7             	mov    %rax,%rdi
  402c34:	e8 2e 04 00 00       	callq  403067 <_ZN5Eigen8internal10AssignmentINS_6MatrixIfLi32ELi32ELi0ELi32ELi32EEENS_7ProductIS3_S3_Li1EEENS0_9assign_opIfEENS0_11Dense2DenseEfE3runERS3_RKS5_RKS7_>
  402c39:	90                   	nop
  402c3a:	c9                   	leaveq 
  402c3b:	c3                   	retq   

0000000000402c3c <_ZN5Eigen9DenseBaseINS_6MatrixIfLi32ELi32ELi0ELi32ELi32EEEE11setConstantERKf>:
  402c3c:	55                   	push   %rbp
  402c3d:	48 89 e5             	mov    %rsp,%rbp
  402c40:	53                   	push   %rbx
  402c41:	48 83 ec 28          	sub    $0x28,%rsp
  402c45:	48 89 7d d8          	mov    %rdi,-0x28(%rbp)
  402c49:	48 89 75 d0          	mov    %rsi,-0x30(%rbp)
  402c4d:	64 48 8b 04 25 28 00 	mov    %fs:0x28,%rax
  402c54:	00 00 
  402c56:	48 89 45 e8          	mov    %rax,-0x18(%rbp)
  402c5a:	31 c0                	xor    %eax,%eax
  402c5c:	48 8b 45 d8          	mov    -0x28(%rbp),%rax
  402c60:	48 89 c7             	mov    %rax,%rdi
  402c63:	e8 a8 fd ff ff       	callq  402a10 <_ZNK5Eigen9EigenBaseINS_6MatrixIfLi32ELi32ELi0ELi32ELi32EEEE4colsEv>
  402c68:	48 89 c3             	mov    %rax,%rbx
  402c6b:	48 8b 45 d8          	mov    -0x28(%rbp),%rax
  402c6f:	48 89 c7             	mov    %rax,%rdi
  402c72:	e8 77 fd ff ff       	callq  4029ee <_ZNK5Eigen9EigenBaseINS_6MatrixIfLi32ELi32ELi0ELi32ELi32EEEE4rowsEv>
  402c77:	48 89 c6             	mov    %rax,%rsi
  402c7a:	48 8d 45 e0          	lea    -0x20(%rbp),%rax
  402c7e:	48 8b 55 d0          	mov    -0x30(%rbp),%rdx
  402c82:	48 89 d1             	mov    %rdx,%rcx
  402c85:	48 89 da             	mov    %rbx,%rdx
  402c88:	48 89 c7             	mov    %rax,%rdi
  402c8b:	e8 78 04 00 00       	callq  403108 <_ZN5Eigen9DenseBaseINS_6MatrixIfLi32ELi32ELi0ELi32ELi32EEEE8ConstantEllRKf>
  402c90:	48 8b 45 d8          	mov    -0x28(%rbp),%rax
  402c94:	48 89 c7             	mov    %rax,%rdi
  402c97:	e8 ce ed ff ff       	callq  401a6a <_ZN5Eigen9EigenBaseINS_6MatrixIfLi32ELi32ELi0ELi32ELi32EEEE7derivedEv>
  402c9c:	48 89 c2             	mov    %rax,%rdx
  402c9f:	48 8d 45 e0          	lea    -0x20(%rbp),%rax
  402ca3:	48 89 c6             	mov    %rax,%rsi
  402ca6:	48 89 d7             	mov    %rdx,%rdi
  402ca9:	e8 c6 04 00 00       	callq  403174 <_ZN5Eigen6MatrixIfLi32ELi32ELi0ELi32ELi32EEaSINS_14CwiseNullaryOpINS_8internal18scalar_constant_opIfEES1_EEEERS1_RKNS_9DenseBaseIT_EE>
  402cae:	48 8b 4d e8          	mov    -0x18(%rbp),%rcx
  402cb2:	64 48 33 0c 25 28 00 	xor    %fs:0x28,%rcx
  402cb9:	00 00 
  402cbb:	74 05                	je     402cc2 <_ZN5Eigen9DenseBaseINS_6MatrixIfLi32ELi32ELi0ELi32ELi32EEEE11setConstantERKf+0x86>
  402cbd:	e8 be dd ff ff       	callq  400a80 <__stack_chk_fail@plt>
  402cc2:	48 83 c4 28          	add    $0x28,%rsp
  402cc6:	5b                   	pop    %rbx
  402cc7:	5d                   	pop    %rbp
  402cc8:	c3                   	retq   

0000000000402cc9 <_ZN5Eigen8internal11blas_traitsINS_6MatrixIfLi32ELi32ELi0ELi32ELi32EEEE7extractERKS3_>:
  402cc9:	55                   	push   %rbp
  402cca:	48 89 e5             	mov    %rsp,%rbp
  402ccd:	48 89 7d f8          	mov    %rdi,-0x8(%rbp)
  402cd1:	48 8b 45 f8          	mov    -0x8(%rbp),%rax
  402cd5:	5d                   	pop    %rbp
  402cd6:	c3                   	retq   

0000000000402cd7 <_ZN5Eigen8internal11blas_traitsINS_6MatrixIfLi32ELi32ELi0ELi32ELi32EEEE19extractScalarFactorERKS3_>:
  402cd7:	55                   	push   %rbp
  402cd8:	48 89 e5             	mov    %rsp,%rbp
  402cdb:	48 89 7d f8          	mov    %rdi,-0x8(%rbp)
  402cdf:	f3 0f 10 05 ed 92 00 	movss  0x92ed(%rip),%xmm0        # 40bfd4 <_ZZN5Eigen8internal26call_dense_assignment_loopINS_6MatrixIfLi32ELi32ELi0ELi32ELi32EEES3_NS0_13add_assign_opIfEEEEvRKT_RKT0_RKT1_E19__PRETTY_FUNCTION__+0xf4>
  402ce6:	00 
  402ce7:	5d                   	pop    %rbp
  402ce8:	c3                   	retq   
  402ce9:	90                   	nop

0000000000402cea <_ZN5Eigen8internal19gemm_blocking_spaceILi0EffLi32ELi32ELi32ELi1ELb1EEC1Ellllb>:
  402cea:	55                   	push   %rbp
  402ceb:	48 89 e5             	mov    %rsp,%rbp
  402cee:	48 83 ec 30          	sub    $0x30,%rsp
  402cf2:	48 89 7d f8          	mov    %rdi,-0x8(%rbp)
  402cf6:	48 89 75 f0          	mov    %rsi,-0x10(%rbp)
  402cfa:	48 89 55 e8          	mov    %rdx,-0x18(%rbp)
  402cfe:	48 89 4d e0          	mov    %rcx,-0x20(%rbp)
  402d02:	4c 89 45 d8          	mov    %r8,-0x28(%rbp)
  402d06:	44 89 c8             	mov    %r9d,%eax
  402d09:	88 45 d4             	mov    %al,-0x2c(%rbp)
  402d0c:	48 8b 45 f8          	mov    -0x8(%rbp),%rax
  402d10:	48 89 c7             	mov    %rax,%rdi
  402d13:	e8 82 04 00 00       	callq  40319a <_ZN5Eigen8internal15level3_blockingIffEC1Ev>
  402d18:	48 8b 45 f8          	mov    -0x8(%rbp),%rax
  402d1c:	48 c7 40 10 20 00 00 	movq   $0x20,0x10(%rax)
  402d23:	00 
  402d24:	48 8b 45 f8          	mov    -0x8(%rbp),%rax
  402d28:	48 c7 40 18 20 00 00 	movq   $0x20,0x18(%rax)
  402d2f:	00 
  402d30:	48 8b 45 f8          	mov    -0x8(%rbp),%rax
  402d34:	48 c7 40 20 20 00 00 	movq   $0x20,0x20(%rax)
  402d3b:	00 
  402d3c:	48 8b 45 f8          	mov    -0x8(%rbp),%rax
  402d40:	48 8d 50 30          	lea    0x30(%rax),%rdx
  402d44:	48 8b 45 f8          	mov    -0x8(%rbp),%rax
  402d48:	48 89 10             	mov    %rdx,(%rax)
  402d4b:	48 8b 45 f8          	mov    -0x8(%rbp),%rax
  402d4f:	48 8d 90 30 10 00 00 	lea    0x1030(%rax),%rdx
  402d56:	48 8b 45 f8          	mov    -0x8(%rbp),%rax
  402d5a:	48 89 50 08          	mov    %rdx,0x8(%rax)
  402d5e:	90                   	nop
  402d5f:	c9                   	leaveq 
  402d60:	c3                   	retq   
  402d61:	90                   	nop

0000000000402d62 <_ZN5Eigen8internal12gemm_functorIflNS0_29general_matrix_matrix_productIlfLi0ELb0EfLi0ELb0ELi0EEENS_6MatrixIfLi32ELi32ELi0ELi32ELi32EEES5_S5_NS0_19gemm_blocking_spaceILi0EffLi32ELi32ELi32ELi1ELb1EEEEC1ERKS5_SA_RS5_RKfRS7_>:
  402d62:	55                   	push   %rbp
  402d63:	48 89 e5             	mov    %rsp,%rbp
  402d66:	48 89 7d f8          	mov    %rdi,-0x8(%rbp)
  402d6a:	48 89 75 f0          	mov    %rsi,-0x10(%rbp)
  402d6e:	48 89 55 e8          	mov    %rdx,-0x18(%rbp)
  402d72:	48 89 4d e0          	mov    %rcx,-0x20(%rbp)
  402d76:	4c 89 45 d8          	mov    %r8,-0x28(%rbp)
  402d7a:	4c 89 4d d0          	mov    %r9,-0x30(%rbp)
  402d7e:	48 8b 45 f8          	mov    -0x8(%rbp),%rax
  402d82:	48 8b 55 f0          	mov    -0x10(%rbp),%rdx
  402d86:	48 89 10             	mov    %rdx,(%rax)
  402d89:	48 8b 45 f8          	mov    -0x8(%rbp),%rax
  402d8d:	48 8b 55 e8          	mov    -0x18(%rbp),%rdx
  402d91:	48 89 50 08          	mov    %rdx,0x8(%rax)
  402d95:	48 8b 45 f8          	mov    -0x8(%rbp),%rax
  402d99:	48 8b 55 e0          	mov    -0x20(%rbp),%rdx
  402d9d:	48 89 50 10          	mov    %rdx,0x10(%rax)
  402da1:	48 8b 45 d8          	mov    -0x28(%rbp),%rax
  402da5:	f3 0f 10 00          	movss  (%rax),%xmm0
  402da9:	48 8b 45 f8          	mov    -0x8(%rbp),%rax
  402dad:	f3 0f 11 40 18       	movss  %xmm0,0x18(%rax)
  402db2:	48 8b 45 f8          	mov    -0x8(%rbp),%rax
  402db6:	48 8b 55 d0          	mov    -0x30(%rbp),%rdx
  402dba:	48 89 50 20          	mov    %rdx,0x20(%rax)
  402dbe:	90                   	nop
  402dbf:	5d                   	pop    %rbp
  402dc0:	c3                   	retq   

0000000000402dc1 <_ZN5Eigen8internal16parallelize_gemmILb0ENS0_12gemm_functorIflNS0_29general_matrix_matrix_productIlfLi0ELb0EfLi0ELb0ELi0EEENS_6MatrixIfLi32ELi32ELi0ELi32ELi32EEES6_S6_NS0_19gemm_blocking_spaceILi0EffLi32ELi32ELi32ELi1ELb1EEEEElEEvRKT0_T1_SD_b>:
  402dc1:	55                   	push   %rbp
  402dc2:	48 89 e5             	mov    %rsp,%rbp
  402dc5:	48 83 ec 20          	sub    $0x20,%rsp
  402dc9:	48 89 7d f8          	mov    %rdi,-0x8(%rbp)
  402dcd:	48 89 75 f0          	mov    %rsi,-0x10(%rbp)
  402dd1:	48 89 55 e8          	mov    %rdx,-0x18(%rbp)
  402dd5:	89 c8                	mov    %ecx,%eax
  402dd7:	88 45 e4             	mov    %al,-0x1c(%rbp)
  402dda:	48 8d 45 e4          	lea    -0x1c(%rbp),%rax
  402dde:	48 89 c7             	mov    %rax,%rdi
  402de1:	e8 fa 03 00 00       	callq  4031e0 <_ZN5Eigen8internal22ignore_unused_variableIbEEvRKT_>
  402de6:	48 8b 4d e8          	mov    -0x18(%rbp),%rcx
  402dea:	48 8b 55 f0          	mov    -0x10(%rbp),%rdx
  402dee:	48 8b 45 f8          	mov    -0x8(%rbp),%rax
  402df2:	41 b9 00 00 00 00    	mov    $0x0,%r9d
  402df8:	49 89 c8             	mov    %rcx,%r8
  402dfb:	b9 00 00 00 00       	mov    $0x0,%ecx
  402e00:	be 00 00 00 00       	mov    $0x0,%esi
  402e05:	48 89 c7             	mov    %rax,%rdi
  402e08:	e8 df 03 00 00       	callq  4031ec <_ZNK5Eigen8internal12gemm_functorIflNS0_29general_matrix_matrix_productIlfLi0ELb0EfLi0ELb0ELi0EEENS_6MatrixIfLi32ELi32ELi0ELi32ELi32EEES5_S5_NS0_19gemm_blocking_spaceILi0EffLi32ELi32ELi32ELi1ELb1EEEEclEllllPNS0_16GemmParallelInfoIlEE>
  402e0d:	90                   	nop
  402e0e:	c9                   	leaveq 
  402e0f:	c3                   	retq   

0000000000402e10 <_ZNK5Eigen9DenseBaseINS_6MatrixIfLi32ELi32ELi0ELi32ELi32EEEE9innerSizeEv>:
  402e10:	55                   	push   %rbp
  402e11:	48 89 e5             	mov    %rsp,%rbp
  402e14:	48 83 ec 10          	sub    $0x10,%rsp
  402e18:	48 89 7d f8          	mov    %rdi,-0x8(%rbp)
  402e1c:	48 8b 45 f8          	mov    -0x8(%rbp),%rax
  402e20:	48 89 c7             	mov    %rax,%rdi
  402e23:	e8 c6 fb ff ff       	callq  4029ee <_ZNK5Eigen9EigenBaseINS_6MatrixIfLi32ELi32ELi0ELi32ELi32EEEE4rowsEv>
  402e28:	c9                   	leaveq 
  402e29:	c3                   	retq   

0000000000402e2a <_ZN5Eigen8internal9evaluatorINS_15PlainObjectBaseINS_6MatrixIfLi32ELi32ELi0ELi32ELi32EEEEEE8coeffRefEll>:
  402e2a:	55                   	push   %rbp
  402e2b:	48 89 e5             	mov    %rsp,%rbp
  402e2e:	53                   	push   %rbx
  402e2f:	48 83 ec 28          	sub    $0x28,%rsp
  402e33:	48 89 7d e8          	mov    %rdi,-0x18(%rbp)
  402e37:	48 89 75 e0          	mov    %rsi,-0x20(%rbp)
  402e3b:	48 89 55 d8          	mov    %rdx,-0x28(%rbp)
  402e3f:	48 8b 45 e8          	mov    -0x18(%rbp),%rax
  402e43:	48 8b 18             	mov    (%rax),%rbx
  402e46:	e8 ef 04 00 00       	callq  40333a <_ZN5Eigen8internal19variable_if_dynamicIlLi32EE5valueEv>
  402e4b:	48 0f af 45 d8       	imul   -0x28(%rbp),%rax
  402e50:	48 89 c2             	mov    %rax,%rdx
  402e53:	48 8b 45 e0          	mov    -0x20(%rbp),%rax
  402e57:	48 01 d0             	add    %rdx,%rax
  402e5a:	48 c1 e0 02          	shl    $0x2,%rax
  402e5e:	48 01 d8             	add    %rbx,%rax
  402e61:	48 83 c4 28          	add    $0x28,%rsp
  402e65:	5b                   	pop    %rbx
  402e66:	5d                   	pop    %rbp
  402e67:	c3                   	retq   

0000000000402e68 <_ZNK5Eigen8internal9evaluatorINS_15PlainObjectBaseINS_6MatrixIfLi32ELi32ELi0ELi32ELi32EEEEEE6packetILi16EDv4_fEET0_ll>:
  402e68:	55                   	push   %rbp
  402e69:	48 89 e5             	mov    %rsp,%rbp
  402e6c:	53                   	push   %rbx
  402e6d:	48 83 ec 38          	sub    $0x38,%rsp
  402e71:	48 89 7d d8          	mov    %rdi,-0x28(%rbp)
  402e75:	48 89 75 d0          	mov    %rsi,-0x30(%rbp)
  402e79:	48 89 55 c8          	mov    %rdx,-0x38(%rbp)
  402e7d:	48 8b 45 d8          	mov    -0x28(%rbp),%rax
  402e81:	48 8b 18             	mov    (%rax),%rbx
  402e84:	e8 b1 04 00 00       	callq  40333a <_ZN5Eigen8internal19variable_if_dynamicIlLi32EE5valueEv>
  402e89:	48 0f af 45 c8       	imul   -0x38(%rbp),%rax
  402e8e:	48 89 c2             	mov    %rax,%rdx
  402e91:	48 8b 45 d0          	mov    -0x30(%rbp),%rax
  402e95:	48 01 d0             	add    %rdx,%rax
  402e98:	48 c1 e0 02          	shl    $0x2,%rax
  402e9c:	48 01 d8             	add    %rbx,%rax
  402e9f:	48 89 45 e8          	mov    %rax,-0x18(%rbp)
  402ea3:	48 8b 45 e8          	mov    -0x18(%rbp),%rax
  402ea7:	48 89 c7             	mov    %rax,%rdi
  402eaa:	e8 64 e5 ff ff       	callq  401413 <_ZN5Eigen8internal5ploadIDv4_fEET_PKNS0_15unpacket_traitsIS3_E4typeE>
  402eaf:	90                   	nop
  402eb0:	48 83 c4 38          	add    $0x38,%rsp
  402eb4:	5b                   	pop    %rbx
  402eb5:	5d                   	pop    %rbp
  402eb6:	c3                   	retq   
  402eb7:	90                   	nop

0000000000402eb8 <_ZNK5Eigen8internal13add_assign_opIfE12assignPacketILi16EDv4_fEEvPfRKT0_>:
  402eb8:	55                   	push   %rbp
  402eb9:	48 89 e5             	mov    %rsp,%rbp
  402ebc:	48 83 ec 60          	sub    $0x60,%rsp
  402ec0:	48 89 7d b8          	mov    %rdi,-0x48(%rbp)
  402ec4:	48 89 75 b0          	mov    %rsi,-0x50(%rbp)
  402ec8:	48 89 55 a8          	mov    %rdx,-0x58(%rbp)
  402ecc:	64 48 8b 04 25 28 00 	mov    %fs:0x28,%rax
  402ed3:	00 00 
  402ed5:	48 89 45 f8          	mov    %rax,-0x8(%rbp)
  402ed9:	31 c0                	xor    %eax,%eax
  402edb:	48 8b 45 b0          	mov    -0x50(%rbp),%rax
  402edf:	48 89 45 c0          	mov    %rax,-0x40(%rbp)
  402ee3:	48 8b 45 c0          	mov    -0x40(%rbp),%rax
  402ee7:	48 89 c7             	mov    %rax,%rdi
  402eea:	e8 24 e5 ff ff       	callq  401413 <_ZN5Eigen8internal5ploadIDv4_fEET_PKNS0_15unpacket_traitsIS3_E4typeE>
  402eef:	0f 29 45 d0          	movaps %xmm0,-0x30(%rbp)
  402ef3:	48 8b 55 a8          	mov    -0x58(%rbp),%rdx
  402ef7:	48 8d 45 d0          	lea    -0x30(%rbp),%rax
  402efb:	48 89 d6             	mov    %rdx,%rsi
  402efe:	48 89 c7             	mov    %rax,%rdi
  402f01:	e8 b3 e4 ff ff       	callq  4013b9 <_ZN5Eigen8internal4paddIDv4_fEET_RKS3_S5_>
  402f06:	0f 29 45 e0          	movaps %xmm0,-0x20(%rbp)
  402f0a:	48 8b 45 b0          	mov    -0x50(%rbp),%rax
  402f0e:	48 89 45 c8          	mov    %rax,-0x38(%rbp)
  402f12:	48 8d 55 e0          	lea    -0x20(%rbp),%rdx
  402f16:	48 8b 45 c8          	mov    -0x38(%rbp),%rax
  402f1a:	48 89 d6             	mov    %rdx,%rsi
  402f1d:	48 89 c7             	mov    %rax,%rdi
  402f20:	e8 22 e5 ff ff       	callq  401447 <_ZN5Eigen8internal6pstoreIfDv4_fEEvPT_RKT0_>
  402f25:	90                   	nop
  402f26:	48 8b 45 f8          	mov    -0x8(%rbp),%rax
  402f2a:	64 48 33 04 25 28 00 	xor    %fs:0x28,%rax
  402f31:	00 00 
  402f33:	74 05                	je     402f3a <_ZNK5Eigen8internal13add_assign_opIfE12assignPacketILi16EDv4_fEEvPfRKT0_+0x82>
  402f35:	e8 46 db ff ff       	callq  400a80 <__stack_chk_fail@plt>
  402f3a:	c9                   	leaveq 
  402f3b:	c3                   	retq   

0000000000402f3c <_ZN5Eigen8internal44copy_using_evaluator_innervec_InnerUnrollingINS0_31generic_dense_assignment_kernelINS0_9evaluatorINS_6MatrixIfLi32ELi32ELi0ELi32ELi32EEEEES6_NS0_13add_assign_opIfEELi0EEELi12ELi32EE3runERS9_l>:
  402f3c:	55                   	push   %rbp
  402f3d:	48 89 e5             	mov    %rsp,%rbp
  402f40:	48 83 ec 10          	sub    $0x10,%rsp
  402f44:	48 89 7d f8          	mov    %rdi,-0x8(%rbp)
  402f48:	48 89 75 f0          	mov    %rsi,-0x10(%rbp)
  402f4c:	48 8b 4d f0          	mov    -0x10(%rbp),%rcx
  402f50:	48 8b 45 f8          	mov    -0x8(%rbp),%rax
  402f54:	ba 0c 00 00 00       	mov    $0xc,%edx
  402f59:	48 89 ce             	mov    %rcx,%rsi
  402f5c:	48 89 c7             	mov    %rax,%rdi
  402f5f:	e8 a8 f6 ff ff       	callq  40260c <_ZN5Eigen8internal31generic_dense_assignment_kernelINS0_9evaluatorINS_6MatrixIfLi32ELi32ELi0ELi32ELi32EEEEES5_NS0_13add_assign_opIfEELi0EE24assignPacketByOuterInnerILi16ELi16EDv4_fEEvll>
  402f64:	48 8b 55 f0          	mov    -0x10(%rbp),%rdx
  402f68:	48 8b 45 f8          	mov    -0x8(%rbp),%rax
  402f6c:	48 89 d6             	mov    %rdx,%rsi
  402f6f:	48 89 c7             	mov    %rax,%rdi
  402f72:	e8 ce 03 00 00       	callq  403345 <_ZN5Eigen8internal44copy_using_evaluator_innervec_InnerUnrollingINS0_31generic_dense_assignment_kernelINS0_9evaluatorINS_6MatrixIfLi32ELi32ELi0ELi32ELi32EEEEES6_NS0_13add_assign_opIfEELi0EEELi16ELi32EE3runERS9_l>
  402f77:	90                   	nop
  402f78:	c9                   	leaveq 
  402f79:	c3                   	retq   

0000000000402f7a <_ZN5Eigen8internal18dense_product_baseINS_6MatrixIfLi32ELi32ELi0ELi32ELi32EEES3_Li1ELi8EEC1Ev>:
  402f7a:	55                   	push   %rbp
  402f7b:	48 89 e5             	mov    %rsp,%rbp
  402f7e:	48 83 ec 10          	sub    $0x10,%rsp
  402f82:	48 89 7d f8          	mov    %rdi,-0x8(%rbp)
  402f86:	48 8b 45 f8          	mov    -0x8(%rbp),%rax
  402f8a:	48 89 c7             	mov    %rax,%rdi
  402f8d:	e8 f2 03 00 00       	callq  403384 <_ZN5Eigen10MatrixBaseINS_7ProductINS_6MatrixIfLi32ELi32ELi0ELi32ELi32EEES3_Li1EEEEC1Ev>
  402f92:	90                   	nop
  402f93:	c9                   	leaveq 
  402f94:	c3                   	retq   
  402f95:	90                   	nop

0000000000402f96 <_ZN5Eigen11ProductImplINS_6MatrixIfLi32ELi32ELi0ELi32ELi32EEES2_Li1ENS_5DenseEEC1Ev>:
  402f96:	55                   	push   %rbp
  402f97:	48 89 e5             	mov    %rsp,%rbp
  402f9a:	48 83 ec 10          	sub    $0x10,%rsp
  402f9e:	48 89 7d f8          	mov    %rdi,-0x8(%rbp)
  402fa2:	48 8b 45 f8          	mov    -0x8(%rbp),%rax
  402fa6:	48 89 c7             	mov    %rax,%rdi
  402fa9:	e8 cc ff ff ff       	callq  402f7a <_ZN5Eigen8internal18dense_product_baseINS_6MatrixIfLi32ELi32ELi0ELi32ELi32EEES3_Li1ELi8EEC1Ev>
  402fae:	90                   	nop
  402faf:	c9                   	leaveq 
  402fb0:	c3                   	retq   
  402fb1:	90                   	nop

0000000000402fb2 <_ZN5Eigen7ProductINS_6MatrixIfLi32ELi32ELi0ELi32ELi32EEES2_Li1EEC1ERKS2_S5_>:
  402fb2:	55                   	push   %rbp
  402fb3:	48 89 e5             	mov    %rsp,%rbp
  402fb6:	53                   	push   %rbx
  402fb7:	48 83 ec 28          	sub    $0x28,%rsp
  402fbb:	48 89 7d e8          	mov    %rdi,-0x18(%rbp)
  402fbf:	48 89 75 e0          	mov    %rsi,-0x20(%rbp)
  402fc3:	48 89 55 d8          	mov    %rdx,-0x28(%rbp)
  402fc7:	48 8b 45 e8          	mov    -0x18(%rbp),%rax
  402fcb:	48 89 c7             	mov    %rax,%rdi
  402fce:	e8 c3 ff ff ff       	callq  402f96 <_ZN5Eigen11ProductImplINS_6MatrixIfLi32ELi32ELi0ELi32ELi32EEES2_Li1ENS_5DenseEEC1Ev>
  402fd3:	48 8b 45 e8          	mov    -0x18(%rbp),%rax
  402fd7:	48 8b 55 e0          	mov    -0x20(%rbp),%rdx
  402fdb:	48 89 10             	mov    %rdx,(%rax)
  402fde:	48 8b 45 e8          	mov    -0x18(%rbp),%rax
  402fe2:	48 8b 55 d8          	mov    -0x28(%rbp),%rdx
  402fe6:	48 89 50 08          	mov    %rdx,0x8(%rax)
  402fea:	48 8b 45 e0          	mov    -0x20(%rbp),%rax
  402fee:	48 89 c7             	mov    %rax,%rdi
  402ff1:	e8 3e eb ff ff       	callq  401b34 <_ZNK5Eigen15PlainObjectBaseINS_6MatrixIfLi32ELi32ELi0ELi32ELi32EEEE4colsEv>
  402ff6:	48 89 c3             	mov    %rax,%rbx
  402ff9:	48 8b 45 d8          	mov    -0x28(%rbp),%rax
  402ffd:	48 89 c7             	mov    %rax,%rdi
  403000:	e8 43 eb ff ff       	callq  401b48 <_ZNK5Eigen15PlainObjectBaseINS_6MatrixIfLi32ELi32ELi0ELi32ELi32EEEE4rowsEv>
  403005:	48 39 c3             	cmp    %rax,%rbx
  403008:	74 19                	je     403023 <_ZN5Eigen7ProductINS_6MatrixIfLi32ELi32ELi0ELi32ELi32EEES2_Li1EEC1ERKS2_S5_+0x71>
  40300a:	b9 c0 b0 40 00       	mov    $0x40b0c0,%ecx
  40300f:	ba 85 00 00 00       	mov    $0x85,%edx
  403014:	be c0 a7 40 00       	mov    $0x40a7c0,%esi
  403019:	bf f0 a7 40 00       	mov    $0x40a7f0,%edi
  40301e:	e8 bd d9 ff ff       	callq  4009e0 <__assert_fail@plt>
  403023:	90                   	nop
  403024:	48 83 c4 28          	add    $0x28,%rsp
  403028:	5b                   	pop    %rbx
  403029:	5d                   	pop    %rbp
  40302a:	c3                   	retq   
  40302b:	90                   	nop

000000000040302c <_ZNK5Eigen7ProductINS_6MatrixIfLi32ELi32ELi0ELi32ELi32EEES2_Li1EE4colsEv>:
  40302c:	55                   	push   %rbp
  40302d:	48 89 e5             	mov    %rsp,%rbp
  403030:	48 83 ec 10          	sub    $0x10,%rsp
  403034:	48 89 7d f8          	mov    %rdi,-0x8(%rbp)
  403038:	48 8b 45 f8          	mov    -0x8(%rbp),%rax
  40303c:	48 8b 40 08          	mov    0x8(%rax),%rax
  403040:	48 89 c7             	mov    %rax,%rdi
  403043:	e8 ec ea ff ff       	callq  401b34 <_ZNK5Eigen15PlainObjectBaseINS_6MatrixIfLi32ELi32ELi0ELi32ELi32EEEE4colsEv>
  403048:	c9                   	leaveq 
  403049:	c3                   	retq   

000000000040304a <_ZNK5Eigen7ProductINS_6MatrixIfLi32ELi32ELi0ELi32ELi32EEES2_Li1EE4rowsEv>:
  40304a:	55                   	push   %rbp
  40304b:	48 89 e5             	mov    %rsp,%rbp
  40304e:	48 83 ec 10          	sub    $0x10,%rsp
  403052:	48 89 7d f8          	mov    %rdi,-0x8(%rbp)
  403056:	48 8b 45 f8          	mov    -0x8(%rbp),%rax
  40305a:	48 8b 00             	mov    (%rax),%rax
  40305d:	48 89 c7             	mov    %rax,%rdi
  403060:	e8 e3 ea ff ff       	callq  401b48 <_ZNK5Eigen15PlainObjectBaseINS_6MatrixIfLi32ELi32ELi0ELi32ELi32EEEE4rowsEv>
  403065:	c9                   	leaveq 
  403066:	c3                   	retq   

0000000000403067 <_ZN5Eigen8internal10AssignmentINS_6MatrixIfLi32ELi32ELi0ELi32ELi32EEENS_7ProductIS3_S3_Li1EEENS0_9assign_opIfEENS0_11Dense2DenseEfE3runERS3_RKS5_RKS7_>:
  403067:	55                   	push   %rbp
  403068:	48 89 e5             	mov    %rsp,%rbp
  40306b:	53                   	push   %rbx
  40306c:	48 83 ec 28          	sub    $0x28,%rsp
  403070:	48 89 7d e8          	mov    %rdi,-0x18(%rbp)
  403074:	48 89 75 e0          	mov    %rsi,-0x20(%rbp)
  403078:	48 89 55 d8          	mov    %rdx,-0x28(%rbp)
  40307c:	48 8b 45 e8          	mov    -0x18(%rbp),%rax
  403080:	48 89 c7             	mov    %rax,%rdi
  403083:	e8 c0 ea ff ff       	callq  401b48 <_ZNK5Eigen15PlainObjectBaseINS_6MatrixIfLi32ELi32ELi0ELi32ELi32EEEE4rowsEv>
  403088:	48 89 c3             	mov    %rax,%rbx
  40308b:	48 8b 45 e0          	mov    -0x20(%rbp),%rax
  40308f:	48 89 c7             	mov    %rax,%rdi
  403092:	e8 b3 ff ff ff       	callq  40304a <_ZNK5Eigen7ProductINS_6MatrixIfLi32ELi32ELi0ELi32ELi32EEES2_Li1EE4rowsEv>
  403097:	48 39 c3             	cmp    %rax,%rbx
  40309a:	75 20                	jne    4030bc <_ZN5Eigen8internal10AssignmentINS_6MatrixIfLi32ELi32ELi0ELi32ELi32EEENS_7ProductIS3_S3_Li1EEENS0_9assign_opIfEENS0_11Dense2DenseEfE3runERS3_RKS5_RKS7_+0x55>
  40309c:	48 8b 45 e8          	mov    -0x18(%rbp),%rax
  4030a0:	48 89 c7             	mov    %rax,%rdi
  4030a3:	e8 8c ea ff ff       	callq  401b34 <_ZNK5Eigen15PlainObjectBaseINS_6MatrixIfLi32ELi32ELi0ELi32ELi32EEEE4colsEv>
  4030a8:	48 89 c3             	mov    %rax,%rbx
  4030ab:	48 8b 45 e0          	mov    -0x20(%rbp),%rax
  4030af:	48 89 c7             	mov    %rax,%rdi
  4030b2:	e8 75 ff ff ff       	callq  40302c <_ZNK5Eigen7ProductINS_6MatrixIfLi32ELi32ELi0ELi32ELi32EEES2_Li1EE4colsEv>
  4030b7:	48 39 c3             	cmp    %rax,%rbx
  4030ba:	74 19                	je     4030d5 <_ZN5Eigen8internal10AssignmentINS_6MatrixIfLi32ELi32ELi0ELi32ELi32EEENS_7ProductIS3_S3_Li1EEENS0_9assign_opIfEENS0_11Dense2DenseEfE3runERS3_RKS5_RKS7_+0x6e>
  4030bc:	b9 00 b2 40 00       	mov    $0x40b200,%ecx
  4030c1:	ba 10 03 00 00       	mov    $0x310,%edx
  4030c6:	be 48 aa 40 00       	mov    $0x40aa48,%esi
  4030cb:	bf 80 aa 40 00       	mov    $0x40aa80,%edi
  4030d0:	e8 0b d9 ff ff       	callq  4009e0 <__assert_fail@plt>
  4030d5:	48 8b 55 e0          	mov    -0x20(%rbp),%rdx
  4030d9:	48 8b 45 e8          	mov    -0x18(%rbp),%rax
  4030dd:	48 89 d6             	mov    %rdx,%rsi
  4030e0:	48 89 c7             	mov    %rax,%rdi
  4030e3:	e8 b7 02 00 00       	callq  40339f <_ZN5Eigen8internal18check_for_aliasingINS_6MatrixIfLi32ELi32ELi0ELi32ELi32EEENS_7ProductIS3_S3_Li1EEEEEvRKT_RKT0_>
  4030e8:	48 8b 55 d8          	mov    -0x28(%rbp),%rdx
  4030ec:	48 8b 4d e0          	mov    -0x20(%rbp),%rcx
  4030f0:	48 8b 45 e8          	mov    -0x18(%rbp),%rax
  4030f4:	48 89 ce             	mov    %rcx,%rsi
  4030f7:	48 89 c7             	mov    %rax,%rdi
  4030fa:	e8 3a 03 00 00       	callq  403439 <_ZN5Eigen8internal26call_dense_assignment_loopINS_6MatrixIfLi32ELi32ELi0ELi32ELi32EEENS_7ProductIS3_S3_Li1EEENS0_9assign_opIfEEEEvRKT_RKT0_RKT1_>
  4030ff:	90                   	nop
  403100:	48 83 c4 28          	add    $0x28,%rsp
  403104:	5b                   	pop    %rbx
  403105:	5d                   	pop    %rbp
  403106:	c3                   	retq   
  403107:	90                   	nop

0000000000403108 <_ZN5Eigen9DenseBaseINS_6MatrixIfLi32ELi32ELi0ELi32ELi32EEEE8ConstantEllRKf>:
  403108:	55                   	push   %rbp
  403109:	48 89 e5             	mov    %rsp,%rbp
  40310c:	48 83 ec 30          	sub    $0x30,%rsp
  403110:	48 89 7d e8          	mov    %rdi,-0x18(%rbp)
  403114:	48 89 75 e0          	mov    %rsi,-0x20(%rbp)
  403118:	48 89 55 d8          	mov    %rdx,-0x28(%rbp)
  40311c:	48 89 4d d0          	mov    %rcx,-0x30(%rbp)
  403120:	64 48 8b 04 25 28 00 	mov    %fs:0x28,%rax
  403127:	00 00 
  403129:	48 89 45 f8          	mov    %rax,-0x8(%rbp)
  40312d:	31 c0                	xor    %eax,%eax
  40312f:	48 8b 55 d0          	mov    -0x30(%rbp),%rdx
  403133:	48 8d 45 f0          	lea    -0x10(%rbp),%rax
  403137:	48 89 d6             	mov    %rdx,%rsi
  40313a:	48 89 c7             	mov    %rax,%rdi
  40313d:	e8 58 04 00 00       	callq  40359a <_ZN5Eigen8internal18scalar_constant_opIfEC1ERKf>
  403142:	48 8b 45 e8          	mov    -0x18(%rbp),%rax
  403146:	48 8d 4d f0          	lea    -0x10(%rbp),%rcx
  40314a:	48 8b 55 d8          	mov    -0x28(%rbp),%rdx
  40314e:	48 8b 75 e0          	mov    -0x20(%rbp),%rsi
  403152:	48 89 c7             	mov    %rax,%rdi
  403155:	e8 60 04 00 00       	callq  4035ba <_ZN5Eigen9DenseBaseINS_6MatrixIfLi32ELi32ELi0ELi32ELi32EEEE11NullaryExprINS_8internal18scalar_constant_opIfEEEEKNS_14CwiseNullaryOpIT_S2_EEllRKS9_>
  40315a:	48 8b 45 e8          	mov    -0x18(%rbp),%rax
  40315e:	48 8b 7d f8          	mov    -0x8(%rbp),%rdi
  403162:	64 48 33 3c 25 28 00 	xor    %fs:0x28,%rdi
  403169:	00 00 
  40316b:	74 05                	je     403172 <_ZN5Eigen9DenseBaseINS_6MatrixIfLi32ELi32ELi0ELi32ELi32EEEE8ConstantEllRKf+0x6a>
  40316d:	e8 0e d9 ff ff       	callq  400a80 <__stack_chk_fail@plt>
  403172:	c9                   	leaveq 
  403173:	c3                   	retq   

0000000000403174 <_ZN5Eigen6MatrixIfLi32ELi32ELi0ELi32ELi32EEaSINS_14CwiseNullaryOpINS_8internal18scalar_constant_opIfEES1_EEEERS1_RKNS_9DenseBaseIT_EE>:
  403174:	55                   	push   %rbp
  403175:	48 89 e5             	mov    %rsp,%rbp
  403178:	48 83 ec 10          	sub    $0x10,%rsp
  40317c:	48 89 7d f8          	mov    %rdi,-0x8(%rbp)
  403180:	48 89 75 f0          	mov    %rsi,-0x10(%rbp)
  403184:	48 8b 45 f8          	mov    -0x8(%rbp),%rax
  403188:	48 8b 55 f0          	mov    -0x10(%rbp),%rdx
  40318c:	48 89 d6             	mov    %rdx,%rsi
  40318f:	48 89 c7             	mov    %rax,%rdi
  403192:	e8 79 04 00 00       	callq  403610 <_ZN5Eigen15PlainObjectBaseINS_6MatrixIfLi32ELi32ELi0ELi32ELi32EEEE4_setINS_14CwiseNullaryOpINS_8internal18scalar_constant_opIfEES2_EEEERS2_RKNS_9DenseBaseIT_EE>
  403197:	c9                   	leaveq 
  403198:	c3                   	retq   
  403199:	90                   	nop

000000000040319a <_ZN5Eigen8internal15level3_blockingIffEC1Ev>:
  40319a:	55                   	push   %rbp
  40319b:	48 89 e5             	mov    %rsp,%rbp
  40319e:	48 89 7d f8          	mov    %rdi,-0x8(%rbp)
  4031a2:	48 8b 45 f8          	mov    -0x8(%rbp),%rax
  4031a6:	48 c7 00 00 00 00 00 	movq   $0x0,(%rax)
  4031ad:	48 8b 45 f8          	mov    -0x8(%rbp),%rax
  4031b1:	48 c7 40 08 00 00 00 	movq   $0x0,0x8(%rax)
  4031b8:	00 
  4031b9:	48 8b 45 f8          	mov    -0x8(%rbp),%rax
  4031bd:	48 c7 40 10 00 00 00 	movq   $0x0,0x10(%rax)
  4031c4:	00 
  4031c5:	48 8b 45 f8          	mov    -0x8(%rbp),%rax
  4031c9:	48 c7 40 18 00 00 00 	movq   $0x0,0x18(%rax)
  4031d0:	00 
  4031d1:	48 8b 45 f8          	mov    -0x8(%rbp),%rax
  4031d5:	48 c7 40 20 00 00 00 	movq   $0x0,0x20(%rax)
  4031dc:	00 
  4031dd:	90                   	nop
  4031de:	5d                   	pop    %rbp
  4031df:	c3                   	retq   

00000000004031e0 <_ZN5Eigen8internal22ignore_unused_variableIbEEvRKT_>:
  4031e0:	55                   	push   %rbp
  4031e1:	48 89 e5             	mov    %rsp,%rbp
  4031e4:	48 89 7d f8          	mov    %rdi,-0x8(%rbp)
  4031e8:	90                   	nop
  4031e9:	5d                   	pop    %rbp
  4031ea:	c3                   	retq   
  4031eb:	90                   	nop

00000000004031ec <_ZNK5Eigen8internal12gemm_functorIflNS0_29general_matrix_matrix_productIlfLi0ELb0EfLi0ELb0ELi0EEENS_6MatrixIfLi32ELi32ELi0ELi32ELi32EEES5_S5_NS0_19gemm_blocking_spaceILi0EffLi32ELi32ELi32ELi1ELb1EEEEclEllllPNS0_16GemmParallelInfoIlEE>:
  4031ec:	55                   	push   %rbp
  4031ed:	48 89 e5             	mov    %rsp,%rbp
  4031f0:	41 57                	push   %r15
  4031f2:	41 56                	push   %r14
  4031f4:	41 55                	push   %r13
  4031f6:	41 54                	push   %r12
  4031f8:	53                   	push   %rbx
  4031f9:	48 83 ec 58          	sub    $0x58,%rsp
  4031fd:	48 89 7d c8          	mov    %rdi,-0x38(%rbp)
  403201:	48 89 75 c0          	mov    %rsi,-0x40(%rbp)
  403205:	48 89 55 b8          	mov    %rdx,-0x48(%rbp)
  403209:	48 89 4d b0          	mov    %rcx,-0x50(%rbp)
  40320d:	4c 89 45 a8          	mov    %r8,-0x58(%rbp)
  403211:	4c 89 4d a0          	mov    %r9,-0x60(%rbp)
  403215:	48 83 7d a8 ff       	cmpq   $0xffffffffffffffff,-0x58(%rbp)
  40321a:	75 14                	jne    403230 <_ZNK5Eigen8internal12gemm_functorIflNS0_29general_matrix_matrix_productIlfLi0ELb0EfLi0ELb0ELi0EEENS_6MatrixIfLi32ELi32ELi0ELi32ELi32EEES5_S5_NS0_19gemm_blocking_spaceILi0EffLi32ELi32ELi32ELi1ELb1EEEEclEllllPNS0_16GemmParallelInfoIlEE+0x44>
  40321c:	48 8b 45 c8          	mov    -0x38(%rbp),%rax
  403220:	48 8b 40 08          	mov    0x8(%rax),%rax
  403224:	48 89 c7             	mov    %rax,%rdi
  403227:	e8 08 e9 ff ff       	callq  401b34 <_ZNK5Eigen15PlainObjectBaseINS_6MatrixIfLi32ELi32ELi0ELi32ELi32EEEE4colsEv>
  40322c:	48 89 45 a8          	mov    %rax,-0x58(%rbp)
  403230:	48 8b 45 c8          	mov    -0x38(%rbp),%rax
  403234:	48 8b 40 20          	mov    0x20(%rax),%rax
  403238:	48 89 45 98          	mov    %rax,-0x68(%rbp)
  40323c:	48 8b 45 c8          	mov    -0x38(%rbp),%rax
  403240:	8b 58 18             	mov    0x18(%rax),%ebx
  403243:	48 8b 45 c8          	mov    -0x38(%rbp),%rax
  403247:	48 8b 40 10          	mov    0x10(%rax),%rax
  40324b:	48 89 c7             	mov    %rax,%rdi
  40324e:	e8 81 f7 ff ff       	callq  4029d4 <_ZNK5Eigen6MatrixIfLi32ELi32ELi0ELi32ELi32EE11outerStrideEv>
  403253:	49 89 c6             	mov    %rax,%r14
  403256:	48 8b 45 c8          	mov    -0x38(%rbp),%rax
  40325a:	48 8b 40 10          	mov    0x10(%rax),%rax
  40325e:	48 89 c1             	mov    %rax,%rcx
  403261:	48 8b 55 b0          	mov    -0x50(%rbp),%rdx
  403265:	48 8b 45 c0          	mov    -0x40(%rbp),%rax
  403269:	48 89 c6             	mov    %rax,%rsi
  40326c:	48 89 cf             	mov    %rcx,%rdi
  40326f:	e8 ba 0d 00 00       	callq  40402e <_ZN5Eigen15PlainObjectBaseINS_6MatrixIfLi32ELi32ELi0ELi32ELi32EEEE8coeffRefEll>
  403274:	49 89 c5             	mov    %rax,%r13
  403277:	48 8b 45 c8          	mov    -0x38(%rbp),%rax
  40327b:	48 8b 40 08          	mov    0x8(%rax),%rax
  40327f:	48 89 c7             	mov    %rax,%rdi
  403282:	e8 4d f7 ff ff       	callq  4029d4 <_ZNK5Eigen6MatrixIfLi32ELi32ELi0ELi32ELi32EE11outerStrideEv>
  403287:	49 89 c4             	mov    %rax,%r12
  40328a:	48 8b 45 c8          	mov    -0x38(%rbp),%rax
  40328e:	48 8b 40 08          	mov    0x8(%rax),%rax
  403292:	48 89 c1             	mov    %rax,%rcx
  403295:	48 8b 45 b0          	mov    -0x50(%rbp),%rax
  403299:	48 89 c2             	mov    %rax,%rdx
  40329c:	be 00 00 00 00       	mov    $0x0,%esi
  4032a1:	48 89 cf             	mov    %rcx,%rdi
  4032a4:	e8 3f 0d 00 00       	callq  403fe8 <_ZNK5Eigen15PlainObjectBaseINS_6MatrixIfLi32ELi32ELi0ELi32ELi32EEEE8coeffRefEll>
  4032a9:	48 89 45 90          	mov    %rax,-0x70(%rbp)
  4032ad:	48 8b 45 c8          	mov    -0x38(%rbp),%rax
  4032b1:	48 8b 00             	mov    (%rax),%rax
  4032b4:	48 89 c7             	mov    %rax,%rdi
  4032b7:	e8 18 f7 ff ff       	callq  4029d4 <_ZNK5Eigen6MatrixIfLi32ELi32ELi0ELi32ELi32EE11outerStrideEv>
  4032bc:	48 89 45 88          	mov    %rax,-0x78(%rbp)
  4032c0:	48 8b 45 c8          	mov    -0x38(%rbp),%rax
  4032c4:	48 8b 00             	mov    (%rax),%rax
  4032c7:	48 89 c1             	mov    %rax,%rcx
  4032ca:	48 8b 45 c0          	mov    -0x40(%rbp),%rax
  4032ce:	ba 00 00 00 00       	mov    $0x0,%edx
  4032d3:	48 89 c6             	mov    %rax,%rsi
  4032d6:	48 89 cf             	mov    %rcx,%rdi
  4032d9:	e8 0a 0d 00 00       	callq  403fe8 <_ZNK5Eigen15PlainObjectBaseINS_6MatrixIfLi32ELi32ELi0ELi32ELi32EEEE8coeffRefEll>
  4032de:	49 89 c7             	mov    %rax,%r15
  4032e1:	48 8b 45 c8          	mov    -0x38(%rbp),%rax
  4032e5:	48 8b 00             	mov    (%rax),%rax
  4032e8:	48 89 c7             	mov    %rax,%rdi
  4032eb:	e8 44 e8 ff ff       	callq  401b34 <_ZNK5Eigen15PlainObjectBaseINS_6MatrixIfLi32ELi32ELi0ELi32ELi32EEEE4colsEv>
  4032f0:	48 89 c2             	mov    %rax,%rdx
  4032f3:	48 8b 75 a8          	mov    -0x58(%rbp),%rsi
  4032f7:	48 8b 45 b8          	mov    -0x48(%rbp),%rax
  4032fb:	48 83 ec 08          	sub    $0x8,%rsp
  4032ff:	ff 75 a0             	pushq  -0x60(%rbp)
  403302:	ff 75 98             	pushq  -0x68(%rbp)
  403305:	41 56                	push   %r14
  403307:	41 55                	push   %r13
  403309:	41 54                	push   %r12
  40330b:	89 5d 98             	mov    %ebx,-0x68(%rbp)
  40330e:	f3 0f 10 45 98       	movss  -0x68(%rbp),%xmm0
  403313:	4c 8b 4d 90          	mov    -0x70(%rbp),%r9
  403317:	4c 8b 45 88          	mov    -0x78(%rbp),%r8
  40331b:	4c 89 f9             	mov    %r15,%rcx
  40331e:	48 89 c7             	mov    %rax,%rdi
  403321:	e8 34 03 00 00       	callq  40365a <_ZN5Eigen8internal29general_matrix_matrix_productIlfLi0ELb0EfLi0ELb0ELi0EE3runElllPKflS4_lPflfRNS0_15level3_blockingIffEEPNS0_16GemmParallelInfoIlEE>
  403326:	48 83 c4 30          	add    $0x30,%rsp
  40332a:	90                   	nop
  40332b:	48 8d 65 d8          	lea    -0x28(%rbp),%rsp
  40332f:	5b                   	pop    %rbx
  403330:	41 5c                	pop    %r12
  403332:	41 5d                	pop    %r13
  403334:	41 5e                	pop    %r14
  403336:	41 5f                	pop    %r15
  403338:	5d                   	pop    %rbp
  403339:	c3                   	retq   

000000000040333a <_ZN5Eigen8internal19variable_if_dynamicIlLi32EE5valueEv>:
  40333a:	55                   	push   %rbp
  40333b:	48 89 e5             	mov    %rsp,%rbp
  40333e:	b8 20 00 00 00       	mov    $0x20,%eax
  403343:	5d                   	pop    %rbp
  403344:	c3                   	retq   

0000000000403345 <_ZN5Eigen8internal44copy_using_evaluator_innervec_InnerUnrollingINS0_31generic_dense_assignment_kernelINS0_9evaluatorINS_6MatrixIfLi32ELi32ELi0ELi32ELi32EEEEES6_NS0_13add_assign_opIfEELi0EEELi16ELi32EE3runERS9_l>:
  403345:	55                   	push   %rbp
  403346:	48 89 e5             	mov    %rsp,%rbp
  403349:	48 83 ec 10          	sub    $0x10,%rsp
  40334d:	48 89 7d f8          	mov    %rdi,-0x8(%rbp)
  403351:	48 89 75 f0          	mov    %rsi,-0x10(%rbp)
  403355:	48 8b 4d f0          	mov    -0x10(%rbp),%rcx
  403359:	48 8b 45 f8          	mov    -0x8(%rbp),%rax
  40335d:	ba 10 00 00 00       	mov    $0x10,%edx
  403362:	48 89 ce             	mov    %rcx,%rsi
  403365:	48 89 c7             	mov    %rax,%rdi
  403368:	e8 9f f2 ff ff       	callq  40260c <_ZN5Eigen8internal31generic_dense_assignment_kernelINS0_9evaluatorINS_6MatrixIfLi32ELi32ELi0ELi32ELi32EEEEES5_NS0_13add_assign_opIfEELi0EE24assignPacketByOuterInnerILi16ELi16EDv4_fEEvll>
  40336d:	48 8b 55 f0          	mov    -0x10(%rbp),%rdx
  403371:	48 8b 45 f8          	mov    -0x8(%rbp),%rax
  403375:	48 89 d6             	mov    %rdx,%rsi
  403378:	48 89 c7             	mov    %rax,%rdi
  40337b:	e8 f4 0c 00 00       	callq  404074 <_ZN5Eigen8internal44copy_using_evaluator_innervec_InnerUnrollingINS0_31generic_dense_assignment_kernelINS0_9evaluatorINS_6MatrixIfLi32ELi32ELi0ELi32ELi32EEEEES6_NS0_13add_assign_opIfEELi0EEELi20ELi32EE3runERS9_l>
  403380:	90                   	nop
  403381:	c9                   	leaveq 
  403382:	c3                   	retq   
  403383:	90                   	nop

0000000000403384 <_ZN5Eigen10MatrixBaseINS_7ProductINS_6MatrixIfLi32ELi32ELi0ELi32ELi32EEES3_Li1EEEEC1Ev>:
  403384:	55                   	push   %rbp
  403385:	48 89 e5             	mov    %rsp,%rbp
  403388:	48 83 ec 10          	sub    $0x10,%rsp
  40338c:	48 89 7d f8          	mov    %rdi,-0x8(%rbp)
  403390:	48 8b 45 f8          	mov    -0x8(%rbp),%rax
  403394:	48 89 c7             	mov    %rax,%rdi
  403397:	e8 5a 0d 00 00       	callq  4040f6 <_ZN5Eigen9DenseBaseINS_7ProductINS_6MatrixIfLi32ELi32ELi0ELi32ELi32EEES3_Li1EEEEC1Ev>
  40339c:	90                   	nop
  40339d:	c9                   	leaveq 
  40339e:	c3                   	retq   

000000000040339f <_ZN5Eigen8internal18check_for_aliasingINS_6MatrixIfLi32ELi32ELi0ELi32ELi32EEENS_7ProductIS3_S3_Li1EEEEEvRKT_RKT0_>:
  40339f:	55                   	push   %rbp
  4033a0:	48 89 e5             	mov    %rsp,%rbp
  4033a3:	48 83 ec 10          	sub    $0x10,%rsp
  4033a7:	48 89 7d f8          	mov    %rdi,-0x8(%rbp)
  4033ab:	48 89 75 f0          	mov    %rsi,-0x10(%rbp)
  4033af:	48 8b 55 f0          	mov    -0x10(%rbp),%rdx
  4033b3:	48 8b 45 f8          	mov    -0x8(%rbp),%rax
  4033b7:	48 89 d6             	mov    %rdx,%rsi
  4033ba:	48 89 c7             	mov    %rax,%rdi
  4033bd:	e8 4f 0d 00 00       	callq  404111 <_ZN5Eigen8internal27checkTransposeAliasing_implINS_6MatrixIfLi32ELi32ELi0ELi32ELi32EEENS_7ProductIS3_S3_Li1EEELb0EE3runERKS3_RKS5_>
  4033c2:	90                   	nop
  4033c3:	c9                   	leaveq 
  4033c4:	c3                   	retq   
  4033c5:	90                   	nop

00000000004033c6 <_ZN5Eigen8internal14evaluator_baseINS_7ProductINS_6MatrixIfLi32ELi32ELi0ELi32ELi32EEES4_Li1EEEED1Ev>:
  4033c6:	55                   	push   %rbp
  4033c7:	48 89 e5             	mov    %rsp,%rbp
  4033ca:	48 83 ec 10          	sub    $0x10,%rsp
  4033ce:	48 89 7d f8          	mov    %rdi,-0x8(%rbp)
  4033d2:	48 8b 45 f8          	mov    -0x8(%rbp),%rax
  4033d6:	48 89 c7             	mov    %rax,%rdi
  4033d9:	e8 d4 de ff ff       	callq  4012b2 <_ZN5Eigen8internal11noncopyableD1Ev>
  4033de:	90                   	nop
  4033df:	c9                   	leaveq 
  4033e0:	c3                   	retq   
  4033e1:	90                   	nop

00000000004033e2 <_ZN5Eigen8internal17product_evaluatorINS_7ProductINS_6MatrixIfLi32ELi32ELi0ELi32ELi32EEES4_Li1EEELi8ENS_10DenseShapeES6_ffED1Ev>:
  4033e2:	55                   	push   %rbp
  4033e3:	48 89 e5             	mov    %rsp,%rbp
  4033e6:	48 83 ec 10          	sub    $0x10,%rsp
  4033ea:	48 89 7d f8          	mov    %rdi,-0x8(%rbp)
  4033ee:	48 8b 45 f8          	mov    -0x8(%rbp),%rax
  4033f2:	48 83 c0 20          	add    $0x20,%rax
  4033f6:	48 89 c7             	mov    %rax,%rdi
  4033f9:	e8 4e eb ff ff       	callq  401f4c <_ZN5Eigen8internal9evaluatorINS_6MatrixIfLi32ELi32ELi0ELi32ELi32EEEED1Ev>
  4033fe:	48 8b 45 f8          	mov    -0x8(%rbp),%rax
  403402:	48 83 c0 10          	add    $0x10,%rax
  403406:	48 89 c7             	mov    %rax,%rdi
  403409:	e8 3e eb ff ff       	callq  401f4c <_ZN5Eigen8internal9evaluatorINS_6MatrixIfLi32ELi32ELi0ELi32ELi32EEEED1Ev>
  40340e:	48 8b 45 f8          	mov    -0x8(%rbp),%rax
  403412:	48 89 c7             	mov    %rax,%rdi
  403415:	e8 ac ff ff ff       	callq  4033c6 <_ZN5Eigen8internal14evaluator_baseINS_7ProductINS_6MatrixIfLi32ELi32ELi0ELi32ELi32EEES4_Li1EEEED1Ev>
  40341a:	90                   	nop
  40341b:	c9                   	leaveq 
  40341c:	c3                   	retq   
  40341d:	90                   	nop

000000000040341e <_ZN5Eigen8internal9evaluatorINS_7ProductINS_6MatrixIfLi32ELi32ELi0ELi32ELi32EEES4_Li1EEEED1Ev>:
  40341e:	55                   	push   %rbp
  40341f:	48 89 e5             	mov    %rsp,%rbp
  403422:	48 83 ec 10          	sub    $0x10,%rsp
  403426:	48 89 7d f8          	mov    %rdi,-0x8(%rbp)
  40342a:	48 8b 45 f8          	mov    -0x8(%rbp),%rax
  40342e:	48 89 c7             	mov    %rax,%rdi
  403431:	e8 ac ff ff ff       	callq  4033e2 <_ZN5Eigen8internal17product_evaluatorINS_7ProductINS_6MatrixIfLi32ELi32ELi0ELi32ELi32EEES4_Li1EEELi8ENS_10DenseShapeES6_ffED1Ev>
  403436:	90                   	nop
  403437:	c9                   	leaveq 
  403438:	c3                   	retq   

0000000000403439 <_ZN5Eigen8internal26call_dense_assignment_loopINS_6MatrixIfLi32ELi32ELi0ELi32ELi32EEENS_7ProductIS3_S3_Li1EEENS0_9assign_opIfEEEEvRKT_RKT0_RKT1_>:
  403439:	55                   	push   %rbp
  40343a:	48 89 e5             	mov    %rsp,%rbp
  40343d:	53                   	push   %rbx
  40343e:	48 81 ec 98 00 00 00 	sub    $0x98,%rsp
  403445:	48 89 bd 78 ff ff ff 	mov    %rdi,-0x88(%rbp)
  40344c:	48 89 b5 70 ff ff ff 	mov    %rsi,-0x90(%rbp)
  403453:	48 89 95 68 ff ff ff 	mov    %rdx,-0x98(%rbp)
  40345a:	64 48 8b 04 25 28 00 	mov    %fs:0x28,%rax
  403461:	00 00 
  403463:	48 89 45 e8          	mov    %rax,-0x18(%rbp)
  403467:	31 c0                	xor    %eax,%eax
  403469:	48 8b 85 78 ff ff ff 	mov    -0x88(%rbp),%rax
  403470:	48 89 c7             	mov    %rax,%rdi
  403473:	e8 d0 e6 ff ff       	callq  401b48 <_ZNK5Eigen15PlainObjectBaseINS_6MatrixIfLi32ELi32ELi0ELi32ELi32EEEE4rowsEv>
  403478:	48 89 c3             	mov    %rax,%rbx
  40347b:	48 8b 85 70 ff ff ff 	mov    -0x90(%rbp),%rax
  403482:	48 89 c7             	mov    %rax,%rdi
  403485:	e8 c0 fb ff ff       	callq  40304a <_ZNK5Eigen7ProductINS_6MatrixIfLi32ELi32ELi0ELi32ELi32EEES2_Li1EE4rowsEv>
  40348a:	48 39 c3             	cmp    %rax,%rbx
  40348d:	75 26                	jne    4034b5 <_ZN5Eigen8internal26call_dense_assignment_loopINS_6MatrixIfLi32ELi32ELi0ELi32ELi32EEENS_7ProductIS3_S3_Li1EEENS0_9assign_opIfEEEEvRKT_RKT0_RKT1_+0x7c>
  40348f:	48 8b 85 78 ff ff ff 	mov    -0x88(%rbp),%rax
  403496:	48 89 c7             	mov    %rax,%rdi
  403499:	e8 96 e6 ff ff       	callq  401b34 <_ZNK5Eigen15PlainObjectBaseINS_6MatrixIfLi32ELi32ELi0ELi32ELi32EEEE4colsEv>
  40349e:	48 89 c3             	mov    %rax,%rbx
  4034a1:	48 8b 85 70 ff ff ff 	mov    -0x90(%rbp),%rax
  4034a8:	48 89 c7             	mov    %rax,%rdi
  4034ab:	e8 7c fb ff ff       	callq  40302c <_ZNK5Eigen7ProductINS_6MatrixIfLi32ELi32ELi0ELi32ELi32EEES2_Li1EE4colsEv>
  4034b0:	48 39 c3             	cmp    %rax,%rbx
  4034b3:	74 19                	je     4034ce <_ZN5Eigen8internal26call_dense_assignment_loopINS_6MatrixIfLi32ELi32ELi0ELi32ELi32EEENS_7ProductIS3_S3_Li1EEENS0_9assign_opIfEEEEvRKT_RKT0_RKT1_+0x95>
  4034b5:	b9 80 b3 40 00       	mov    $0x40b380,%ecx
  4034ba:	ba 82 02 00 00       	mov    $0x282,%edx
  4034bf:	be 48 aa 40 00       	mov    $0x40aa48,%esi
  4034c4:	bf 80 aa 40 00       	mov    $0x40aa80,%edi
  4034c9:	e8 12 d5 ff ff       	callq  4009e0 <__assert_fail@plt>
  4034ce:	48 8b 95 78 ff ff ff 	mov    -0x88(%rbp),%rdx
  4034d5:	48 8d 45 80          	lea    -0x80(%rbp),%rax
  4034d9:	48 89 d6             	mov    %rdx,%rsi
  4034dc:	48 89 c7             	mov    %rax,%rdi
  4034df:	e8 54 ed ff ff       	callq  402238 <_ZN5Eigen8internal9evaluatorINS_6MatrixIfLi32ELi32ELi0ELi32ELi32EEEEC1ERKS3_>
  4034e4:	48 8b 95 70 ff ff ff 	mov    -0x90(%rbp),%rdx
  4034eb:	48 8d 45 b0          	lea    -0x50(%rbp),%rax
  4034ef:	48 89 d6             	mov    %rdx,%rsi
  4034f2:	48 89 c7             	mov    %rax,%rdi
  4034f5:	e8 26 0c 00 00       	callq  404120 <_ZN5Eigen8internal9evaluatorINS_7ProductINS_6MatrixIfLi32ELi32ELi0ELi32ELi32EEES4_Li1EEEEC1ERKS5_>
  4034fa:	48 8b 85 78 ff ff ff 	mov    -0x88(%rbp),%rax
  403501:	48 89 c7             	mov    %rax,%rdi
  403504:	e8 55 ed ff ff       	callq  40225e <_ZNK5Eigen9EigenBaseINS_6MatrixIfLi32ELi32ELi0ELi32ELi32EEEE18const_cast_derivedEv>
  403509:	48 89 c7             	mov    %rax,%rdi
  40350c:	48 8b 8d 68 ff ff ff 	mov    -0x98(%rbp),%rcx
  403513:	48 8d 55 b0          	lea    -0x50(%rbp),%rdx
  403517:	48 8d 75 80          	lea    -0x80(%rbp),%rsi
  40351b:	48 8d 45 90          	lea    -0x70(%rbp),%rax
  40351f:	49 89 f8             	mov    %rdi,%r8
  403522:	48 89 c7             	mov    %rax,%rdi
  403525:	e8 1c 0c 00 00       	callq  404146 <_ZN5Eigen8internal31generic_dense_assignment_kernelINS0_9evaluatorINS_6MatrixIfLi32ELi32ELi0ELi32ELi32EEEEENS2_INS_7ProductIS4_S4_Li1EEEEENS0_9assign_opIfEELi0EEC1ERS5_RKS8_RKSA_RS4_>
  40352a:	48 8d 45 90          	lea    -0x70(%rbp),%rax
  40352e:	48 89 c7             	mov    %rax,%rdi
  403531:	e8 5a 0c 00 00       	callq  404190 <_ZN5Eigen8internal21dense_assignment_loopINS0_31generic_dense_assignment_kernelINS0_9evaluatorINS_6MatrixIfLi32ELi32ELi0ELi32ELi32EEEEENS3_INS_7ProductIS5_S5_Li1EEEEENS0_9assign_opIfEELi0EEELi2ELi0EE3runERSC_>
  403536:	48 8d 45 b0          	lea    -0x50(%rbp),%rax
  40353a:	48 89 c7             	mov    %rax,%rdi
  40353d:	e8 dc fe ff ff       	callq  40341e <_ZN5Eigen8internal9evaluatorINS_7ProductINS_6MatrixIfLi32ELi32ELi0ELi32ELi32EEES4_Li1EEEED1Ev>
  403542:	48 8d 45 80          	lea    -0x80(%rbp),%rax
  403546:	48 89 c7             	mov    %rax,%rdi
  403549:	e8 fe e9 ff ff       	callq  401f4c <_ZN5Eigen8internal9evaluatorINS_6MatrixIfLi32ELi32ELi0ELi32ELi32EEEED1Ev>
  40354e:	90                   	nop
  40354f:	48 8b 45 e8          	mov    -0x18(%rbp),%rax
  403553:	64 48 33 04 25 28 00 	xor    %fs:0x28,%rax
  40355a:	00 00 
  40355c:	74 32                	je     403590 <_ZN5Eigen8internal26call_dense_assignment_loopINS_6MatrixIfLi32ELi32ELi0ELi32ELi32EEENS_7ProductIS3_S3_Li1EEENS0_9assign_opIfEEEEvRKT_RKT0_RKT1_+0x157>
  40355e:	eb 2b                	jmp    40358b <_ZN5Eigen8internal26call_dense_assignment_loopINS_6MatrixIfLi32ELi32ELi0ELi32ELi32EEENS_7ProductIS3_S3_Li1EEENS0_9assign_opIfEEEEvRKT_RKT0_RKT1_+0x152>
  403560:	48 89 c3             	mov    %rax,%rbx
  403563:	48 8d 45 b0          	lea    -0x50(%rbp),%rax
  403567:	48 89 c7             	mov    %rax,%rdi
  40356a:	e8 af fe ff ff       	callq  40341e <_ZN5Eigen8internal9evaluatorINS_7ProductINS_6MatrixIfLi32ELi32ELi0ELi32ELi32EEES4_Li1EEEED1Ev>
  40356f:	eb 03                	jmp    403574 <_ZN5Eigen8internal26call_dense_assignment_loopINS_6MatrixIfLi32ELi32ELi0ELi32ELi32EEENS_7ProductIS3_S3_Li1EEENS0_9assign_opIfEEEEvRKT_RKT0_RKT1_+0x13b>
  403571:	48 89 c3             	mov    %rax,%rbx
  403574:	48 8d 45 80          	lea    -0x80(%rbp),%rax
  403578:	48 89 c7             	mov    %rax,%rdi
  40357b:	e8 cc e9 ff ff       	callq  401f4c <_ZN5Eigen8internal9evaluatorINS_6MatrixIfLi32ELi32ELi0ELi32ELi32EEEED1Ev>
  403580:	48 89 d8             	mov    %rbx,%rax
  403583:	48 89 c7             	mov    %rax,%rdi
  403586:	e8 55 d5 ff ff       	callq  400ae0 <_Unwind_Resume@plt>
  40358b:	e8 f0 d4 ff ff       	callq  400a80 <__stack_chk_fail@plt>
  403590:	48 81 c4 98 00 00 00 	add    $0x98,%rsp
  403597:	5b                   	pop    %rbx
  403598:	5d                   	pop    %rbp
  403599:	c3                   	retq   

000000000040359a <_ZN5Eigen8internal18scalar_constant_opIfEC1ERKf>:
  40359a:	55                   	push   %rbp
  40359b:	48 89 e5             	mov    %rsp,%rbp
  40359e:	48 89 7d f8          	mov    %rdi,-0x8(%rbp)
  4035a2:	48 89 75 f0          	mov    %rsi,-0x10(%rbp)
  4035a6:	48 8b 45 f0          	mov    -0x10(%rbp),%rax
  4035aa:	f3 0f 10 00          	movss  (%rax),%xmm0
  4035ae:	48 8b 45 f8          	mov    -0x8(%rbp),%rax
  4035b2:	f3 0f 11 00          	movss  %xmm0,(%rax)
  4035b6:	90                   	nop
  4035b7:	5d                   	pop    %rbp
  4035b8:	c3                   	retq   
  4035b9:	90                   	nop

00000000004035ba <_ZN5Eigen9DenseBaseINS_6MatrixIfLi32ELi32ELi0ELi32ELi32EEEE11NullaryExprINS_8internal18scalar_constant_opIfEEEEKNS_14CwiseNullaryOpIT_S2_EEllRKS9_>:
  4035ba:	55                   	push   %rbp
  4035bb:	48 89 e5             	mov    %rsp,%rbp
  4035be:	48 83 ec 20          	sub    $0x20,%rsp
  4035c2:	48 89 7d f8          	mov    %rdi,-0x8(%rbp)
  4035c6:	48 89 75 f0          	mov    %rsi,-0x10(%rbp)
  4035ca:	48 89 55 e8          	mov    %rdx,-0x18(%rbp)
  4035ce:	48 89 4d e0          	mov    %rcx,-0x20(%rbp)
  4035d2:	48 8b 4d e0          	mov    -0x20(%rbp),%rcx
  4035d6:	48 8b 55 e8          	mov    -0x18(%rbp),%rdx
  4035da:	48 8b 75 f0          	mov    -0x10(%rbp),%rsi
  4035de:	48 8b 45 f8          	mov    -0x8(%rbp),%rax
  4035e2:	48 89 c7             	mov    %rax,%rdi
  4035e5:	e8 36 0c 00 00       	callq  404220 <_ZN5Eigen14CwiseNullaryOpINS_8internal18scalar_constant_opIfEENS_6MatrixIfLi32ELi32ELi0ELi32ELi32EEEEC1EllRKS3_>
  4035ea:	48 8b 45 f8          	mov    -0x8(%rbp),%rax
  4035ee:	c9                   	leaveq 
  4035ef:	c3                   	retq   

00000000004035f0 <_ZN5Eigen8internal18scalar_constant_opIfEC1ERKS2_>:
  4035f0:	55                   	push   %rbp
  4035f1:	48 89 e5             	mov    %rsp,%rbp
  4035f4:	48 89 7d f8          	mov    %rdi,-0x8(%rbp)
  4035f8:	48 89 75 f0          	mov    %rsi,-0x10(%rbp)
  4035fc:	48 8b 45 f0          	mov    -0x10(%rbp),%rax
  403600:	f3 0f 10 00          	movss  (%rax),%xmm0
  403604:	48 8b 45 f8          	mov    -0x8(%rbp),%rax
  403608:	f3 0f 11 00          	movss  %xmm0,(%rax)
  40360c:	90                   	nop
  40360d:	5d                   	pop    %rbp
  40360e:	c3                   	retq   
  40360f:	90                   	nop

0000000000403610 <_ZN5Eigen15PlainObjectBaseINS_6MatrixIfLi32ELi32ELi0ELi32ELi32EEEE4_setINS_14CwiseNullaryOpINS_8internal18scalar_constant_opIfEES2_EEEERS2_RKNS_9DenseBaseIT_EE>:
  403610:	55                   	push   %rbp
  403611:	48 89 e5             	mov    %rsp,%rbp
  403614:	53                   	push   %rbx
  403615:	48 83 ec 18          	sub    $0x18,%rsp
  403619:	48 89 7d e8          	mov    %rdi,-0x18(%rbp)
  40361d:	48 89 75 e0          	mov    %rsi,-0x20(%rbp)
  403621:	48 8b 45 e0          	mov    -0x20(%rbp),%rax
  403625:	48 89 c7             	mov    %rax,%rdi
  403628:	e8 9d 0c 00 00       	callq  4042ca <_ZNK5Eigen9EigenBaseINS_14CwiseNullaryOpINS_8internal18scalar_constant_opIfEENS_6MatrixIfLi32ELi32ELi0ELi32ELi32EEEEEE7derivedEv>
  40362d:	48 89 c3             	mov    %rax,%rbx
  403630:	48 8b 45 e8          	mov    -0x18(%rbp),%rax
  403634:	48 89 c7             	mov    %rax,%rdi
  403637:	e8 2e e4 ff ff       	callq  401a6a <_ZN5Eigen9EigenBaseINS_6MatrixIfLi32ELi32ELi0ELi32ELi32EEEE7derivedEv>
  40363c:	48 89 de             	mov    %rbx,%rsi
  40363f:	48 89 c7             	mov    %rax,%rdi
  403642:	e8 91 0c 00 00       	callq  4042d8 <_ZN5Eigen8internal15call_assignmentINS_6MatrixIfLi32ELi32ELi0ELi32ELi32EEENS_14CwiseNullaryOpINS0_18scalar_constant_opIfEES3_EEEEvRT_RKT0_>
  403647:	48 8b 45 e8          	mov    -0x18(%rbp),%rax
  40364b:	48 89 c7             	mov    %rax,%rdi
  40364e:	e8 17 e4 ff ff       	callq  401a6a <_ZN5Eigen9EigenBaseINS_6MatrixIfLi32ELi32ELi0ELi32ELi32EEEE7derivedEv>
  403653:	48 83 c4 18          	add    $0x18,%rsp
  403657:	5b                   	pop    %rbx
  403658:	5d                   	pop    %rbp
  403659:	c3                   	retq   

000000000040365a <_ZN5Eigen8internal29general_matrix_matrix_productIlfLi0ELb0EfLi0ELb0ELi0EE3runElllPKflS4_lPflfRNS0_15level3_blockingIffEEPNS0_16GemmParallelInfoIlEE>:
  40365a:	55                   	push   %rbp
  40365b:	48 89 e5             	mov    %rsp,%rbp
  40365e:	53                   	push   %rbx
  40365f:	48 81 ec 98 02 00 00 	sub    $0x298,%rsp
  403666:	48 89 bd a8 fd ff ff 	mov    %rdi,-0x258(%rbp)
  40366d:	48 89 b5 a0 fd ff ff 	mov    %rsi,-0x260(%rbp)
  403674:	48 89 95 98 fd ff ff 	mov    %rdx,-0x268(%rbp)
  40367b:	48 89 8d 90 fd ff ff 	mov    %rcx,-0x270(%rbp)
  403682:	4c 89 85 88 fd ff ff 	mov    %r8,-0x278(%rbp)
  403689:	4c 89 8d 80 fd ff ff 	mov    %r9,-0x280(%rbp)
  403690:	f3 0f 11 85 74 fd ff 	movss  %xmm0,-0x28c(%rbp)
  403697:	ff 
  403698:	48 8b 45 18          	mov    0x18(%rbp),%rax
  40369c:	48 89 85 78 fd ff ff 	mov    %rax,-0x288(%rbp)
  4036a3:	48 8b 45 28          	mov    0x28(%rbp),%rax
  4036a7:	48 89 85 68 fd ff ff 	mov    %rax,-0x298(%rbp)
  4036ae:	48 8b 45 30          	mov    0x30(%rbp),%rax
  4036b2:	48 89 85 60 fd ff ff 	mov    %rax,-0x2a0(%rbp)
  4036b9:	64 48 8b 04 25 28 00 	mov    %fs:0x28,%rax
  4036c0:	00 00 
  4036c2:	48 89 45 e8          	mov    %rax,-0x18(%rbp)
  4036c6:	31 c0                	xor    %eax,%eax
  4036c8:	48 8b 85 90 fd ff ff 	mov    -0x270(%rbp),%rax
  4036cf:	48 89 85 60 fe ff ff 	mov    %rax,-0x1a0(%rbp)
  4036d6:	48 8b 85 88 fd ff ff 	mov    -0x278(%rbp),%rax
  4036dd:	48 89 85 68 fe ff ff 	mov    %rax,-0x198(%rbp)
  4036e4:	48 8d 85 70 ff ff ff 	lea    -0x90(%rbp),%rax
  4036eb:	48 89 85 70 fe ff ff 	mov    %rax,-0x190(%rbp)
  4036f2:	48 8b 85 60 fe ff ff 	mov    -0x1a0(%rbp),%rax
  4036f9:	48 89 85 78 fe ff ff 	mov    %rax,-0x188(%rbp)
  403700:	48 8b 85 68 fe ff ff 	mov    -0x198(%rbp),%rax
  403707:	48 89 85 80 fe ff ff 	mov    %rax,-0x180(%rbp)
  40370e:	48 8b 85 70 fe ff ff 	mov    -0x190(%rbp),%rax
  403715:	48 8b 95 78 fe ff ff 	mov    -0x188(%rbp),%rdx
  40371c:	48 89 10             	mov    %rdx,(%rax)
  40371f:	48 8b 85 70 fe ff ff 	mov    -0x190(%rbp),%rax
  403726:	48 8b 95 80 fe ff ff 	mov    -0x180(%rbp),%rdx
  40372d:	48 89 50 08          	mov    %rdx,0x8(%rax)
  403731:	48 8b 85 80 fd ff ff 	mov    -0x280(%rbp),%rax
  403738:	48 89 85 d8 fd ff ff 	mov    %rax,-0x228(%rbp)
  40373f:	48 8b 45 10          	mov    0x10(%rbp),%rax
  403743:	48 89 85 88 fe ff ff 	mov    %rax,-0x178(%rbp)
  40374a:	48 8d 45 80          	lea    -0x80(%rbp),%rax
  40374e:	48 89 85 90 fe ff ff 	mov    %rax,-0x170(%rbp)
  403755:	48 8b 85 d8 fd ff ff 	mov    -0x228(%rbp),%rax
  40375c:	48 89 85 98 fe ff ff 	mov    %rax,-0x168(%rbp)
  403763:	48 8b 85 88 fe ff ff 	mov    -0x178(%rbp),%rax
  40376a:	48 89 85 a0 fe ff ff 	mov    %rax,-0x160(%rbp)
  403771:	48 8b 85 90 fe ff ff 	mov    -0x170(%rbp),%rax
  403778:	48 8b 95 98 fe ff ff 	mov    -0x168(%rbp),%rdx
  40377f:	48 89 10             	mov    %rdx,(%rax)
  403782:	48 8b 85 90 fe ff ff 	mov    -0x170(%rbp),%rax
  403789:	48 8b 95 a0 fe ff ff 	mov    -0x160(%rbp),%rdx
  403790:	48 89 50 08          	mov    %rdx,0x8(%rax)
  403794:	48 8b 85 78 fd ff ff 	mov    -0x288(%rbp),%rax
  40379b:	48 89 85 18 fe ff ff 	mov    %rax,-0x1e8(%rbp)
  4037a2:	48 8b 45 20          	mov    0x20(%rbp),%rax
  4037a6:	48 89 85 a8 fe ff ff 	mov    %rax,-0x158(%rbp)
  4037ad:	48 8b 85 18 fe ff ff 	mov    -0x1e8(%rbp),%rax
  4037b4:	48 89 45 90          	mov    %rax,-0x70(%rbp)
  4037b8:	48 8b 85 a8 fe ff ff 	mov    -0x158(%rbp),%rax
  4037bf:	48 89 45 98          	mov    %rax,-0x68(%rbp)
  4037c3:	48 8b 85 68 fd ff ff 	mov    -0x298(%rbp),%rax
  4037ca:	48 89 c7             	mov    %rax,%rdi
  4037cd:	e8 62 0b 00 00       	callq  404334 <_ZNK5Eigen8internal15level3_blockingIffE2kcEv>
  4037d2:	48 89 85 f0 fd ff ff 	mov    %rax,-0x210(%rbp)
  4037d9:	48 8b 85 68 fd ff ff 	mov    -0x298(%rbp),%rax
  4037e0:	48 89 c7             	mov    %rax,%rdi
  4037e3:	e8 5e 0b 00 00       	callq  404346 <_ZNK5Eigen8internal15level3_blockingIffE2mcEv>
  4037e8:	48 89 45 d0          	mov    %rax,-0x30(%rbp)
  4037ec:	48 8d 55 d0          	lea    -0x30(%rbp),%rdx
  4037f0:	48 8d 85 a8 fd ff ff 	lea    -0x258(%rbp),%rax
  4037f7:	48 89 d6             	mov    %rdx,%rsi
  4037fa:	48 89 c7             	mov    %rax,%rdi
  4037fd:	e8 56 0b 00 00       	callq  404358 <_ZSt3minIlERKT_S2_S2_>
  403802:	48 8b 00             	mov    (%rax),%rax
  403805:	48 89 85 f8 fd ff ff 	mov    %rax,-0x208(%rbp)
  40380c:	48 8b 85 68 fd ff ff 	mov    -0x298(%rbp),%rax
  403813:	48 89 c7             	mov    %rax,%rdi
  403816:	e8 69 0b 00 00       	callq  404384 <_ZNK5Eigen8internal15level3_blockingIffE2ncEv>
  40381b:	48 89 45 d0          	mov    %rax,-0x30(%rbp)
  40381f:	48 8d 55 d0          	lea    -0x30(%rbp),%rdx
  403823:	48 8d 85 a0 fd ff ff 	lea    -0x260(%rbp),%rax
  40382a:	48 89 d6             	mov    %rdx,%rsi
  40382d:	48 89 c7             	mov    %rax,%rdi
  403830:	e8 23 0b 00 00       	callq  404358 <_ZSt3minIlERKT_S2_S2_>
  403835:	48 8b 00             	mov    (%rax),%rax
  403838:	48 89 85 00 fe ff ff 	mov    %rax,-0x200(%rbp)
  40383f:	48 8d 85 60 fd ff ff 	lea    -0x2a0(%rbp),%rax
  403846:	48 89 c7             	mov    %rax,%rdi
  403849:	e8 48 0b 00 00       	callq  404396 <_ZN5Eigen8internal22ignore_unused_variableIPNS0_16GemmParallelInfoIlEEEEvRKT_>
  40384e:	48 8b 85 f0 fd ff ff 	mov    -0x210(%rbp),%rax
  403855:	48 0f af 85 f8 fd ff 	imul   -0x208(%rbp),%rax
  40385c:	ff 
  40385d:	48 89 85 08 fe ff ff 	mov    %rax,-0x1f8(%rbp)
  403864:	48 8b 85 f0 fd ff ff 	mov    -0x210(%rbp),%rax
  40386b:	48 0f af 85 00 fe ff 	imul   -0x200(%rbp),%rax
  403872:	ff 
  403873:	48 89 85 10 fe ff ff 	mov    %rax,-0x1f0(%rbp)
  40387a:	48 8b 85 08 fe ff ff 	mov    -0x1f8(%rbp),%rax
  403881:	48 89 85 e0 fd ff ff 	mov    %rax,-0x220(%rbp)
  403888:	48 b8 ff ff ff ff ff 	movabs $0x3fffffffffffffff,%rax
  40388f:	ff ff 3f 
  403892:	48 39 85 e0 fd ff ff 	cmp    %rax,-0x220(%rbp)
  403899:	76 05                	jbe    4038a0 <_ZN5Eigen8internal29general_matrix_matrix_productIlfLi0ELb0EfLi0ELb0ELi0EE3runElllPKflS4_lPflfRNS0_15level3_blockingIffEEPNS0_16GemmParallelInfoIlEE+0x246>
  40389b:	e8 1d da ff ff       	callq  4012bd <_ZN5Eigen8internal19throw_std_bad_allocEv>
  4038a0:	48 8b 85 68 fd ff ff 	mov    -0x298(%rbp),%rax
  4038a7:	48 89 c7             	mov    %rax,%rdi
  4038aa:	e8 f3 0a 00 00       	callq  4043a2 <_ZN5Eigen8internal15level3_blockingIffE6blockAEv>
  4038af:	48 85 c0             	test   %rax,%rax
  4038b2:	74 11                	je     4038c5 <_ZN5Eigen8internal29general_matrix_matrix_productIlfLi0ELb0EfLi0ELb0ELi0EE3runElllPKflS4_lPflfRNS0_15level3_blockingIffEEPNS0_16GemmParallelInfoIlEE+0x26b>
  4038b4:	48 8b 85 68 fd ff ff 	mov    -0x298(%rbp),%rax
  4038bb:	48 89 c7             	mov    %rax,%rdi
  4038be:	e8 df 0a 00 00       	callq  4043a2 <_ZN5Eigen8internal15level3_blockingIffE6blockAEv>
  4038c3:	eb 72                	jmp    403937 <_ZN5Eigen8internal29general_matrix_matrix_productIlfLi0ELb0EfLi0ELb0ELi0EE3runElllPKflS4_lPflfRNS0_15level3_blockingIffEEPNS0_16GemmParallelInfoIlEE+0x2dd>
  4038c5:	48 8b 85 08 fe ff ff 	mov    -0x1f8(%rbp),%rax
  4038cc:	48 c1 e0 02          	shl    $0x2,%rax
  4038d0:	48 3d 00 00 02 00    	cmp    $0x20000,%rax
  4038d6:	77 4c                	ja     403924 <_ZN5Eigen8internal29general_matrix_matrix_productIlfLi0ELb0EfLi0ELb0ELi0EE3runElllPKflS4_lPflfRNS0_15level3_blockingIffEEPNS0_16GemmParallelInfoIlEE+0x2ca>
  4038d8:	48 8b 85 08 fe ff ff 	mov    -0x1f8(%rbp),%rax
  4038df:	48 c1 e0 02          	shl    $0x2,%rax
  4038e3:	48 83 c0 0f          	add    $0xf,%rax
  4038e7:	48 8d 50 0f          	lea    0xf(%rax),%rdx
  4038eb:	b8 10 00 00 00       	mov    $0x10,%eax
  4038f0:	48 83 e8 01          	sub    $0x1,%rax
  4038f4:	48 01 d0             	add    %rdx,%rax
  4038f7:	bb 10 00 00 00       	mov    $0x10,%ebx
  4038fc:	ba 00 00 00 00       	mov    $0x0,%edx
  403901:	48 f7 f3             	div    %rbx
  403904:	48 6b c0 10          	imul   $0x10,%rax,%rax
  403908:	48 29 c4             	sub    %rax,%rsp
  40390b:	48 89 e0             	mov    %rsp,%rax
  40390e:	48 83 c0 0f          	add    $0xf,%rax
  403912:	48 c1 e8 04          	shr    $0x4,%rax
  403916:	48 c1 e0 04          	shl    $0x4,%rax
  40391a:	48 83 c0 0f          	add    $0xf,%rax
  40391e:	48 83 e0 f0          	and    $0xfffffffffffffff0,%rax
  403922:	eb 13                	jmp    403937 <_ZN5Eigen8internal29general_matrix_matrix_productIlfLi0ELb0EfLi0ELb0ELi0EE3runElllPKflS4_lPflfRNS0_15level3_blockingIffEEPNS0_16GemmParallelInfoIlEE+0x2dd>
  403924:	48 8b 85 08 fe ff ff 	mov    -0x1f8(%rbp),%rax
  40392b:	48 c1 e0 02          	shl    $0x2,%rax
  40392f:	48 89 c7             	mov    %rax,%rdi
  403932:	e8 bd d9 ff ff       	callq  4012f4 <_ZN5Eigen8internal14aligned_mallocEm>
  403937:	48 89 85 20 fe ff ff 	mov    %rax,-0x1e0(%rbp)
  40393e:	48 8b 85 08 fe ff ff 	mov    -0x1f8(%rbp),%rax
  403945:	48 c1 e0 02          	shl    $0x2,%rax
  403949:	48 3d 00 00 02 00    	cmp    $0x20000,%rax
  40394f:	0f 97 c0             	seta   %al
  403952:	0f b6 d8             	movzbl %al,%ebx
  403955:	48 8b 85 68 fd ff ff 	mov    -0x298(%rbp),%rax
  40395c:	48 89 c7             	mov    %rax,%rdi
  40395f:	e8 3e 0a 00 00       	callq  4043a2 <_ZN5Eigen8internal15level3_blockingIffE6blockAEv>
  403964:	48 85 c0             	test   %rax,%rax
  403967:	75 09                	jne    403972 <_ZN5Eigen8internal29general_matrix_matrix_productIlfLi0ELb0EfLi0ELb0ELi0EE3runElllPKflS4_lPflfRNS0_15level3_blockingIffEEPNS0_16GemmParallelInfoIlEE+0x318>
  403969:	48 8b 85 20 fe ff ff 	mov    -0x1e0(%rbp),%rax
  403970:	eb 05                	jmp    403977 <_ZN5Eigen8internal29general_matrix_matrix_productIlfLi0ELb0EfLi0ELb0ELi0EE3runElllPKflS4_lPflfRNS0_15level3_blockingIffEEPNS0_16GemmParallelInfoIlEE+0x31d>
  403972:	b8 00 00 00 00       	mov    $0x0,%eax
  403977:	48 8b 95 08 fe ff ff 	mov    -0x1f8(%rbp),%rdx
  40397e:	48 8d 7d b0          	lea    -0x50(%rbp),%rdi
  403982:	89 d9                	mov    %ebx,%ecx
  403984:	48 89 c6             	mov    %rax,%rsi
  403987:	e8 28 0a 00 00       	callq  4043b4 <_ZN5Eigen8internal28aligned_stack_memory_handlerIfEC1EPfmb>
  40398c:	48 8b 85 10 fe ff ff 	mov    -0x1f0(%rbp),%rax
  403993:	48 89 85 e8 fd ff ff 	mov    %rax,-0x218(%rbp)
  40399a:	48 b8 ff ff ff ff ff 	movabs $0x3fffffffffffffff,%rax
  4039a1:	ff ff 3f 
  4039a4:	48 39 85 e8 fd ff ff 	cmp    %rax,-0x218(%rbp)
  4039ab:	76 05                	jbe    4039b2 <_ZN5Eigen8internal29general_matrix_matrix_productIlfLi0ELb0EfLi0ELb0ELi0EE3runElllPKflS4_lPflfRNS0_15level3_blockingIffEEPNS0_16GemmParallelInfoIlEE+0x358>
  4039ad:	e8 0b d9 ff ff       	callq  4012bd <_ZN5Eigen8internal19throw_std_bad_allocEv>
  4039b2:	48 8b 85 68 fd ff ff 	mov    -0x298(%rbp),%rax
  4039b9:	48 89 c7             	mov    %rax,%rdi
  4039bc:	e8 73 0a 00 00       	callq  404434 <_ZN5Eigen8internal15level3_blockingIffE6blockBEv>
  4039c1:	48 85 c0             	test   %rax,%rax
  4039c4:	74 11                	je     4039d7 <_ZN5Eigen8internal29general_matrix_matrix_productIlfLi0ELb0EfLi0ELb0ELi0EE3runElllPKflS4_lPflfRNS0_15level3_blockingIffEEPNS0_16GemmParallelInfoIlEE+0x37d>
  4039c6:	48 8b 85 68 fd ff ff 	mov    -0x298(%rbp),%rax
  4039cd:	48 89 c7             	mov    %rax,%rdi
  4039d0:	e8 5f 0a 00 00       	callq  404434 <_ZN5Eigen8internal15level3_blockingIffE6blockBEv>
  4039d5:	eb 72                	jmp    403a49 <_ZN5Eigen8internal29general_matrix_matrix_productIlfLi0ELb0EfLi0ELb0ELi0EE3runElllPKflS4_lPflfRNS0_15level3_blockingIffEEPNS0_16GemmParallelInfoIlEE+0x3ef>
  4039d7:	48 8b 85 10 fe ff ff 	mov    -0x1f0(%rbp),%rax
  4039de:	48 c1 e0 02          	shl    $0x2,%rax
  4039e2:	48 3d 00 00 02 00    	cmp    $0x20000,%rax
  4039e8:	77 4c                	ja     403a36 <_ZN5Eigen8internal29general_matrix_matrix_productIlfLi0ELb0EfLi0ELb0ELi0EE3runElllPKflS4_lPflfRNS0_15level3_blockingIffEEPNS0_16GemmParallelInfoIlEE+0x3dc>
  4039ea:	48 8b 85 10 fe ff ff 	mov    -0x1f0(%rbp),%rax
  4039f1:	48 c1 e0 02          	shl    $0x2,%rax
  4039f5:	48 83 c0 0f          	add    $0xf,%rax
  4039f9:	48 8d 50 0f          	lea    0xf(%rax),%rdx
  4039fd:	b8 10 00 00 00       	mov    $0x10,%eax
  403a02:	48 83 e8 01          	sub    $0x1,%rax
  403a06:	48 01 d0             	add    %rdx,%rax
  403a09:	bb 10 00 00 00       	mov    $0x10,%ebx
  403a0e:	ba 00 00 00 00       	mov    $0x0,%edx
  403a13:	48 f7 f3             	div    %rbx
  403a16:	48 6b c0 10          	imul   $0x10,%rax,%rax
  403a1a:	48 29 c4             	sub    %rax,%rsp
  403a1d:	48 89 e0             	mov    %rsp,%rax
  403a20:	48 83 c0 0f          	add    $0xf,%rax
  403a24:	48 c1 e8 04          	shr    $0x4,%rax
  403a28:	48 c1 e0 04          	shl    $0x4,%rax
  403a2c:	48 83 c0 0f          	add    $0xf,%rax
  403a30:	48 83 e0 f0          	and    $0xfffffffffffffff0,%rax
  403a34:	eb 13                	jmp    403a49 <_ZN5Eigen8internal29general_matrix_matrix_productIlfLi0ELb0EfLi0ELb0ELi0EE3runElllPKflS4_lPflfRNS0_15level3_blockingIffEEPNS0_16GemmParallelInfoIlEE+0x3ef>
  403a36:	48 8b 85 10 fe ff ff 	mov    -0x1f0(%rbp),%rax
  403a3d:	48 c1 e0 02          	shl    $0x2,%rax
  403a41:	48 89 c7             	mov    %rax,%rdi
  403a44:	e8 ab d8 ff ff       	callq  4012f4 <_ZN5Eigen8internal14aligned_mallocEm>
  403a49:	48 89 85 30 fe ff ff 	mov    %rax,-0x1d0(%rbp)
  403a50:	48 8b 85 10 fe ff ff 	mov    -0x1f0(%rbp),%rax
  403a57:	48 c1 e0 02          	shl    $0x2,%rax
  403a5b:	48 3d 00 00 02 00    	cmp    $0x20000,%rax
  403a61:	0f 97 c0             	seta   %al
  403a64:	0f b6 d8             	movzbl %al,%ebx
  403a67:	48 8b 85 68 fd ff ff 	mov    -0x298(%rbp),%rax
  403a6e:	48 89 c7             	mov    %rax,%rdi
  403a71:	e8 be 09 00 00       	callq  404434 <_ZN5Eigen8internal15level3_blockingIffE6blockBEv>
  403a76:	48 85 c0             	test   %rax,%rax
  403a79:	75 09                	jne    403a84 <_ZN5Eigen8internal29general_matrix_matrix_productIlfLi0ELb0EfLi0ELb0ELi0EE3runElllPKflS4_lPflfRNS0_15level3_blockingIffEEPNS0_16GemmParallelInfoIlEE+0x42a>
  403a7b:	48 8b 85 30 fe ff ff 	mov    -0x1d0(%rbp),%rax
  403a82:	eb 05                	jmp    403a89 <_ZN5Eigen8internal29general_matrix_matrix_productIlfLi0ELb0EfLi0ELb0ELi0EE3runElllPKflS4_lPflfRNS0_15level3_blockingIffEEPNS0_16GemmParallelInfoIlEE+0x42f>
  403a84:	b8 00 00 00 00       	mov    $0x0,%eax
  403a89:	48 8b 95 10 fe ff ff 	mov    -0x1f0(%rbp),%rdx
  403a90:	48 8d 7d d0          	lea    -0x30(%rbp),%rdi
  403a94:	89 d9                	mov    %ebx,%ecx
  403a96:	48 89 c6             	mov    %rax,%rsi
  403a99:	e8 16 09 00 00       	callq  4043b4 <_ZN5Eigen8internal28aligned_stack_memory_handlerIfEC1EPfmb>
  403a9e:	48 8b 85 a8 fd ff ff 	mov    -0x258(%rbp),%rax
  403aa5:	48 39 85 f8 fd ff ff 	cmp    %rax,-0x208(%rbp)
  403aac:	74 27                	je     403ad5 <_ZN5Eigen8internal29general_matrix_matrix_productIlfLi0ELb0EfLi0ELb0ELi0EE3runElllPKflS4_lPflfRNS0_15level3_blockingIffEEPNS0_16GemmParallelInfoIlEE+0x47b>
  403aae:	48 8b 85 98 fd ff ff 	mov    -0x268(%rbp),%rax
  403ab5:	48 39 85 f0 fd ff ff 	cmp    %rax,-0x210(%rbp)
  403abc:	75 17                	jne    403ad5 <_ZN5Eigen8internal29general_matrix_matrix_productIlfLi0ELb0EfLi0ELb0ELi0EE3runElllPKflS4_lPflfRNS0_15level3_blockingIffEEPNS0_16GemmParallelInfoIlEE+0x47b>
  403abe:	48 8b 85 a0 fd ff ff 	mov    -0x260(%rbp),%rax
  403ac5:	48 39 85 00 fe ff ff 	cmp    %rax,-0x200(%rbp)
  403acc:	75 07                	jne    403ad5 <_ZN5Eigen8internal29general_matrix_matrix_productIlfLi0ELb0EfLi0ELb0ELi0EE3runElllPKflS4_lPflfRNS0_15level3_blockingIffEEPNS0_16GemmParallelInfoIlEE+0x47b>
  403ace:	b8 01 00 00 00       	mov    $0x1,%eax
  403ad3:	eb 05                	jmp    403ada <_ZN5Eigen8internal29general_matrix_matrix_productIlfLi0ELb0EfLi0ELb0ELi0EE3runElllPKflS4_lPflfRNS0_15level3_blockingIffEEPNS0_16GemmParallelInfoIlEE+0x480>
  403ad5:	b8 00 00 00 00       	mov    $0x0,%eax
  403ada:	88 85 bf fd ff ff    	mov    %al,-0x241(%rbp)
  403ae0:	48 c7 85 c0 fd ff ff 	movq   $0x0,-0x240(%rbp)
  403ae7:	00 00 00 00 
  403aeb:	48 8b 85 a8 fd ff ff 	mov    -0x258(%rbp),%rax
  403af2:	48 39 85 c0 fd ff ff 	cmp    %rax,-0x240(%rbp)
  403af9:	0f 8d 88 04 00 00    	jge    403f87 <_ZN5Eigen8internal29general_matrix_matrix_productIlfLi0ELb0EfLi0ELb0ELi0EE3runElllPKflS4_lPflfRNS0_15level3_blockingIffEEPNS0_16GemmParallelInfoIlEE+0x92d>
  403aff:	48 8b 95 c0 fd ff ff 	mov    -0x240(%rbp),%rdx
  403b06:	48 8b 85 f8 fd ff ff 	mov    -0x208(%rbp),%rax
  403b0d:	48 01 d0             	add    %rdx,%rax
  403b10:	48 89 45 a0          	mov    %rax,-0x60(%rbp)
  403b14:	48 8d 95 a8 fd ff ff 	lea    -0x258(%rbp),%rdx
  403b1b:	48 8d 45 a0          	lea    -0x60(%rbp),%rax
  403b1f:	48 89 d6             	mov    %rdx,%rsi
  403b22:	48 89 c7             	mov    %rax,%rdi
  403b25:	e8 2e 08 00 00       	callq  404358 <_ZSt3minIlERKT_S2_S2_>
  403b2a:	48 8b 00             	mov    (%rax),%rax
  403b2d:	48 2b 85 c0 fd ff ff 	sub    -0x240(%rbp),%rax
  403b34:	48 89 85 38 fe ff ff 	mov    %rax,-0x1c8(%rbp)
  403b3b:	48 c7 85 c8 fd ff ff 	movq   $0x0,-0x238(%rbp)
  403b42:	00 00 00 00 
  403b46:	48 8b 85 98 fd ff ff 	mov    -0x268(%rbp),%rax
  403b4d:	48 39 85 c8 fd ff ff 	cmp    %rax,-0x238(%rbp)
  403b54:	0f 8d 1a 04 00 00    	jge    403f74 <_ZN5Eigen8internal29general_matrix_matrix_productIlfLi0ELb0EfLi0ELb0ELi0EE3runElllPKflS4_lPflfRNS0_15level3_blockingIffEEPNS0_16GemmParallelInfoIlEE+0x91a>
  403b5a:	48 8b 95 c8 fd ff ff 	mov    -0x238(%rbp),%rdx
  403b61:	48 8b 85 f0 fd ff ff 	mov    -0x210(%rbp),%rax
  403b68:	48 01 d0             	add    %rdx,%rax
  403b6b:	48 89 45 a0          	mov    %rax,-0x60(%rbp)
  403b6f:	48 8d 95 98 fd ff ff 	lea    -0x268(%rbp),%rdx
  403b76:	48 8d 45 a0          	lea    -0x60(%rbp),%rax
  403b7a:	48 89 d6             	mov    %rdx,%rsi
  403b7d:	48 89 c7             	mov    %rax,%rdi
  403b80:	e8 d3 07 00 00       	callq  404358 <_ZSt3minIlERKT_S2_S2_>
  403b85:	48 8b 00             	mov    (%rax),%rax
  403b88:	48 2b 85 c8 fd ff ff 	sub    -0x238(%rbp),%rax
  403b8f:	48 89 85 40 fe ff ff 	mov    %rax,-0x1c0(%rbp)
  403b96:	48 8b 85 c0 fd ff ff 	mov    -0x240(%rbp),%rax
  403b9d:	48 89 85 28 fe ff ff 	mov    %rax,-0x1d8(%rbp)
  403ba4:	48 8b 85 c8 fd ff ff 	mov    -0x238(%rbp),%rax
  403bab:	48 89 85 b0 fe ff ff 	mov    %rax,-0x150(%rbp)
  403bb2:	48 8b 85 78 ff ff ff 	mov    -0x88(%rbp),%rax
  403bb9:	48 8d 95 70 ff ff ff 	lea    -0x90(%rbp),%rdx
  403bc0:	48 89 95 b8 fe ff ff 	mov    %rdx,-0x148(%rbp)
  403bc7:	48 8b 95 28 fe ff ff 	mov    -0x1d8(%rbp),%rdx
  403bce:	48 89 95 c0 fe ff ff 	mov    %rdx,-0x140(%rbp)
  403bd5:	48 8b 95 b0 fe ff ff 	mov    -0x150(%rbp),%rdx
  403bdc:	48 89 95 c8 fe ff ff 	mov    %rdx,-0x138(%rbp)
  403be3:	48 8b 95 b8 fe ff ff 	mov    -0x148(%rbp),%rdx
  403bea:	48 8b 0a             	mov    (%rdx),%rcx
  403bed:	48 8b 95 b8 fe ff ff 	mov    -0x148(%rbp),%rdx
  403bf4:	48 8b 52 08          	mov    0x8(%rdx),%rdx
  403bf8:	48 89 d6             	mov    %rdx,%rsi
  403bfb:	48 0f af b5 c8 fe ff 	imul   -0x138(%rbp),%rsi
  403c02:	ff 
  403c03:	48 8b 95 c0 fe ff ff 	mov    -0x140(%rbp),%rdx
  403c0a:	48 01 f2             	add    %rsi,%rdx
  403c0d:	48 c1 e2 02          	shl    $0x2,%rdx
  403c11:	48 01 ca             	add    %rcx,%rdx
  403c14:	48 89 95 d0 fe ff ff 	mov    %rdx,-0x130(%rbp)
  403c1b:	48 89 85 d8 fe ff ff 	mov    %rax,-0x128(%rbp)
  403c22:	48 8d 45 a0          	lea    -0x60(%rbp),%rax
  403c26:	48 89 85 e0 fe ff ff 	mov    %rax,-0x120(%rbp)
  403c2d:	48 8b 85 d0 fe ff ff 	mov    -0x130(%rbp),%rax
  403c34:	48 89 85 e8 fe ff ff 	mov    %rax,-0x118(%rbp)
  403c3b:	48 8b 85 d8 fe ff ff 	mov    -0x128(%rbp),%rax
  403c42:	48 89 85 f0 fe ff ff 	mov    %rax,-0x110(%rbp)
  403c49:	48 8b 85 e0 fe ff ff 	mov    -0x120(%rbp),%rax
  403c50:	48 8b 95 e8 fe ff ff 	mov    -0x118(%rbp),%rdx
  403c57:	48 89 10             	mov    %rdx,(%rax)
  403c5a:	48 8b 85 e0 fe ff ff 	mov    -0x120(%rbp),%rax
  403c61:	48 8b 95 f0 fe ff ff 	mov    -0x110(%rbp),%rdx
  403c68:	48 89 50 08          	mov    %rdx,0x8(%rax)
  403c6c:	48 8b 45 a0          	mov    -0x60(%rbp),%rax
  403c70:	48 8b 55 a8          	mov    -0x58(%rbp),%rdx
  403c74:	48 89 45 a0          	mov    %rax,-0x60(%rbp)
  403c78:	48 89 55 a8          	mov    %rdx,-0x58(%rbp)
  403c7c:	48 8b bd 38 fe ff ff 	mov    -0x1c8(%rbp),%rdi
  403c83:	48 8b 8d 40 fe ff ff 	mov    -0x1c0(%rbp),%rcx
  403c8a:	48 8d 55 a0          	lea    -0x60(%rbp),%rdx
  403c8e:	48 8b b5 20 fe ff ff 	mov    -0x1e0(%rbp),%rsi
  403c95:	48 8d 85 bc fd ff ff 	lea    -0x244(%rbp),%rax
  403c9c:	48 83 ec 08          	sub    $0x8,%rsp
  403ca0:	6a 00                	pushq  $0x0
  403ca2:	41 b9 00 00 00 00    	mov    $0x0,%r9d
  403ca8:	49 89 f8             	mov    %rdi,%r8
  403cab:	48 89 c7             	mov    %rax,%rdi
  403cae:	e8 93 07 00 00       	callq  404446 <_ZN5Eigen8internal13gemm_pack_lhsIflNS0_22const_blas_data_mapperIflLi0EEELi8ELi4ELi0ELb0ELb0EEclEPfRKS3_llll>
  403cb3:	48 83 c4 10          	add    $0x10,%rsp
  403cb7:	48 c7 85 d0 fd ff ff 	movq   $0x0,-0x230(%rbp)
  403cbe:	00 00 00 00 
  403cc2:	48 8b 85 a0 fd ff ff 	mov    -0x260(%rbp),%rax
  403cc9:	48 39 85 d0 fd ff ff 	cmp    %rax,-0x230(%rbp)
  403cd0:	0f 8d 8b 02 00 00    	jge    403f61 <_ZN5Eigen8internal29general_matrix_matrix_productIlfLi0ELb0EfLi0ELb0ELi0EE3runElllPKflS4_lPflfRNS0_15level3_blockingIffEEPNS0_16GemmParallelInfoIlEE+0x907>
  403cd6:	48 8b 95 d0 fd ff ff 	mov    -0x230(%rbp),%rdx
  403cdd:	48 8b 85 00 fe ff ff 	mov    -0x200(%rbp),%rax
  403ce4:	48 01 d0             	add    %rdx,%rax
  403ce7:	48 89 45 a0          	mov    %rax,-0x60(%rbp)
  403ceb:	48 8d 95 a0 fd ff ff 	lea    -0x260(%rbp),%rdx
  403cf2:	48 8d 45 a0          	lea    -0x60(%rbp),%rax
  403cf6:	48 89 d6             	mov    %rdx,%rsi
  403cf9:	48 89 c7             	mov    %rax,%rdi
  403cfc:	e8 57 06 00 00       	callq  404358 <_ZSt3minIlERKT_S2_S2_>
  403d01:	48 8b 00             	mov    (%rax),%rax
  403d04:	48 2b 85 d0 fd ff ff 	sub    -0x230(%rbp),%rax
  403d0b:	48 89 85 50 fe ff ff 	mov    %rax,-0x1b0(%rbp)
  403d12:	0f b6 85 bf fd ff ff 	movzbl -0x241(%rbp),%eax
  403d19:	83 f0 01             	xor    $0x1,%eax
  403d1c:	84 c0                	test   %al,%al
  403d1e:	75 0e                	jne    403d2e <_ZN5Eigen8internal29general_matrix_matrix_productIlfLi0ELb0EfLi0ELb0ELi0EE3runElllPKflS4_lPflfRNS0_15level3_blockingIffEEPNS0_16GemmParallelInfoIlEE+0x6d4>
  403d20:	48 83 bd c0 fd ff ff 	cmpq   $0x0,-0x240(%rbp)
  403d27:	00 
  403d28:	0f 85 1b 01 00 00    	jne    403e49 <_ZN5Eigen8internal29general_matrix_matrix_productIlfLi0ELb0EfLi0ELb0ELi0EE3runElllPKflS4_lPflfRNS0_15level3_blockingIffEEPNS0_16GemmParallelInfoIlEE+0x7ef>
  403d2e:	48 8b 85 c8 fd ff ff 	mov    -0x238(%rbp),%rax
  403d35:	48 89 85 48 fe ff ff 	mov    %rax,-0x1b8(%rbp)
  403d3c:	48 8b 85 d0 fd ff ff 	mov    -0x230(%rbp),%rax
  403d43:	48 89 85 f8 fe ff ff 	mov    %rax,-0x108(%rbp)
  403d4a:	48 8b 45 88          	mov    -0x78(%rbp),%rax
  403d4e:	48 8d 55 80          	lea    -0x80(%rbp),%rdx
  403d52:	48 89 95 00 ff ff ff 	mov    %rdx,-0x100(%rbp)
  403d59:	48 8b 95 48 fe ff ff 	mov    -0x1b8(%rbp),%rdx
  403d60:	48 89 95 08 ff ff ff 	mov    %rdx,-0xf8(%rbp)
  403d67:	48 8b 95 f8 fe ff ff 	mov    -0x108(%rbp),%rdx
  403d6e:	48 89 95 10 ff ff ff 	mov    %rdx,-0xf0(%rbp)
  403d75:	48 8b 95 00 ff ff ff 	mov    -0x100(%rbp),%rdx
  403d7c:	48 8b 0a             	mov    (%rdx),%rcx
  403d7f:	48 8b 95 00 ff ff ff 	mov    -0x100(%rbp),%rdx
  403d86:	48 8b 52 08          	mov    0x8(%rdx),%rdx
  403d8a:	48 89 d6             	mov    %rdx,%rsi
  403d8d:	48 0f af b5 10 ff ff 	imul   -0xf0(%rbp),%rsi
  403d94:	ff 
  403d95:	48 8b 95 08 ff ff ff 	mov    -0xf8(%rbp),%rdx
  403d9c:	48 01 f2             	add    %rsi,%rdx
  403d9f:	48 c1 e2 02          	shl    $0x2,%rdx
  403da3:	48 01 ca             	add    %rcx,%rdx
  403da6:	48 89 95 18 ff ff ff 	mov    %rdx,-0xe8(%rbp)
  403dad:	48 89 85 20 ff ff ff 	mov    %rax,-0xe0(%rbp)
  403db4:	48 8d 45 a0          	lea    -0x60(%rbp),%rax
  403db8:	48 89 85 28 ff ff ff 	mov    %rax,-0xd8(%rbp)
  403dbf:	48 8b 85 18 ff ff ff 	mov    -0xe8(%rbp),%rax
  403dc6:	48 89 85 30 ff ff ff 	mov    %rax,-0xd0(%rbp)
  403dcd:	48 8b 85 20 ff ff ff 	mov    -0xe0(%rbp),%rax
  403dd4:	48 89 85 38 ff ff ff 	mov    %rax,-0xc8(%rbp)
  403ddb:	48 8b 85 28 ff ff ff 	mov    -0xd8(%rbp),%rax
  403de2:	48 8b 95 30 ff ff ff 	mov    -0xd0(%rbp),%rdx
  403de9:	48 89 10             	mov    %rdx,(%rax)
  403dec:	48 8b 85 28 ff ff ff 	mov    -0xd8(%rbp),%rax
  403df3:	48 8b 95 38 ff ff ff 	mov    -0xc8(%rbp),%rdx
  403dfa:	48 89 50 08          	mov    %rdx,0x8(%rax)
  403dfe:	48 8b 45 a0          	mov    -0x60(%rbp),%rax
  403e02:	48 8b 55 a8          	mov    -0x58(%rbp),%rdx
  403e06:	48 89 45 a0          	mov    %rax,-0x60(%rbp)
  403e0a:	48 89 55 a8          	mov    %rdx,-0x58(%rbp)
  403e0e:	48 8b bd 50 fe ff ff 	mov    -0x1b0(%rbp),%rdi
  403e15:	48 8b 8d 40 fe ff ff 	mov    -0x1c0(%rbp),%rcx
  403e1c:	48 8d 55 a0          	lea    -0x60(%rbp),%rdx
  403e20:	48 8b b5 30 fe ff ff 	mov    -0x1d0(%rbp),%rsi
  403e27:	48 8d 85 bd fd ff ff 	lea    -0x243(%rbp),%rax
  403e2e:	48 83 ec 08          	sub    $0x8,%rsp
  403e32:	6a 00                	pushq  $0x0
  403e34:	41 b9 00 00 00 00    	mov    $0x0,%r9d
  403e3a:	49 89 f8             	mov    %rdi,%r8
  403e3d:	48 89 c7             	mov    %rax,%rdi
  403e40:	e8 1b 0b 00 00       	callq  404960 <_ZN5Eigen8internal13gemm_pack_rhsIflNS0_22const_blas_data_mapperIflLi0EEELi4ELi0ELb0ELb0EEclEPfRKS3_llll>
  403e45:	48 83 c4 10          	add    $0x10,%rsp
  403e49:	48 8b 85 c0 fd ff ff 	mov    -0x240(%rbp),%rax
  403e50:	48 89 85 58 fe ff ff 	mov    %rax,-0x1a8(%rbp)
  403e57:	48 8b 85 d0 fd ff ff 	mov    -0x230(%rbp),%rax
  403e5e:	48 89 85 40 ff ff ff 	mov    %rax,-0xc0(%rbp)
  403e65:	48 8b 45 98          	mov    -0x68(%rbp),%rax
  403e69:	48 8d 55 90          	lea    -0x70(%rbp),%rdx
  403e6d:	48 89 95 48 ff ff ff 	mov    %rdx,-0xb8(%rbp)
  403e74:	48 8b 95 58 fe ff ff 	mov    -0x1a8(%rbp),%rdx
  403e7b:	48 89 95 50 ff ff ff 	mov    %rdx,-0xb0(%rbp)
  403e82:	48 8b 95 40 ff ff ff 	mov    -0xc0(%rbp),%rdx
  403e89:	48 89 95 58 ff ff ff 	mov    %rdx,-0xa8(%rbp)
  403e90:	48 8b 95 48 ff ff ff 	mov    -0xb8(%rbp),%rdx
  403e97:	48 8b 0a             	mov    (%rdx),%rcx
  403e9a:	48 8b 95 48 ff ff ff 	mov    -0xb8(%rbp),%rdx
  403ea1:	48 8b 52 08          	mov    0x8(%rdx),%rdx
  403ea5:	48 89 d6             	mov    %rdx,%rsi
  403ea8:	48 0f af b5 58 ff ff 	imul   -0xa8(%rbp),%rsi
  403eaf:	ff 
  403eb0:	48 8b 95 50 ff ff ff 	mov    -0xb0(%rbp),%rdx
  403eb7:	48 01 f2             	add    %rsi,%rdx
  403eba:	48 c1 e2 02          	shl    $0x2,%rdx
  403ebe:	48 01 ca             	add    %rcx,%rdx
  403ec1:	48 89 95 60 ff ff ff 	mov    %rdx,-0xa0(%rbp)
  403ec8:	48 89 85 68 ff ff ff 	mov    %rax,-0x98(%rbp)
  403ecf:	48 8b 85 60 ff ff ff 	mov    -0xa0(%rbp),%rax
  403ed6:	48 89 45 a0          	mov    %rax,-0x60(%rbp)
  403eda:	48 8b 85 68 ff ff ff 	mov    -0x98(%rbp),%rax
  403ee1:	48 89 45 a8          	mov    %rax,-0x58(%rbp)
  403ee5:	48 8b 45 a0          	mov    -0x60(%rbp),%rax
  403ee9:	48 8b 55 a8          	mov    -0x58(%rbp),%rdx
  403eed:	48 89 45 a0          	mov    %rax,-0x60(%rbp)
  403ef1:	48 89 55 a8          	mov    %rdx,-0x58(%rbp)
  403ef5:	8b bd 74 fd ff ff    	mov    -0x28c(%rbp),%edi
  403efb:	4c 8b 8d 40 fe ff ff 	mov    -0x1c0(%rbp),%r9
  403f02:	4c 8b 85 38 fe ff ff 	mov    -0x1c8(%rbp),%r8
  403f09:	48 8b 8d 30 fe ff ff 	mov    -0x1d0(%rbp),%rcx
  403f10:	48 8b 95 20 fe ff ff 	mov    -0x1e0(%rbp),%rdx
  403f17:	48 8d 75 a0          	lea    -0x60(%rbp),%rsi
  403f1b:	48 8d 85 be fd ff ff 	lea    -0x242(%rbp),%rax
  403f22:	48 83 ec 08          	sub    $0x8,%rsp
  403f26:	6a 00                	pushq  $0x0
  403f28:	6a 00                	pushq  $0x0
  403f2a:	6a ff                	pushq  $0xffffffffffffffff
  403f2c:	6a ff                	pushq  $0xffffffffffffffff
  403f2e:	ff b5 50 fe ff ff    	pushq  -0x1b0(%rbp)
  403f34:	89 bd 70 fd ff ff    	mov    %edi,-0x290(%rbp)
  403f3a:	f3 0f 10 85 70 fd ff 	movss  -0x290(%rbp),%xmm0
  403f41:	ff 
  403f42:	48 89 c7             	mov    %rax,%rdi
  403f45:	e8 f6 12 00 00       	callq  405240 <_ZN5Eigen8internal11gebp_kernelIfflNS0_16blas_data_mapperIflLi0ELi0EEELi8ELi4ELb0ELb0EEclERKS3_PKfS8_lllfllll>
  403f4a:	48 83 c4 30          	add    $0x30,%rsp
  403f4e:	48 8b 85 00 fe ff ff 	mov    -0x200(%rbp),%rax
  403f55:	48 01 85 d0 fd ff ff 	add    %rax,-0x230(%rbp)
  403f5c:	e9 61 fd ff ff       	jmpq   403cc2 <_ZN5Eigen8internal29general_matrix_matrix_productIlfLi0ELb0EfLi0ELb0ELi0EE3runElllPKflS4_lPflfRNS0_15level3_blockingIffEEPNS0_16GemmParallelInfoIlEE+0x668>
  403f61:	48 8b 85 f0 fd ff ff 	mov    -0x210(%rbp),%rax
  403f68:	48 01 85 c8 fd ff ff 	add    %rax,-0x238(%rbp)
  403f6f:	e9 d2 fb ff ff       	jmpq   403b46 <_ZN5Eigen8internal29general_matrix_matrix_productIlfLi0ELb0EfLi0ELb0ELi0EE3runElllPKflS4_lPflfRNS0_15level3_blockingIffEEPNS0_16GemmParallelInfoIlEE+0x4ec>
  403f74:	48 8b 85 f8 fd ff ff 	mov    -0x208(%rbp),%rax
  403f7b:	48 01 85 c0 fd ff ff 	add    %rax,-0x240(%rbp)
  403f82:	e9 64 fb ff ff       	jmpq   403aeb <_ZN5Eigen8internal29general_matrix_matrix_productIlfLi0ELb0EfLi0ELb0ELi0EE3runElllPKflS4_lPflfRNS0_15level3_blockingIffEEPNS0_16GemmParallelInfoIlEE+0x491>
  403f87:	48 8d 45 d0          	lea    -0x30(%rbp),%rax
  403f8b:	48 89 c7             	mov    %rax,%rdi
  403f8e:	e8 6b 04 00 00       	callq  4043fe <_ZN5Eigen8internal28aligned_stack_memory_handlerIfED1Ev>
  403f93:	48 8d 45 b0          	lea    -0x50(%rbp),%rax
  403f97:	48 89 c7             	mov    %rax,%rdi
  403f9a:	e8 5f 04 00 00       	callq  4043fe <_ZN5Eigen8internal28aligned_stack_memory_handlerIfED1Ev>
  403f9f:	90                   	nop
  403fa0:	48 8b 45 e8          	mov    -0x18(%rbp),%rax
  403fa4:	64 48 33 04 25 28 00 	xor    %fs:0x28,%rax
  403fab:	00 00 
  403fad:	74 32                	je     403fe1 <_ZN5Eigen8internal29general_matrix_matrix_productIlfLi0ELb0EfLi0ELb0ELi0EE3runElllPKflS4_lPflfRNS0_15level3_blockingIffEEPNS0_16GemmParallelInfoIlEE+0x987>
  403faf:	eb 2b                	jmp    403fdc <_ZN5Eigen8internal29general_matrix_matrix_productIlfLi0ELb0EfLi0ELb0ELi0EE3runElllPKflS4_lPflfRNS0_15level3_blockingIffEEPNS0_16GemmParallelInfoIlEE+0x982>
  403fb1:	48 89 c3             	mov    %rax,%rbx
  403fb4:	48 8d 45 d0          	lea    -0x30(%rbp),%rax
  403fb8:	48 89 c7             	mov    %rax,%rdi
  403fbb:	e8 3e 04 00 00       	callq  4043fe <_ZN5Eigen8internal28aligned_stack_memory_handlerIfED1Ev>
  403fc0:	eb 03                	jmp    403fc5 <_ZN5Eigen8internal29general_matrix_matrix_productIlfLi0ELb0EfLi0ELb0ELi0EE3runElllPKflS4_lPflfRNS0_15level3_blockingIffEEPNS0_16GemmParallelInfoIlEE+0x96b>
  403fc2:	48 89 c3             	mov    %rax,%rbx
  403fc5:	48 8d 45 b0          	lea    -0x50(%rbp),%rax
  403fc9:	48 89 c7             	mov    %rax,%rdi
  403fcc:	e8 2d 04 00 00       	callq  4043fe <_ZN5Eigen8internal28aligned_stack_memory_handlerIfED1Ev>
  403fd1:	48 89 d8             	mov    %rbx,%rax
  403fd4:	48 89 c7             	mov    %rax,%rdi
  403fd7:	e8 04 cb ff ff       	callq  400ae0 <_Unwind_Resume@plt>
  403fdc:	e8 9f ca ff ff       	callq  400a80 <__stack_chk_fail@plt>
  403fe1:	48 8b 5d f8          	mov    -0x8(%rbp),%rbx
  403fe5:	c9                   	leaveq 
  403fe6:	c3                   	retq   
  403fe7:	90                   	nop

0000000000403fe8 <_ZNK5Eigen15PlainObjectBaseINS_6MatrixIfLi32ELi32ELi0ELi32ELi32EEEE8coeffRefEll>:
  403fe8:	55                   	push   %rbp
  403fe9:	48 89 e5             	mov    %rsp,%rbp
  403fec:	53                   	push   %rbx
  403fed:	48 83 ec 28          	sub    $0x28,%rsp
  403ff1:	48 89 7d e8          	mov    %rdi,-0x18(%rbp)
  403ff5:	48 89 75 e0          	mov    %rsi,-0x20(%rbp)
  403ff9:	48 89 55 d8          	mov    %rdx,-0x28(%rbp)
  403ffd:	48 8b 45 e8          	mov    -0x18(%rbp),%rax
  404001:	48 89 c7             	mov    %rax,%rdi
  404004:	e8 bd e9 ff ff       	callq  4029c6 <_ZNK5Eigen12DenseStorageIfLi1024ELi32ELi32ELi0EE4dataEv>
  404009:	48 89 c3             	mov    %rax,%rbx
  40400c:	e8 8d dc ff ff       	callq  401c9e <_ZN5Eigen12DenseStorageIfLi1024ELi32ELi32ELi0EE4rowsEv>
  404011:	48 0f af 45 d8       	imul   -0x28(%rbp),%rax
  404016:	48 89 c2             	mov    %rax,%rdx
  404019:	48 8b 45 e0          	mov    -0x20(%rbp),%rax
  40401d:	48 01 d0             	add    %rdx,%rax
  404020:	48 c1 e0 02          	shl    $0x2,%rax
  404024:	48 01 d8             	add    %rbx,%rax
  404027:	48 83 c4 28          	add    $0x28,%rsp
  40402b:	5b                   	pop    %rbx
  40402c:	5d                   	pop    %rbp
  40402d:	c3                   	retq   

000000000040402e <_ZN5Eigen15PlainObjectBaseINS_6MatrixIfLi32ELi32ELi0ELi32ELi32EEEE8coeffRefEll>:
  40402e:	55                   	push   %rbp
  40402f:	48 89 e5             	mov    %rsp,%rbp
  404032:	53                   	push   %rbx
  404033:	48 83 ec 28          	sub    $0x28,%rsp
  404037:	48 89 7d e8          	mov    %rdi,-0x18(%rbp)
  40403b:	48 89 75 e0          	mov    %rsi,-0x20(%rbp)
  40403f:	48 89 55 d8          	mov    %rdx,-0x28(%rbp)
  404043:	48 8b 45 e8          	mov    -0x18(%rbp),%rax
  404047:	48 89 c7             	mov    %rax,%rdi
  40404a:	e8 cd 54 00 00       	callq  40951c <_ZN5Eigen12DenseStorageIfLi1024ELi32ELi32ELi0EE4dataEv>
  40404f:	48 89 c3             	mov    %rax,%rbx
  404052:	e8 47 dc ff ff       	callq  401c9e <_ZN5Eigen12DenseStorageIfLi1024ELi32ELi32ELi0EE4rowsEv>
