
test_david:     file format elf64-x86-64


Disassembly of section .interp:

0000000000400238 <.interp>:
  400238:	2f                   	(bad)  
  400239:	6c                   	insb   (%dx),%es:(%rdi)
  40023a:	69 62 36 34 2f 6c 64 	imul   $0x646c2f34,0x36(%rdx),%esp
  400241:	2d 6c 69 6e 75       	sub    $0x756e696c,%eax
  400246:	78 2d                	js     400275 <_init-0x28b>
  400248:	78 38                	js     400282 <_init-0x27e>
  40024a:	36 2d 36 34 2e 73    	ss sub $0x732e3436,%eax
  400250:	6f                   	outsl  %ds:(%rsi),(%dx)
  400251:	2e 32 00             	xor    %cs:(%rax),%al

Disassembly of section .note.ABI-tag:

0000000000400254 <.note.ABI-tag>:
  400254:	04 00                	add    $0x0,%al
  400256:	00 00                	add    %al,(%rax)
  400258:	10 00                	adc    %al,(%rax)
  40025a:	00 00                	add    %al,(%rax)
  40025c:	01 00                	add    %eax,(%rax)
  40025e:	00 00                	add    %al,(%rax)
  400260:	47                   	rex.RXB
  400261:	4e 55                	rex.WRX push %rbp
  400263:	00 00                	add    %al,(%rax)
  400265:	00 00                	add    %al,(%rax)
  400267:	00 02                	add    %al,(%rdx)
  400269:	00 00                	add    %al,(%rax)
  40026b:	00 06                	add    %al,(%rsi)
  40026d:	00 00                	add    %al,(%rax)
  40026f:	00 20                	add    %ah,(%rax)
  400271:	00 00                	add    %al,(%rax)
	...

Disassembly of section .note.gnu.build-id:

0000000000400274 <.note.gnu.build-id>:
  400274:	04 00                	add    $0x0,%al
  400276:	00 00                	add    %al,(%rax)
  400278:	14 00                	adc    $0x0,%al
  40027a:	00 00                	add    %al,(%rax)
  40027c:	03 00                	add    (%rax),%eax
  40027e:	00 00                	add    %al,(%rax)
  400280:	47                   	rex.RXB
  400281:	4e 55                	rex.WRX push %rbp
  400283:	00 1e                	add    %bl,(%rsi)
  400285:	a7                   	cmpsl  %es:(%rdi),%ds:(%rsi)
  400286:	8a 58 77             	mov    0x77(%rax),%bl
  400289:	ca 06 2d             	lret   $0x2d06
  40028c:	91                   	xchg   %eax,%ecx
  40028d:	59                   	pop    %rcx
  40028e:	10 39                	adc    %bh,(%rcx)
  400290:	51                   	push   %rcx
  400291:	14 e6                	adc    $0xe6,%al
  400293:	b6 69                	mov    $0x69,%dh
  400295:	f2                   	repnz
  400296:	f3                   	repz
  400297:	6b                   	.byte 0x6b

Disassembly of section .gnu.hash:

0000000000400298 <.gnu.hash>:
  400298:	01 00                	add    %eax,(%rax)
  40029a:	00 00                	add    %al,(%rax)
  40029c:	01 00                	add    %eax,(%rax)
  40029e:	00 00                	add    %al,(%rax)
  4002a0:	01 00                	add    %eax,(%rax)
	...

Disassembly of section .dynsym:

00000000004002b8 <.dynsym>:
	...
  4002d0:	16                   	(bad)  
  4002d1:	00 00                	add    %al,(%rax)
  4002d3:	00 12                	add    %dl,(%rdx)
	...
  4002e5:	00 00                	add    %al,(%rax)
  4002e7:	00 27                	add    %ah,(%rdi)
  4002e9:	00 00                	add    %al,(%rax)
  4002eb:	00 12                	add    %dl,(%rdx)
	...
  4002fd:	00 00                	add    %al,(%rax)
  4002ff:	00 35 00 00 00 12    	add    %dh,0x12000000(%rip)        # 12400305 <_end+0x11ded29d>
	...
  400315:	00 00                	add    %al,(%rax)
  400317:	00 0b                	add    %cl,(%rbx)
  400319:	00 00                	add    %al,(%rax)
  40031b:	00 12                	add    %dl,(%rdx)
	...
  40032d:	00 00                	add    %al,(%rax)
  40032f:	00 47 00             	add    %al,0x0(%rdi)
  400332:	00 00                	add    %al,(%rax)
  400334:	20 00                	and    %al,(%rax)
	...
  400346:	00 00                	add    %al,(%rax)
  400348:	11 00                	adc    %eax,(%rax)
  40034a:	00 00                	add    %al,(%rax)
  40034c:	12 00                	adc    (%rax),%al
	...
  40035e:	00 00                	add    %al,(%rax)
  400360:	2e 00 00             	add    %al,%cs:(%rax)
  400363:	00 12                	add    %dl,(%rdx)
	...
  400375:	00 00                	add    %al,(%rax)
  400377:	00 0c 00             	add    %cl,(%rax,%rax,1)
  40037a:	00 00                	add    %al,(%rax)
  40037c:	12 00                	adc    (%rax),%al
	...

Disassembly of section .dynstr:

0000000000400390 <.dynstr>:
  400390:	00 6c 69 62          	add    %ch,0x62(%rcx,%rbp,2)
  400394:	63 2e                	movslq (%rsi),%ebp
  400396:	73 6f                	jae    400407 <_init-0xf9>
  400398:	2e 36 00 73 72       	cs add %dh,%ss:0x72(%rbx)
  40039d:	61                   	(bad)  
  40039e:	6e                   	outsb  %ds:(%rsi),(%dx)
  40039f:	64 00 74 69 6d       	add    %dh,%fs:0x6d(%rcx,%rbp,2)
  4003a4:	65 00 5f 5f          	add    %bl,%gs:0x5f(%rdi)
  4003a8:	73 74                	jae    40041e <_init-0xe2>
  4003aa:	61                   	(bad)  
  4003ab:	63 6b 5f             	movslq 0x5f(%rbx),%ebp
  4003ae:	63 68 6b             	movslq 0x6b(%rax),%ebp
  4003b1:	5f                   	pop    %rdi
  4003b2:	66 61                	data16 (bad) 
  4003b4:	69 6c 00 70 72 69 6e 	imul   $0x746e6972,0x70(%rax,%rax,1),%ebp
  4003bb:	74 
  4003bc:	66 00 6d 61          	data16 add %ch,0x61(%rbp)
  4003c0:	6c                   	insb   (%dx),%es:(%rdi)
  4003c1:	6c                   	insb   (%dx),%es:(%rdi)
  4003c2:	6f                   	outsl  %ds:(%rsi),(%dx)
  4003c3:	63 00                	movslq (%rax),%eax
  4003c5:	5f                   	pop    %rdi
  4003c6:	5f                   	pop    %rdi
  4003c7:	6c                   	insb   (%dx),%es:(%rdi)
  4003c8:	69 62 63 5f 73 74 61 	imul   $0x6174735f,0x63(%rdx),%esp
  4003cf:	72 74                	jb     400445 <_init-0xbb>
  4003d1:	5f                   	pop    %rdi
  4003d2:	6d                   	insl   (%dx),%es:(%rdi)
  4003d3:	61                   	(bad)  
  4003d4:	69 6e 00 5f 5f 67 6d 	imul   $0x6d675f5f,0x0(%rsi),%ebp
  4003db:	6f                   	outsl  %ds:(%rsi),(%dx)
  4003dc:	6e                   	outsb  %ds:(%rsi),(%dx)
  4003dd:	5f                   	pop    %rdi
  4003de:	73 74                	jae    400454 <_init-0xac>
  4003e0:	61                   	(bad)  
  4003e1:	72 74                	jb     400457 <_init-0xa9>
  4003e3:	5f                   	pop    %rdi
  4003e4:	5f                   	pop    %rdi
  4003e5:	00 47 4c             	add    %al,0x4c(%rdi)
  4003e8:	49                   	rex.WB
  4003e9:	42                   	rex.X
  4003ea:	43 5f                	rex.XB pop %r15
  4003ec:	32 2e                	xor    (%rsi),%ch
  4003ee:	32 2e                	xor    (%rsi),%ch
  4003f0:	35 00 47 4c 49       	xor    $0x494c4700,%eax
  4003f5:	42                   	rex.X
  4003f6:	43 5f                	rex.XB pop %r15
  4003f8:	32 2e                	xor    (%rsi),%ch
  4003fa:	34 00                	xor    $0x0,%al

Disassembly of section .gnu.version:

00000000004003fc <.gnu.version>:
  4003fc:	00 00                	add    %al,(%rax)
  4003fe:	02 00                	add    (%rax),%al
  400400:	03 00                	add    (%rax),%eax
  400402:	03 00                	add    (%rax),%eax
  400404:	03 00                	add    (%rax),%eax
  400406:	00 00                	add    %al,(%rax)
  400408:	03 00                	add    (%rax),%eax
  40040a:	03 00                	add    (%rax),%eax
  40040c:	03 00                	add    (%rax),%eax

Disassembly of section .gnu.version_r:

0000000000400410 <.gnu.version_r>:
  400410:	01 00                	add    %eax,(%rax)
  400412:	02 00                	add    (%rax),%al
  400414:	01 00                	add    %eax,(%rax)
  400416:	00 00                	add    %al,(%rax)
  400418:	10 00                	adc    %al,(%rax)
  40041a:	00 00                	add    %al,(%rax)
  40041c:	00 00                	add    %al,(%rax)
  40041e:	00 00                	add    %al,(%rax)
  400420:	75 1a                	jne    40043c <_init-0xc4>
  400422:	69 09 00 00 03 00    	imul   $0x30000,(%rcx),%ecx
  400428:	56                   	push   %rsi
  400429:	00 00                	add    %al,(%rax)
  40042b:	00 10                	add    %dl,(%rax)
  40042d:	00 00                	add    %al,(%rax)
  40042f:	00 14 69             	add    %dl,(%rcx,%rbp,2)
  400432:	69 0d 00 00 02 00 62 	imul   $0x62,0x20000(%rip),%ecx        # 42043c <__FRAME_END__+0xd674>
  400439:	00 00 00 
  40043c:	00 00                	add    %al,(%rax)
	...

Disassembly of section .rela.dyn:

0000000000400440 <.rela.dyn>:
  400440:	f8                   	clc    
  400441:	2f                   	(bad)  
  400442:	61                   	(bad)  
  400443:	00 00                	add    %al,(%rax)
  400445:	00 00                	add    %al,(%rax)
  400447:	00 06                	add    %al,(%rsi)
  400449:	00 00                	add    %al,(%rax)
  40044b:	00 05 00 00 00 00    	add    %al,0x0(%rip)        # 400451 <_init-0xaf>
  400451:	00 00                	add    %al,(%rax)
  400453:	00 00                	add    %al,(%rax)
  400455:	00 00                	add    %al,(%rax)
	...

Disassembly of section .rela.plt:

0000000000400458 <.rela.plt>:
  400458:	18 30                	sbb    %dh,(%rax)
  40045a:	61                   	(bad)  
  40045b:	00 00                	add    %al,(%rax)
  40045d:	00 00                	add    %al,(%rax)
  40045f:	00 07                	add    %al,(%rdi)
  400461:	00 00                	add    %al,(%rax)
  400463:	00 01                	add    %al,(%rcx)
	...
  40046d:	00 00                	add    %al,(%rax)
  40046f:	00 20                	add    %ah,(%rax)
  400471:	30 61 00             	xor    %ah,0x0(%rcx)
  400474:	00 00                	add    %al,(%rax)
  400476:	00 00                	add    %al,(%rax)
  400478:	07                   	(bad)  
  400479:	00 00                	add    %al,(%rax)
  40047b:	00 02                	add    %al,(%rdx)
	...
  400485:	00 00                	add    %al,(%rax)
  400487:	00 28                	add    %ch,(%rax)
  400489:	30 61 00             	xor    %ah,0x0(%rcx)
  40048c:	00 00                	add    %al,(%rax)
  40048e:	00 00                	add    %al,(%rax)
  400490:	07                   	(bad)  
  400491:	00 00                	add    %al,(%rax)
  400493:	00 03                	add    %al,(%rbx)
	...
  40049d:	00 00                	add    %al,(%rax)
  40049f:	00 30                	add    %dh,(%rax)
  4004a1:	30 61 00             	xor    %ah,0x0(%rcx)
  4004a4:	00 00                	add    %al,(%rax)
  4004a6:	00 00                	add    %al,(%rax)
  4004a8:	07                   	(bad)  
  4004a9:	00 00                	add    %al,(%rax)
  4004ab:	00 04 00             	add    %al,(%rax,%rax,1)
	...
  4004b6:	00 00                	add    %al,(%rax)
  4004b8:	38 30                	cmp    %dh,(%rax)
  4004ba:	61                   	(bad)  
  4004bb:	00 00                	add    %al,(%rax)
  4004bd:	00 00                	add    %al,(%rax)
  4004bf:	00 07                	add    %al,(%rdi)
  4004c1:	00 00                	add    %al,(%rax)
  4004c3:	00 06                	add    %al,(%rsi)
	...
  4004cd:	00 00                	add    %al,(%rax)
  4004cf:	00 40 30             	add    %al,0x30(%rax)
  4004d2:	61                   	(bad)  
  4004d3:	00 00                	add    %al,(%rax)
  4004d5:	00 00                	add    %al,(%rax)
  4004d7:	00 07                	add    %al,(%rdi)
  4004d9:	00 00                	add    %al,(%rax)
  4004db:	00 07                	add    %al,(%rdi)
	...
  4004e5:	00 00                	add    %al,(%rax)
  4004e7:	00 48 30             	add    %cl,0x30(%rax)
  4004ea:	61                   	(bad)  
  4004eb:	00 00                	add    %al,(%rax)
  4004ed:	00 00                	add    %al,(%rax)
  4004ef:	00 07                	add    %al,(%rdi)
  4004f1:	00 00                	add    %al,(%rax)
  4004f3:	00 08                	add    %cl,(%rax)
	...

Disassembly of section .init:

0000000000400500 <_init>:
  400500:	48 83 ec 08          	sub    $0x8,%rsp
  400504:	48 8b 05 ed 2a 21 00 	mov    0x212aed(%rip),%rax        # 612ff8 <_DYNAMIC+0x1d0>
  40050b:	48 85 c0             	test   %rax,%rax
  40050e:	74 05                	je     400515 <_init+0x15>
  400510:	e8 8b 00 00 00       	callq  4005a0 <rand@plt+0x10>
  400515:	48 83 c4 08          	add    $0x8,%rsp
  400519:	c3                   	retq   

Disassembly of section .plt:

0000000000400520 <__stack_chk_fail@plt-0x10>:
  400520:	ff 35 e2 2a 21 00    	pushq  0x212ae2(%rip)        # 613008 <_GLOBAL_OFFSET_TABLE_+0x8>
  400526:	ff 25 e4 2a 21 00    	jmpq   *0x212ae4(%rip)        # 613010 <_GLOBAL_OFFSET_TABLE_+0x10>
  40052c:	0f 1f 40 00          	nopl   0x0(%rax)

0000000000400530 <__stack_chk_fail@plt>:
  400530:	ff 25 e2 2a 21 00    	jmpq   *0x212ae2(%rip)        # 613018 <_GLOBAL_OFFSET_TABLE_+0x18>
  400536:	68 00 00 00 00       	pushq  $0x0
  40053b:	e9 e0 ff ff ff       	jmpq   400520 <_init+0x20>

0000000000400540 <printf@plt>:
  400540:	ff 25 da 2a 21 00    	jmpq   *0x212ada(%rip)        # 613020 <_GLOBAL_OFFSET_TABLE_+0x20>
  400546:	68 01 00 00 00       	pushq  $0x1
  40054b:	e9 d0 ff ff ff       	jmpq   400520 <_init+0x20>

0000000000400550 <__libc_start_main@plt>:
  400550:	ff 25 d2 2a 21 00    	jmpq   *0x212ad2(%rip)        # 613028 <_GLOBAL_OFFSET_TABLE_+0x28>
  400556:	68 02 00 00 00       	pushq  $0x2
  40055b:	e9 c0 ff ff ff       	jmpq   400520 <_init+0x20>

0000000000400560 <srand@plt>:
  400560:	ff 25 ca 2a 21 00    	jmpq   *0x212aca(%rip)        # 613030 <_GLOBAL_OFFSET_TABLE_+0x30>
  400566:	68 03 00 00 00       	pushq  $0x3
  40056b:	e9 b0 ff ff ff       	jmpq   400520 <_init+0x20>

0000000000400570 <time@plt>:
  400570:	ff 25 c2 2a 21 00    	jmpq   *0x212ac2(%rip)        # 613038 <_GLOBAL_OFFSET_TABLE_+0x38>
  400576:	68 04 00 00 00       	pushq  $0x4
  40057b:	e9 a0 ff ff ff       	jmpq   400520 <_init+0x20>

0000000000400580 <malloc@plt>:
  400580:	ff 25 ba 2a 21 00    	jmpq   *0x212aba(%rip)        # 613040 <_GLOBAL_OFFSET_TABLE_+0x40>
  400586:	68 05 00 00 00       	pushq  $0x5
  40058b:	e9 90 ff ff ff       	jmpq   400520 <_init+0x20>

0000000000400590 <rand@plt>:
  400590:	ff 25 b2 2a 21 00    	jmpq   *0x212ab2(%rip)        # 613048 <_GLOBAL_OFFSET_TABLE_+0x48>
  400596:	68 06 00 00 00       	pushq  $0x6
  40059b:	e9 80 ff ff ff       	jmpq   400520 <_init+0x20>

Disassembly of section .plt.got:

00000000004005a0 <.plt.got>:
  4005a0:	ff 25 52 2a 21 00    	jmpq   *0x212a52(%rip)        # 612ff8 <_DYNAMIC+0x1d0>
  4005a6:	66 90                	xchg   %ax,%ax

Disassembly of section .text:

00000000004005b0 <_start>:
  4005b0:	31 ed                	xor    %ebp,%ebp
  4005b2:	49 89 d1             	mov    %rdx,%r9
  4005b5:	5e                   	pop    %rsi
  4005b6:	48 89 e2             	mov    %rsp,%rdx
  4005b9:	48 83 e4 f0          	and    $0xfffffffffffffff0,%rsp
  4005bd:	50                   	push   %rax
  4005be:	54                   	push   %rsp
  4005bf:	49 c7 c0 a0 2b 41 00 	mov    $0x412ba0,%r8
  4005c6:	48 c7 c1 30 2b 41 00 	mov    $0x412b30,%rcx
  4005cd:	48 c7 c7 c8 08 40 00 	mov    $0x4008c8,%rdi
  4005d4:	e8 77 ff ff ff       	callq  400550 <__libc_start_main@plt>
  4005d9:	f4                   	hlt    
  4005da:	66 0f 1f 44 00 00    	nopw   0x0(%rax,%rax,1)

00000000004005e0 <deregister_tm_clones>:
  4005e0:	b8 67 30 61 00       	mov    $0x613067,%eax
  4005e5:	55                   	push   %rbp
  4005e6:	48 2d 60 30 61 00    	sub    $0x613060,%rax
  4005ec:	48 83 f8 0e          	cmp    $0xe,%rax
  4005f0:	48 89 e5             	mov    %rsp,%rbp
  4005f3:	76 1b                	jbe    400610 <deregister_tm_clones+0x30>
  4005f5:	b8 00 00 00 00       	mov    $0x0,%eax
  4005fa:	48 85 c0             	test   %rax,%rax
  4005fd:	74 11                	je     400610 <deregister_tm_clones+0x30>
  4005ff:	5d                   	pop    %rbp
  400600:	bf 60 30 61 00       	mov    $0x613060,%edi
  400605:	ff e0                	jmpq   *%rax
  400607:	66 0f 1f 84 00 00 00 	nopw   0x0(%rax,%rax,1)
  40060e:	00 00 
  400610:	5d                   	pop    %rbp
  400611:	c3                   	retq   
  400612:	0f 1f 40 00          	nopl   0x0(%rax)
  400616:	66 2e 0f 1f 84 00 00 	nopw   %cs:0x0(%rax,%rax,1)
  40061d:	00 00 00 

0000000000400620 <register_tm_clones>:
  400620:	be 60 30 61 00       	mov    $0x613060,%esi
  400625:	55                   	push   %rbp
  400626:	48 81 ee 60 30 61 00 	sub    $0x613060,%rsi
  40062d:	48 c1 fe 03          	sar    $0x3,%rsi
  400631:	48 89 e5             	mov    %rsp,%rbp
  400634:	48 89 f0             	mov    %rsi,%rax
  400637:	48 c1 e8 3f          	shr    $0x3f,%rax
  40063b:	48 01 c6             	add    %rax,%rsi
  40063e:	48 d1 fe             	sar    %rsi
  400641:	74 15                	je     400658 <register_tm_clones+0x38>
  400643:	b8 00 00 00 00       	mov    $0x0,%eax
  400648:	48 85 c0             	test   %rax,%rax
  40064b:	74 0b                	je     400658 <register_tm_clones+0x38>
  40064d:	5d                   	pop    %rbp
  40064e:	bf 60 30 61 00       	mov    $0x613060,%edi
  400653:	ff e0                	jmpq   *%rax
  400655:	0f 1f 00             	nopl   (%rax)
  400658:	5d                   	pop    %rbp
  400659:	c3                   	retq   
  40065a:	66 0f 1f 44 00 00    	nopw   0x0(%rax,%rax,1)

0000000000400660 <__do_global_dtors_aux>:
  400660:	80 3d f9 29 21 00 00 	cmpb   $0x0,0x2129f9(%rip)        # 613060 <__TMC_END__>
  400667:	75 11                	jne    40067a <__do_global_dtors_aux+0x1a>
  400669:	55                   	push   %rbp
  40066a:	48 89 e5             	mov    %rsp,%rbp
  40066d:	e8 6e ff ff ff       	callq  4005e0 <deregister_tm_clones>
  400672:	5d                   	pop    %rbp
  400673:	c6 05 e6 29 21 00 01 	movb   $0x1,0x2129e6(%rip)        # 613060 <__TMC_END__>
  40067a:	f3 c3                	repz retq 
  40067c:	0f 1f 40 00          	nopl   0x0(%rax)

0000000000400680 <frame_dummy>:
  400680:	bf 20 2e 61 00       	mov    $0x612e20,%edi
  400685:	48 83 3f 00          	cmpq   $0x0,(%rdi)
  400689:	75 05                	jne    400690 <frame_dummy+0x10>
  40068b:	eb 93                	jmp    400620 <register_tm_clones>
  40068d:	0f 1f 00             	nopl   (%rax)
  400690:	b8 00 00 00 00       	mov    $0x0,%eax
  400695:	48 85 c0             	test   %rax,%rax
  400698:	74 f1                	je     40068b <frame_dummy+0xb>
  40069a:	55                   	push   %rbp
  40069b:	48 89 e5             	mov    %rsp,%rbp
  40069e:	ff d0                	callq  *%rax
  4006a0:	5d                   	pop    %rbp
  4006a1:	e9 7a ff ff ff       	jmpq   400620 <register_tm_clones>

00000000004006a6 <init>:
  4006a6:	55                   	push   %rbp
  4006a7:	48 89 e5             	mov    %rsp,%rbp
  4006aa:	53                   	push   %rbx
  4006ab:	48 83 ec 28          	sub    $0x28,%rsp
  4006af:	48 89 7d d8          	mov    %rdi,-0x28(%rbp)
  4006b3:	bf 00 00 00 00       	mov    $0x0,%edi
  4006b8:	e8 b3 fe ff ff       	callq  400570 <time@plt>
  4006bd:	89 c7                	mov    %eax,%edi
  4006bf:	e8 9c fe ff ff       	callq  400560 <srand@plt>
  4006c4:	c7 45 ec 00 00 00 00 	movl   $0x0,-0x14(%rbp)
  4006cb:	eb 51                	jmp    40071e <init+0x78>
  4006cd:	c7 45 e8 00 00 00 00 	movl   $0x0,-0x18(%rbp)
  4006d4:	eb 3b                	jmp    400711 <init+0x6b>
  4006d6:	8b 45 e8             	mov    -0x18(%rbp),%eax
  4006d9:	48 98                	cltq   
  4006db:	48 c1 e0 04          	shl    $0x4,%rax
  4006df:	48 89 c2             	mov    %rax,%rdx
  4006e2:	48 8b 45 d8          	mov    -0x28(%rbp),%rax
  4006e6:	48 8d 1c 02          	lea    (%rdx,%rax,1),%rbx
  4006ea:	e8 a1 fe ff ff       	callq  400590 <rand@plt>
  4006ef:	66 0f ef c0          	pxor   %xmm0,%xmm0
  4006f3:	f3 0f 2a c0          	cvtsi2ss %eax,%xmm0
  4006f7:	f3 0f 10 0d e1 24 01 	movss  0x124e1(%rip),%xmm1        # 412be0 <_IO_stdin_used+0x30>
  4006fe:	00 
  4006ff:	f3 0f 5e c1          	divss  %xmm1,%xmm0
  400703:	8b 45 ec             	mov    -0x14(%rbp),%eax
  400706:	48 98                	cltq   
  400708:	f3 0f 11 04 83       	movss  %xmm0,(%rbx,%rax,4)
  40070d:	83 45 e8 01          	addl   $0x1,-0x18(%rbp)
  400711:	81 7d e8 c7 00 00 00 	cmpl   $0xc7,-0x18(%rbp)
  400718:	7e bc                	jle    4006d6 <init+0x30>
  40071a:	83 45 ec 01          	addl   $0x1,-0x14(%rbp)
  40071e:	83 7d ec 03          	cmpl   $0x3,-0x14(%rbp)
  400722:	7e a9                	jle    4006cd <init+0x27>
  400724:	90                   	nop
  400725:	48 83 c4 28          	add    $0x28,%rsp
  400729:	5b                   	pop    %rbx
  40072a:	5d                   	pop    %rbp
  40072b:	c3                   	retq   

000000000040072c <init_accum>:
  40072c:	55                   	push   %rbp
  40072d:	48 89 e5             	mov    %rsp,%rbp
  400730:	48 89 7d e8          	mov    %rdi,-0x18(%rbp)
  400734:	c7 45 fc 00 00 00 00 	movl   $0x0,-0x4(%rbp)
  40073b:	eb 20                	jmp    40075d <init_accum+0x31>
  40073d:	8b 45 fc             	mov    -0x4(%rbp),%eax
  400740:	48 98                	cltq   
  400742:	48 8d 14 85 00 00 00 	lea    0x0(,%rax,4),%rdx
  400749:	00 
  40074a:	48 8b 45 e8          	mov    -0x18(%rbp),%rax
  40074e:	48 01 d0             	add    %rdx,%rax
  400751:	66 0f ef c0          	pxor   %xmm0,%xmm0
  400755:	f3 0f 11 00          	movss  %xmm0,(%rax)
  400759:	83 45 fc 01          	addl   $0x1,-0x4(%rbp)
  40075d:	83 7d fc 03          	cmpl   $0x3,-0x4(%rbp)
  400761:	7e da                	jle    40073d <init_accum+0x11>
  400763:	90                   	nop
  400764:	5d                   	pop    %rbp
  400765:	c3                   	retq   

0000000000400766 <init_cache_miss_array>:
  400766:	55                   	push   %rbp
  400767:	48 89 e5             	mov    %rsp,%rbp
  40076a:	53                   	push   %rbx
  40076b:	48 83 ec 28          	sub    $0x28,%rsp
  40076f:	48 89 7d d8          	mov    %rdi,-0x28(%rbp)
  400773:	bf 00 80 07 00       	mov    $0x78000,%edi
  400778:	e8 03 fe ff ff       	callq  400580 <malloc@plt>
  40077d:	48 89 45 d8          	mov    %rax,-0x28(%rbp)
  400781:	bf 00 00 0f 00       	mov    $0xf0000,%edi
  400786:	e8 f5 fd ff ff       	callq  400580 <malloc@plt>
  40078b:	48 89 c2             	mov    %rax,%rdx
  40078e:	48 8b 45 d8          	mov    -0x28(%rbp),%rax
  400792:	48 89 10             	mov    %rdx,(%rax)
  400795:	c7 45 e4 00 00 00 00 	movl   $0x0,-0x1c(%rbp)
  40079c:	eb 2f                	jmp    4007cd <init_cache_miss_array+0x67>
  40079e:	8b 45 e4             	mov    -0x1c(%rbp),%eax
  4007a1:	48 98                	cltq   
  4007a3:	48 8d 14 c5 00 00 00 	lea    0x0(,%rax,8),%rdx
  4007aa:	00 
  4007ab:	48 8b 45 d8          	mov    -0x28(%rbp),%rax
  4007af:	48 01 c2             	add    %rax,%rdx
  4007b2:	48 8b 45 d8          	mov    -0x28(%rbp),%rax
  4007b6:	48 8b 00             	mov    (%rax),%rax
  4007b9:	8b 4d e4             	mov    -0x1c(%rbp),%ecx
  4007bc:	48 63 c9             	movslq %ecx,%rcx
  4007bf:	48 c1 e1 04          	shl    $0x4,%rcx
  4007c3:	48 01 c8             	add    %rcx,%rax
  4007c6:	48 89 02             	mov    %rax,(%rdx)
  4007c9:	83 45 e4 01          	addl   $0x1,-0x1c(%rbp)
  4007cd:	81 7d e4 ff ef 00 00 	cmpl   $0xefff,-0x1c(%rbp)
  4007d4:	7e c8                	jle    40079e <init_cache_miss_array+0x38>
  4007d6:	c7 45 ec 00 00 00 00 	movl   $0x0,-0x14(%rbp)
  4007dd:	eb 58                	jmp    400837 <init_cache_miss_array+0xd1>
  4007df:	c7 45 e8 00 00 00 00 	movl   $0x0,-0x18(%rbp)
  4007e6:	eb 45                	jmp    40082d <init_cache_miss_array+0xc7>
  4007e8:	8b 45 ec             	mov    -0x14(%rbp),%eax
  4007eb:	48 98                	cltq   
  4007ed:	48 c1 e0 0d          	shl    $0xd,%rax
  4007f1:	48 89 c2             	mov    %rax,%rdx
  4007f4:	48 8b 45 d8          	mov    -0x28(%rbp),%rax
  4007f8:	48 01 d0             	add    %rdx,%rax
  4007fb:	48 8b 00             	mov    (%rax),%rax
  4007fe:	8b 55 e8             	mov    -0x18(%rbp),%edx
  400801:	48 63 d2             	movslq %edx,%rdx
  400804:	48 c1 e2 02          	shl    $0x2,%rdx
  400808:	48 8d 1c 10          	lea    (%rax,%rdx,1),%rbx
  40080c:	e8 7f fd ff ff       	callq  400590 <rand@plt>
  400811:	66 0f ef c0          	pxor   %xmm0,%xmm0
  400815:	f3 0f 2a c0          	cvtsi2ss %eax,%xmm0
  400819:	f3 0f 10 0d bf 23 01 	movss  0x123bf(%rip),%xmm1        # 412be0 <_IO_stdin_used+0x30>
  400820:	00 
  400821:	f3 0f 5e c1          	divss  %xmm1,%xmm0
  400825:	f3 0f 11 03          	movss  %xmm0,(%rbx)
  400829:	83 45 e8 01          	addl   $0x1,-0x18(%rbp)
  40082d:	83 7d e8 03          	cmpl   $0x3,-0x18(%rbp)
  400831:	7e b5                	jle    4007e8 <init_cache_miss_array+0x82>
  400833:	83 45 ec 01          	addl   $0x1,-0x14(%rbp)
  400837:	83 7d ec 3b          	cmpl   $0x3b,-0x14(%rbp)
  40083b:	7e a2                	jle    4007df <init_cache_miss_array+0x79>
  40083d:	90                   	nop
  40083e:	48 83 c4 28          	add    $0x28,%rsp
  400842:	5b                   	pop    %rbx
  400843:	5d                   	pop    %rbp
  400844:	c3                   	retq   

0000000000400845 <init_branch_miss_array>:
  400845:	55                   	push   %rbp
  400846:	48 89 e5             	mov    %rsp,%rbp
  400849:	53                   	push   %rbx
  40084a:	48 83 ec 28          	sub    $0x28,%rsp
  40084e:	48 89 7d d8          	mov    %rdi,-0x28(%rbp)
  400852:	bf 00 00 00 00       	mov    $0x0,%edi
  400857:	e8 14 fd ff ff       	callq  400570 <time@plt>
  40085c:	89 c7                	mov    %eax,%edi
  40085e:	e8 fd fc ff ff       	callq  400560 <srand@plt>
  400863:	c7 45 ec 00 00 00 00 	movl   $0x0,-0x14(%rbp)
  40086a:	eb 4e                	jmp    4008ba <init_branch_miss_array+0x75>
  40086c:	c7 45 e8 00 00 00 00 	movl   $0x0,-0x18(%rbp)
  400873:	eb 3b                	jmp    4008b0 <init_branch_miss_array+0x6b>
  400875:	8b 45 e8             	mov    -0x18(%rbp),%eax
  400878:	48 98                	cltq   
  40087a:	48 c1 e0 04          	shl    $0x4,%rax
  40087e:	48 89 c2             	mov    %rax,%rdx
  400881:	48 8b 45 d8          	mov    -0x28(%rbp),%rax
  400885:	48 8d 1c 02          	lea    (%rdx,%rax,1),%rbx
  400889:	e8 02 fd ff ff       	callq  400590 <rand@plt>
  40088e:	66 0f ef c0          	pxor   %xmm0,%xmm0
  400892:	f3 0f 2a c0          	cvtsi2ss %eax,%xmm0
  400896:	f3 0f 10 0d 42 23 01 	movss  0x12342(%rip),%xmm1        # 412be0 <_IO_stdin_used+0x30>
  40089d:	00 
  40089e:	f3 0f 5e c1          	divss  %xmm1,%xmm0
  4008a2:	8b 45 ec             	mov    -0x14(%rbp),%eax
  4008a5:	48 98                	cltq   
  4008a7:	f3 0f 11 04 83       	movss  %xmm0,(%rbx,%rax,4)
  4008ac:	83 45 e8 01          	addl   $0x1,-0x18(%rbp)
  4008b0:	83 7d e8 00          	cmpl   $0x0,-0x18(%rbp)
  4008b4:	78 bf                	js     400875 <init_branch_miss_array+0x30>
  4008b6:	83 45 ec 01          	addl   $0x1,-0x14(%rbp)
  4008ba:	83 7d ec 03          	cmpl   $0x3,-0x14(%rbp)
  4008be:	7e ac                	jle    40086c <init_branch_miss_array+0x27>
  4008c0:	90                   	nop
  4008c1:	48 83 c4 28          	add    $0x28,%rsp
  4008c5:	5b                   	pop    %rbx
  4008c6:	5d                   	pop    %rbp
  4008c7:	c3                   	retq   

00000000004008c8 <main>:
  4008c8:	55                   	push   %rbp
  4008c9:	48 89 e5             	mov    %rsp,%rbp
  4008cc:	48 81 ec f0 0c 00 00 	sub    $0xcf0,%rsp
  4008d3:	64 48 8b 04 25 28 00 	mov    %fs:0x28,%rax
  4008da:	00 00 
  4008dc:	48 89 45 f8          	mov    %rax,-0x8(%rbp)
  4008e0:	31 c0                	xor    %eax,%eax
  4008e2:	bf 00 80 07 00       	mov    $0x78000,%edi
  4008e7:	e8 94 fc ff ff       	callq  400580 <malloc@plt>
  4008ec:	48 89 85 48 f3 ff ff 	mov    %rax,-0xcb8(%rbp)
  4008f3:	bf 00 00 0f 00       	mov    $0xf0000,%edi
  4008f8:	e8 83 fc ff ff       	callq  400580 <malloc@plt>
  4008fd:	48 89 c2             	mov    %rax,%rdx
  400900:	48 8b 85 48 f3 ff ff 	mov    -0xcb8(%rbp),%rax
  400907:	48 89 10             	mov    %rdx,(%rax)
  40090a:	c7 85 20 f3 ff ff 00 	movl   $0x0,-0xce0(%rbp)
  400911:	00 00 00 
  400914:	eb 3e                	jmp    400954 <main+0x8c>
  400916:	8b 85 20 f3 ff ff    	mov    -0xce0(%rbp),%eax
  40091c:	48 98                	cltq   
  40091e:	48 8d 14 c5 00 00 00 	lea    0x0(,%rax,8),%rdx
  400925:	00 
  400926:	48 8b 85 48 f3 ff ff 	mov    -0xcb8(%rbp),%rax
  40092d:	48 01 c2             	add    %rax,%rdx
  400930:	48 8b 85 48 f3 ff ff 	mov    -0xcb8(%rbp),%rax
  400937:	48 8b 00             	mov    (%rax),%rax
  40093a:	8b 8d 20 f3 ff ff    	mov    -0xce0(%rbp),%ecx
  400940:	48 63 c9             	movslq %ecx,%rcx
  400943:	48 c1 e1 04          	shl    $0x4,%rcx
  400947:	48 01 c8             	add    %rcx,%rax
  40094a:	48 89 02             	mov    %rax,(%rdx)
  40094d:	83 85 20 f3 ff ff 01 	addl   $0x1,-0xce0(%rbp)
  400954:	81 bd 20 f3 ff ff ff 	cmpl   $0xefff,-0xce0(%rbp)
  40095b:	ef 00 00 
  40095e:	7e b6                	jle    400916 <main+0x4e>
  400960:	c7 85 38 f3 ff ff 00 	movl   $0x0,-0xcc8(%rbp)
  400967:	00 00 00 
  40096a:	c7 85 3c f3 ff ff 00 	movl   $0x0,-0xcc4(%rbp)
  400971:	00 00 00 
  400974:	c7 85 40 f3 ff ff 00 	movl   $0x0,-0xcc0(%rbp)
  40097b:	00 00 00 
  40097e:	c7 85 20 f3 ff ff 00 	movl   $0x0,-0xce0(%rbp)
  400985:	00 00 00 
  400988:	c7 85 44 f3 ff ff 00 	movl   $0x0,-0xcbc(%rbp)
  40098f:	00 00 00 
  400992:	66 0f ef c0          	pxor   %xmm0,%xmm0
  400996:	f3 0f 11 85 24 f3 ff 	movss  %xmm0,-0xcdc(%rbp)
  40099d:	ff 
  40099e:	48 8d 85 50 f3 ff ff 	lea    -0xcb0(%rbp),%rax
  4009a5:	48 89 c7             	mov    %rax,%rdi
  4009a8:	e8 98 fe ff ff       	callq  400845 <init_branch_miss_array>
  4009ad:	48 8d 85 70 f3 ff ff 	lea    -0xc90(%rbp),%rax
  4009b4:	48 89 c7             	mov    %rax,%rdi
  4009b7:	e8 ea fc ff ff       	callq  4006a6 <init>
  4009bc:	48 8d 85 60 f3 ff ff 	lea    -0xca0(%rbp),%rax
  4009c3:	48 89 c7             	mov    %rax,%rdi
  4009c6:	e8 61 fd ff ff       	callq  40072c <init_accum>
  4009cb:	48 8b 85 48 f3 ff ff 	mov    -0xcb8(%rbp),%rax
  4009d2:	48 89 c7             	mov    %rax,%rdi
  4009d5:	e8 8c fd ff ff       	callq  400766 <init_cache_miss_array>
  4009da:	c7 85 28 f3 ff ff 00 	movl   $0x0,-0xcd8(%rbp)
  4009e1:	00 00 00 
  4009e4:	eb 58                	jmp    400a3e <main+0x176>
  4009e6:	c7 85 2c f3 ff ff 00 	movl   $0x0,-0xcd4(%rbp)
  4009ed:	00 00 00 
  4009f0:	eb 3c                	jmp    400a2e <main+0x166>
  4009f2:	8b 85 2c f3 ff ff    	mov    -0xcd4(%rbp),%eax
  4009f8:	48 98                	cltq   
  4009fa:	8b 95 28 f3 ff ff    	mov    -0xcd8(%rbp),%edx
  400a00:	48 63 d2             	movslq %edx,%rdx
  400a03:	48 c1 e2 02          	shl    $0x2,%rdx
  400a07:	48 01 d0             	add    %rdx,%rax
  400a0a:	f3 0f 10 84 85 50 f3 	movss  -0xcb0(%rbp,%rax,4),%xmm0
  400a11:	ff ff 
  400a13:	f3 0f 10 8d 24 f3 ff 	movss  -0xcdc(%rbp),%xmm1
  400a1a:	ff 
  400a1b:	f3 0f 58 c1          	addss  %xmm1,%xmm0
  400a1f:	f3 0f 11 85 24 f3 ff 	movss  %xmm0,-0xcdc(%rbp)
  400a26:	ff 
  400a27:	83 85 2c f3 ff ff 01 	addl   $0x1,-0xcd4(%rbp)
  400a2e:	83 bd 2c f3 ff ff 03 	cmpl   $0x3,-0xcd4(%rbp)
  400a35:	7e bb                	jle    4009f2 <main+0x12a>
  400a37:	83 85 28 f3 ff ff 01 	addl   $0x1,-0xcd8(%rbp)
  400a3e:	83 bd 28 f3 ff ff 00 	cmpl   $0x0,-0xcd8(%rbp)
  400a45:	78 9f                	js     4009e6 <main+0x11e>
  400a47:	f3 0f 5a 85 24 f3 ff 	cvtss2sd -0xcdc(%rbp),%xmm0
  400a4e:	ff 
  400a4f:	bf b4 2b 41 00       	mov    $0x412bb4,%edi
  400a54:	b8 01 00 00 00       	mov    $0x1,%eax
  400a59:	e8 e2 fa ff ff       	callq  400540 <printf@plt>
  400a5e:	c7 85 30 f3 ff ff 00 	movl   $0x0,-0xcd0(%rbp)
  400a65:	00 00 00 
  400a68:	e9 43 20 01 00       	jmpq   412ab0 <main+0x121e8>
  400a6d:	c7 85 20 f3 ff ff 00 	movl   $0x0,-0xce0(%rbp)
  400a74:	00 00 00 
  400a77:	c7 85 38 f3 ff ff 00 	movl   $0x0,-0xcc8(%rbp)
  400a7e:	00 00 00 
  400a81:	f3 0f 10 8d 60 f3 ff 	movss  -0xca0(%rbp),%xmm1
  400a88:	ff 
  400a89:	8b 85 20 f3 ff ff    	mov    -0xce0(%rbp),%eax
  400a8f:	48 98                	cltq   
  400a91:	48 c1 e0 04          	shl    $0x4,%rax
  400a95:	48 01 e8             	add    %rbp,%rax
  400a98:	48 2d 90 0c 00 00    	sub    $0xc90,%rax
  400a9e:	f3 0f 10 00          	movss  (%rax),%xmm0
  400aa2:	f3 0f 58 c1          	addss  %xmm1,%xmm0
  400aa6:	f3 0f 11 85 60 f3 ff 	movss  %xmm0,-0xca0(%rbp)
  400aad:	ff 
  400aae:	f3 0f 10 8d 64 f3 ff 	movss  -0xc9c(%rbp),%xmm1
  400ab5:	ff 
  400ab6:	8b 85 20 f3 ff ff    	mov    -0xce0(%rbp),%eax
  400abc:	48 98                	cltq   
  400abe:	48 c1 e0 04          	shl    $0x4,%rax
  400ac2:	48 01 e8             	add    %rbp,%rax
  400ac5:	48 2d 8c 0c 00 00    	sub    $0xc8c,%rax
  400acb:	f3 0f 10 00          	movss  (%rax),%xmm0
  400acf:	f3 0f 58 c1          	addss  %xmm1,%xmm0
  400ad3:	f3 0f 11 85 64 f3 ff 	movss  %xmm0,-0xc9c(%rbp)
  400ada:	ff 
  400adb:	f3 0f 10 8d 68 f3 ff 	movss  -0xc98(%rbp),%xmm1
  400ae2:	ff 
  400ae3:	8b 85 20 f3 ff ff    	mov    -0xce0(%rbp),%eax
  400ae9:	48 98                	cltq   
  400aeb:	48 c1 e0 04          	shl    $0x4,%rax
  400aef:	48 01 e8             	add    %rbp,%rax
  400af2:	48 2d 88 0c 00 00    	sub    $0xc88,%rax
  400af8:	f3 0f 10 00          	movss  (%rax),%xmm0
  400afc:	f3 0f 58 c1          	addss  %xmm1,%xmm0
  400b00:	f3 0f 11 85 68 f3 ff 	movss  %xmm0,-0xc98(%rbp)
  400b07:	ff 
  400b08:	f3 0f 10 8d 6c f3 ff 	movss  -0xc94(%rbp),%xmm1
  400b0f:	ff 
  400b10:	8b 85 20 f3 ff ff    	mov    -0xce0(%rbp),%eax
  400b16:	48 98                	cltq   
  400b18:	48 c1 e0 04          	shl    $0x4,%rax
  400b1c:	48 01 e8             	add    %rbp,%rax
  400b1f:	48 2d 84 0c 00 00    	sub    $0xc84,%rax
  400b25:	f3 0f 10 00          	movss  (%rax),%xmm0
  400b29:	f3 0f 58 c1          	addss  %xmm1,%xmm0
  400b2d:	f3 0f 11 85 6c f3 ff 	movss  %xmm0,-0xc94(%rbp)
  400b34:	ff 
  400b35:	83 85 20 f3 ff ff 01 	addl   $0x1,-0xce0(%rbp)
  400b3c:	f3 0f 10 8d 60 f3 ff 	movss  -0xca0(%rbp),%xmm1
  400b43:	ff 
  400b44:	8b 85 20 f3 ff ff    	mov    -0xce0(%rbp),%eax
  400b4a:	48 98                	cltq   
  400b4c:	48 c1 e0 04          	shl    $0x4,%rax
  400b50:	48 01 e8             	add    %rbp,%rax
  400b53:	48 2d 90 0c 00 00    	sub    $0xc90,%rax
  400b59:	f3 0f 10 00          	movss  (%rax),%xmm0
  400b5d:	f3 0f 58 c1          	addss  %xmm1,%xmm0
  400b61:	f3 0f 11 85 60 f3 ff 	movss  %xmm0,-0xca0(%rbp)
  400b68:	ff 
  400b69:	f3 0f 10 8d 64 f3 ff 	movss  -0xc9c(%rbp),%xmm1
  400b70:	ff 
  400b71:	8b 85 20 f3 ff ff    	mov    -0xce0(%rbp),%eax
  400b77:	48 98                	cltq   
  400b79:	48 c1 e0 04          	shl    $0x4,%rax
  400b7d:	48 01 e8             	add    %rbp,%rax
  400b80:	48 2d 8c 0c 00 00    	sub    $0xc8c,%rax
  400b86:	f3 0f 10 00          	movss  (%rax),%xmm0
  400b8a:	f3 0f 58 c1          	addss  %xmm1,%xmm0
  400b8e:	f3 0f 11 85 64 f3 ff 	movss  %xmm0,-0xc9c(%rbp)
  400b95:	ff 
  400b96:	f3 0f 10 8d 68 f3 ff 	movss  -0xc98(%rbp),%xmm1
  400b9d:	ff 
  400b9e:	8b 85 20 f3 ff ff    	mov    -0xce0(%rbp),%eax
  400ba4:	48 98                	cltq   
  400ba6:	48 c1 e0 04          	shl    $0x4,%rax
  400baa:	48 01 e8             	add    %rbp,%rax
  400bad:	48 2d 88 0c 00 00    	sub    $0xc88,%rax
  400bb3:	f3 0f 10 00          	movss  (%rax),%xmm0
  400bb7:	f3 0f 58 c1          	addss  %xmm1,%xmm0
  400bbb:	f3 0f 11 85 68 f3 ff 	movss  %xmm0,-0xc98(%rbp)
  400bc2:	ff 
  400bc3:	f3 0f 10 8d 6c f3 ff 	movss  -0xc94(%rbp),%xmm1
  400bca:	ff 
  400bcb:	8b 85 20 f3 ff ff    	mov    -0xce0(%rbp),%eax
  400bd1:	48 98                	cltq   
  400bd3:	48 c1 e0 04          	shl    $0x4,%rax
  400bd7:	48 01 e8             	add    %rbp,%rax
  400bda:	48 2d 84 0c 00 00    	sub    $0xc84,%rax
  400be0:	f3 0f 10 00          	movss  (%rax),%xmm0
  400be4:	f3 0f 58 c1          	addss  %xmm1,%xmm0
  400be8:	f3 0f 11 85 6c f3 ff 	movss  %xmm0,-0xc94(%rbp)
  400bef:	ff 
  400bf0:	83 85 20 f3 ff ff 01 	addl   $0x1,-0xce0(%rbp)
  400bf7:	f3 0f 10 85 1c f3 ff 	movss  -0xce4(%rbp),%xmm0
  400bfe:	ff 
  400bff:	f3 0f 59 85 1c f3 ff 	mulss  -0xce4(%rbp),%xmm0
  400c06:	ff 
  400c07:	f3 0f 11 85 1c f3 ff 	movss  %xmm0,-0xce4(%rbp)
  400c0e:	ff 
  400c0f:	83 85 38 f3 ff ff 01 	addl   $0x1,-0xcc8(%rbp)
  400c16:	83 85 20 f3 ff ff 01 	addl   $0x1,-0xce0(%rbp)
  400c1d:	f3 0f 10 8d 60 f3 ff 	movss  -0xca0(%rbp),%xmm1
  400c24:	ff 
  400c25:	8b 85 20 f3 ff ff    	mov    -0xce0(%rbp),%eax
  400c2b:	48 98                	cltq   
  400c2d:	48 c1 e0 04          	shl    $0x4,%rax
  400c31:	48 01 e8             	add    %rbp,%rax
  400c34:	48 2d 90 0c 00 00    	sub    $0xc90,%rax
  400c3a:	f3 0f 10 00          	movss  (%rax),%xmm0
  400c3e:	f3 0f 58 c1          	addss  %xmm1,%xmm0
  400c42:	f3 0f 11 85 60 f3 ff 	movss  %xmm0,-0xca0(%rbp)
  400c49:	ff 
  400c4a:	f3 0f 10 8d 64 f3 ff 	movss  -0xc9c(%rbp),%xmm1
  400c51:	ff 
  400c52:	8b 85 20 f3 ff ff    	mov    -0xce0(%rbp),%eax
  400c58:	48 98                	cltq   
  400c5a:	48 c1 e0 04          	shl    $0x4,%rax
  400c5e:	48 01 e8             	add    %rbp,%rax
  400c61:	48 2d 8c 0c 00 00    	sub    $0xc8c,%rax
  400c67:	f3 0f 10 00          	movss  (%rax),%xmm0
  400c6b:	f3 0f 58 c1          	addss  %xmm1,%xmm0
  400c6f:	f3 0f 11 85 64 f3 ff 	movss  %xmm0,-0xc9c(%rbp)
  400c76:	ff 
  400c77:	f3 0f 10 8d 68 f3 ff 	movss  -0xc98(%rbp),%xmm1
  400c7e:	ff 
  400c7f:	8b 85 20 f3 ff ff    	mov    -0xce0(%rbp),%eax
  400c85:	48 98                	cltq   
  400c87:	48 c1 e0 04          	shl    $0x4,%rax
  400c8b:	48 01 e8             	add    %rbp,%rax
  400c8e:	48 2d 88 0c 00 00    	sub    $0xc88,%rax
  400c94:	f3 0f 10 00          	movss  (%rax),%xmm0
  400c98:	f3 0f 58 c1          	addss  %xmm1,%xmm0
  400c9c:	f3 0f 11 85 68 f3 ff 	movss  %xmm0,-0xc98(%rbp)
  400ca3:	ff 
  400ca4:	f3 0f 10 8d 6c f3 ff 	movss  -0xc94(%rbp),%xmm1
  400cab:	ff 
  400cac:	8b 85 20 f3 ff ff    	mov    -0xce0(%rbp),%eax
  400cb2:	48 98                	cltq   
  400cb4:	48 c1 e0 04          	shl    $0x4,%rax
  400cb8:	48 01 e8             	add    %rbp,%rax
  400cbb:	48 2d 84 0c 00 00    	sub    $0xc84,%rax
  400cc1:	f3 0f 10 00          	movss  (%rax),%xmm0
  400cc5:	f3 0f 58 c1          	addss  %xmm1,%xmm0
  400cc9:	f3 0f 11 85 6c f3 ff 	movss  %xmm0,-0xc94(%rbp)
  400cd0:	ff 
  400cd1:	83 85 20 f3 ff ff 01 	addl   $0x1,-0xce0(%rbp)
  400cd8:	f3 0f 10 8d 60 f3 ff 	movss  -0xca0(%rbp),%xmm1
  400cdf:	ff 
  400ce0:	8b 85 20 f3 ff ff    	mov    -0xce0(%rbp),%eax
  400ce6:	48 98                	cltq   
  400ce8:	48 c1 e0 04          	shl    $0x4,%rax
  400cec:	48 01 e8             	add    %rbp,%rax
  400cef:	48 2d 90 0c 00 00    	sub    $0xc90,%rax
  400cf5:	f3 0f 10 00          	movss  (%rax),%xmm0
  400cf9:	f3 0f 58 c1          	addss  %xmm1,%xmm0
  400cfd:	f3 0f 11 85 60 f3 ff 	movss  %xmm0,-0xca0(%rbp)
  400d04:	ff 
  400d05:	f3 0f 10 8d 64 f3 ff 	movss  -0xc9c(%rbp),%xmm1
  400d0c:	ff 
  400d0d:	8b 85 20 f3 ff ff    	mov    -0xce0(%rbp),%eax
  400d13:	48 98                	cltq   
  400d15:	48 c1 e0 04          	shl    $0x4,%rax
  400d19:	48 01 e8             	add    %rbp,%rax
  400d1c:	48 2d 8c 0c 00 00    	sub    $0xc8c,%rax
  400d22:	f3 0f 10 00          	movss  (%rax),%xmm0
  400d26:	f3 0f 58 c1          	addss  %xmm1,%xmm0
  400d2a:	f3 0f 11 85 64 f3 ff 	movss  %xmm0,-0xc9c(%rbp)
  400d31:	ff 
  400d32:	f3 0f 10 8d 68 f3 ff 	movss  -0xc98(%rbp),%xmm1
  400d39:	ff 
  400d3a:	8b 85 20 f3 ff ff    	mov    -0xce0(%rbp),%eax
  400d40:	48 98                	cltq   
  400d42:	48 c1 e0 04          	shl    $0x4,%rax
  400d46:	48 01 e8             	add    %rbp,%rax
  400d49:	48 2d 88 0c 00 00    	sub    $0xc88,%rax
  400d4f:	f3 0f 10 00          	movss  (%rax),%xmm0
  400d53:	f3 0f 58 c1          	addss  %xmm1,%xmm0
  400d57:	f3 0f 11 85 68 f3 ff 	movss  %xmm0,-0xc98(%rbp)
  400d5e:	ff 
  400d5f:	f3 0f 10 8d 6c f3 ff 	movss  -0xc94(%rbp),%xmm1
  400d66:	ff 
  400d67:	8b 85 20 f3 ff ff    	mov    -0xce0(%rbp),%eax
  400d6d:	48 98                	cltq   
  400d6f:	48 c1 e0 04          	shl    $0x4,%rax
  400d73:	48 01 e8             	add    %rbp,%rax
  400d76:	48 2d 84 0c 00 00    	sub    $0xc84,%rax
  400d7c:	f3 0f 10 00          	movss  (%rax),%xmm0
  400d80:	f3 0f 58 c1          	addss  %xmm1,%xmm0
  400d84:	f3 0f 11 85 6c f3 ff 	movss  %xmm0,-0xc94(%rbp)
  400d8b:	ff 
  400d8c:	83 85 20 f3 ff ff 01 	addl   $0x1,-0xce0(%rbp)
  400d93:	f3 0f 10 8d 60 f3 ff 	movss  -0xca0(%rbp),%xmm1
  400d9a:	ff 
  400d9b:	8b 85 20 f3 ff ff    	mov    -0xce0(%rbp),%eax
  400da1:	48 98                	cltq   
  400da3:	48 c1 e0 04          	shl    $0x4,%rax
  400da7:	48 01 e8             	add    %rbp,%rax
  400daa:	48 2d 90 0c 00 00    	sub    $0xc90,%rax
  400db0:	f3 0f 10 00          	movss  (%rax),%xmm0
  400db4:	f3 0f 58 c1          	addss  %xmm1,%xmm0
  400db8:	f3 0f 11 85 60 f3 ff 	movss  %xmm0,-0xca0(%rbp)
  400dbf:	ff 
  400dc0:	f3 0f 10 8d 64 f3 ff 	movss  -0xc9c(%rbp),%xmm1
  400dc7:	ff 
  400dc8:	8b 85 20 f3 ff ff    	mov    -0xce0(%rbp),%eax
  400dce:	48 98                	cltq   
  400dd0:	48 c1 e0 04          	shl    $0x4,%rax
  400dd4:	48 01 e8             	add    %rbp,%rax
  400dd7:	48 2d 8c 0c 00 00    	sub    $0xc8c,%rax
  400ddd:	f3 0f 10 00          	movss  (%rax),%xmm0
  400de1:	f3 0f 58 c1          	addss  %xmm1,%xmm0
  400de5:	f3 0f 11 85 64 f3 ff 	movss  %xmm0,-0xc9c(%rbp)
  400dec:	ff 
  400ded:	f3 0f 10 8d 68 f3 ff 	movss  -0xc98(%rbp),%xmm1
  400df4:	ff 
  400df5:	8b 85 20 f3 ff ff    	mov    -0xce0(%rbp),%eax
  400dfb:	48 98                	cltq   
  400dfd:	48 c1 e0 04          	shl    $0x4,%rax
  400e01:	48 01 e8             	add    %rbp,%rax
  400e04:	48 2d 88 0c 00 00    	sub    $0xc88,%rax
  400e0a:	f3 0f 10 00          	movss  (%rax),%xmm0
  400e0e:	f3 0f 58 c1          	addss  %xmm1,%xmm0
  400e12:	f3 0f 11 85 68 f3 ff 	movss  %xmm0,-0xc98(%rbp)
  400e19:	ff 
  400e1a:	f3 0f 10 8d 6c f3 ff 	movss  -0xc94(%rbp),%xmm1
  400e21:	ff 
  400e22:	8b 85 20 f3 ff ff    	mov    -0xce0(%rbp),%eax
  400e28:	48 98                	cltq   
  400e2a:	48 c1 e0 04          	shl    $0x4,%rax
  400e2e:	48 01 e8             	add    %rbp,%rax
  400e31:	48 2d 84 0c 00 00    	sub    $0xc84,%rax
  400e37:	f3 0f 10 00          	movss  (%rax),%xmm0
  400e3b:	f3 0f 58 c1          	addss  %xmm1,%xmm0
  400e3f:	f3 0f 11 85 6c f3 ff 	movss  %xmm0,-0xc94(%rbp)
  400e46:	ff 
  400e47:	83 85 20 f3 ff ff 01 	addl   $0x1,-0xce0(%rbp)
  400e4e:	f3 0f 10 8d 60 f3 ff 	movss  -0xca0(%rbp),%xmm1
  400e55:	ff 
  400e56:	8b 85 20 f3 ff ff    	mov    -0xce0(%rbp),%eax
  400e5c:	48 98                	cltq   
  400e5e:	48 c1 e0 04          	shl    $0x4,%rax
  400e62:	48 01 e8             	add    %rbp,%rax
  400e65:	48 2d 90 0c 00 00    	sub    $0xc90,%rax
  400e6b:	f3 0f 10 00          	movss  (%rax),%xmm0
  400e6f:	f3 0f 58 c1          	addss  %xmm1,%xmm0
  400e73:	f3 0f 11 85 60 f3 ff 	movss  %xmm0,-0xca0(%rbp)
  400e7a:	ff 
  400e7b:	f3 0f 10 8d 64 f3 ff 	movss  -0xc9c(%rbp),%xmm1
  400e82:	ff 
  400e83:	8b 85 20 f3 ff ff    	mov    -0xce0(%rbp),%eax
  400e89:	48 98                	cltq   
  400e8b:	48 c1 e0 04          	shl    $0x4,%rax
  400e8f:	48 01 e8             	add    %rbp,%rax
  400e92:	48 2d 8c 0c 00 00    	sub    $0xc8c,%rax
  400e98:	f3 0f 10 00          	movss  (%rax),%xmm0
  400e9c:	f3 0f 58 c1          	addss  %xmm1,%xmm0
  400ea0:	f3 0f 11 85 64 f3 ff 	movss  %xmm0,-0xc9c(%rbp)
  400ea7:	ff 
  400ea8:	f3 0f 10 8d 68 f3 ff 	movss  -0xc98(%rbp),%xmm1
  400eaf:	ff 
  400eb0:	8b 85 20 f3 ff ff    	mov    -0xce0(%rbp),%eax
  400eb6:	48 98                	cltq   
  400eb8:	48 c1 e0 04          	shl    $0x4,%rax
  400ebc:	48 01 e8             	add    %rbp,%rax
  400ebf:	48 2d 88 0c 00 00    	sub    $0xc88,%rax
  400ec5:	f3 0f 10 00          	movss  (%rax),%xmm0
  400ec9:	f3 0f 58 c1          	addss  %xmm1,%xmm0
  400ecd:	f3 0f 11 85 68 f3 ff 	movss  %xmm0,-0xc98(%rbp)
  400ed4:	ff 
  400ed5:	f3 0f 10 8d 6c f3 ff 	movss  -0xc94(%rbp),%xmm1
  400edc:	ff 
  400edd:	8b 85 20 f3 ff ff    	mov    -0xce0(%rbp),%eax
  400ee3:	48 98                	cltq   
  400ee5:	48 c1 e0 04          	shl    $0x4,%rax
  400ee9:	48 01 e8             	add    %rbp,%rax
  400eec:	48 2d 84 0c 00 00    	sub    $0xc84,%rax
  400ef2:	f3 0f 10 00          	movss  (%rax),%xmm0
  400ef6:	f3 0f 58 c1          	addss  %xmm1,%xmm0
  400efa:	f3 0f 11 85 6c f3 ff 	movss  %xmm0,-0xc94(%rbp)
  400f01:	ff 
  400f02:	83 85 20 f3 ff ff 01 	addl   $0x1,-0xce0(%rbp)
  400f09:	f3 0f 10 8d 60 f3 ff 	movss  -0xca0(%rbp),%xmm1
  400f10:	ff 
  400f11:	8b 85 20 f3 ff ff    	mov    -0xce0(%rbp),%eax
  400f17:	48 98                	cltq   
  400f19:	48 c1 e0 04          	shl    $0x4,%rax
  400f1d:	48 01 e8             	add    %rbp,%rax
  400f20:	48 2d 90 0c 00 00    	sub    $0xc90,%rax
  400f26:	f3 0f 10 00          	movss  (%rax),%xmm0
  400f2a:	f3 0f 58 c1          	addss  %xmm1,%xmm0
  400f2e:	f3 0f 11 85 60 f3 ff 	movss  %xmm0,-0xca0(%rbp)
  400f35:	ff 
  400f36:	f3 0f 10 8d 64 f3 ff 	movss  -0xc9c(%rbp),%xmm1
  400f3d:	ff 
  400f3e:	8b 85 20 f3 ff ff    	mov    -0xce0(%rbp),%eax
  400f44:	48 98                	cltq   
  400f46:	48 c1 e0 04          	shl    $0x4,%rax
  400f4a:	48 01 e8             	add    %rbp,%rax
  400f4d:	48 2d 8c 0c 00 00    	sub    $0xc8c,%rax
  400f53:	f3 0f 10 00          	movss  (%rax),%xmm0
  400f57:	f3 0f 58 c1          	addss  %xmm1,%xmm0
  400f5b:	f3 0f 11 85 64 f3 ff 	movss  %xmm0,-0xc9c(%rbp)
  400f62:	ff 
  400f63:	f3 0f 10 8d 68 f3 ff 	movss  -0xc98(%rbp),%xmm1
  400f6a:	ff 
  400f6b:	8b 85 20 f3 ff ff    	mov    -0xce0(%rbp),%eax
  400f71:	48 98                	cltq   
  400f73:	48 c1 e0 04          	shl    $0x4,%rax
  400f77:	48 01 e8             	add    %rbp,%rax
  400f7a:	48 2d 88 0c 00 00    	sub    $0xc88,%rax
  400f80:	f3 0f 10 00          	movss  (%rax),%xmm0
  400f84:	f3 0f 58 c1          	addss  %xmm1,%xmm0
  400f88:	f3 0f 11 85 68 f3 ff 	movss  %xmm0,-0xc98(%rbp)
  400f8f:	ff 
  400f90:	f3 0f 10 8d 6c f3 ff 	movss  -0xc94(%rbp),%xmm1
  400f97:	ff 
  400f98:	8b 85 20 f3 ff ff    	mov    -0xce0(%rbp),%eax
  400f9e:	48 98                	cltq   
  400fa0:	48 c1 e0 04          	shl    $0x4,%rax
  400fa4:	48 01 e8             	add    %rbp,%rax
  400fa7:	48 2d 84 0c 00 00    	sub    $0xc84,%rax
  400fad:	f3 0f 10 00          	movss  (%rax),%xmm0
  400fb1:	f3 0f 58 c1          	addss  %xmm1,%xmm0
  400fb5:	f3 0f 11 85 6c f3 ff 	movss  %xmm0,-0xc94(%rbp)
  400fbc:	ff 
  400fbd:	83 85 20 f3 ff ff 01 	addl   $0x1,-0xce0(%rbp)
  400fc4:	f3 0f 10 8d 60 f3 ff 	movss  -0xca0(%rbp),%xmm1
  400fcb:	ff 
  400fcc:	8b 85 20 f3 ff ff    	mov    -0xce0(%rbp),%eax
  400fd2:	48 98                	cltq   
  400fd4:	48 c1 e0 04          	shl    $0x4,%rax
  400fd8:	48 01 e8             	add    %rbp,%rax
  400fdb:	48 2d 90 0c 00 00    	sub    $0xc90,%rax
  400fe1:	f3 0f 10 00          	movss  (%rax),%xmm0
  400fe5:	f3 0f 58 c1          	addss  %xmm1,%xmm0
  400fe9:	f3 0f 11 85 60 f3 ff 	movss  %xmm0,-0xca0(%rbp)
  400ff0:	ff 
  400ff1:	f3 0f 10 8d 64 f3 ff 	movss  -0xc9c(%rbp),%xmm1
  400ff8:	ff 
  400ff9:	8b 85 20 f3 ff ff    	mov    -0xce0(%rbp),%eax
  400fff:	48 98                	cltq   
  401001:	48 c1 e0 04          	shl    $0x4,%rax
  401005:	48 01 e8             	add    %rbp,%rax
  401008:	48 2d 8c 0c 00 00    	sub    $0xc8c,%rax
  40100e:	f3 0f 10 00          	movss  (%rax),%xmm0
  401012:	f3 0f 58 c1          	addss  %xmm1,%xmm0
  401016:	f3 0f 11 85 64 f3 ff 	movss  %xmm0,-0xc9c(%rbp)
  40101d:	ff 
  40101e:	f3 0f 10 8d 68 f3 ff 	movss  -0xc98(%rbp),%xmm1
  401025:	ff 
  401026:	8b 85 20 f3 ff ff    	mov    -0xce0(%rbp),%eax
  40102c:	48 98                	cltq   
  40102e:	48 c1 e0 04          	shl    $0x4,%rax
  401032:	48 01 e8             	add    %rbp,%rax
  401035:	48 2d 88 0c 00 00    	sub    $0xc88,%rax
  40103b:	f3 0f 10 00          	movss  (%rax),%xmm0
  40103f:	f3 0f 58 c1          	addss  %xmm1,%xmm0
  401043:	f3 0f 11 85 68 f3 ff 	movss  %xmm0,-0xc98(%rbp)
  40104a:	ff 
  40104b:	f3 0f 10 8d 6c f3 ff 	movss  -0xc94(%rbp),%xmm1
  401052:	ff 
  401053:	8b 85 20 f3 ff ff    	mov    -0xce0(%rbp),%eax
  401059:	48 98                	cltq   
  40105b:	48 c1 e0 04          	shl    $0x4,%rax
  40105f:	48 01 e8             	add    %rbp,%rax
  401062:	48 2d 84 0c 00 00    	sub    $0xc84,%rax
  401068:	f3 0f 10 00          	movss  (%rax),%xmm0
  40106c:	f3 0f 58 c1          	addss  %xmm1,%xmm0
  401070:	f3 0f 11 85 6c f3 ff 	movss  %xmm0,-0xc94(%rbp)
  401077:	ff 
  401078:	83 85 20 f3 ff ff 01 	addl   $0x1,-0xce0(%rbp)
  40107f:	f3 0f 10 8d 60 f3 ff 	movss  -0xca0(%rbp),%xmm1
  401086:	ff 
  401087:	8b 85 20 f3 ff ff    	mov    -0xce0(%rbp),%eax
  40108d:	48 98                	cltq   
  40108f:	48 c1 e0 04          	shl    $0x4,%rax
  401093:	48 01 e8             	add    %rbp,%rax
  401096:	48 2d 90 0c 00 00    	sub    $0xc90,%rax
  40109c:	f3 0f 10 00          	movss  (%rax),%xmm0
  4010a0:	f3 0f 58 c1          	addss  %xmm1,%xmm0
  4010a4:	f3 0f 11 85 60 f3 ff 	movss  %xmm0,-0xca0(%rbp)
  4010ab:	ff 
  4010ac:	f3 0f 10 8d 64 f3 ff 	movss  -0xc9c(%rbp),%xmm1
  4010b3:	ff 
  4010b4:	8b 85 20 f3 ff ff    	mov    -0xce0(%rbp),%eax
  4010ba:	48 98                	cltq   
  4010bc:	48 c1 e0 04          	shl    $0x4,%rax
  4010c0:	48 01 e8             	add    %rbp,%rax
  4010c3:	48 2d 8c 0c 00 00    	sub    $0xc8c,%rax
  4010c9:	f3 0f 10 00          	movss  (%rax),%xmm0
  4010cd:	f3 0f 58 c1          	addss  %xmm1,%xmm0
  4010d1:	f3 0f 11 85 64 f3 ff 	movss  %xmm0,-0xc9c(%rbp)
  4010d8:	ff 
  4010d9:	f3 0f 10 8d 68 f3 ff 	movss  -0xc98(%rbp),%xmm1
  4010e0:	ff 
  4010e1:	8b 85 20 f3 ff ff    	mov    -0xce0(%rbp),%eax
  4010e7:	48 98                	cltq   
  4010e9:	48 c1 e0 04          	shl    $0x4,%rax
  4010ed:	48 01 e8             	add    %rbp,%rax
  4010f0:	48 2d 88 0c 00 00    	sub    $0xc88,%rax
  4010f6:	f3 0f 10 00          	movss  (%rax),%xmm0
  4010fa:	f3 0f 58 c1          	addss  %xmm1,%xmm0
  4010fe:	f3 0f 11 85 68 f3 ff 	movss  %xmm0,-0xc98(%rbp)
  401105:	ff 
  401106:	f3 0f 10 8d 6c f3 ff 	movss  -0xc94(%rbp),%xmm1
  40110d:	ff 
  40110e:	8b 85 20 f3 ff ff    	mov    -0xce0(%rbp),%eax
  401114:	48 98                	cltq   
  401116:	48 c1 e0 04          	shl    $0x4,%rax
  40111a:	48 01 e8             	add    %rbp,%rax
  40111d:	48 2d 84 0c 00 00    	sub    $0xc84,%rax
  401123:	f3 0f 10 00          	movss  (%rax),%xmm0
  401127:	f3 0f 58 c1          	addss  %xmm1,%xmm0
  40112b:	f3 0f 11 85 6c f3 ff 	movss  %xmm0,-0xc94(%rbp)
  401132:	ff 
  401133:	83 85 20 f3 ff ff 01 	addl   $0x1,-0xce0(%rbp)
  40113a:	f3 0f 10 8d 60 f3 ff 	movss  -0xca0(%rbp),%xmm1
  401141:	ff 
  401142:	8b 85 20 f3 ff ff    	mov    -0xce0(%rbp),%eax
  401148:	48 98                	cltq   
  40114a:	48 c1 e0 04          	shl    $0x4,%rax
  40114e:	48 01 e8             	add    %rbp,%rax
  401151:	48 2d 90 0c 00 00    	sub    $0xc90,%rax
  401157:	f3 0f 10 00          	movss  (%rax),%xmm0
  40115b:	f3 0f 58 c1          	addss  %xmm1,%xmm0
  40115f:	f3 0f 11 85 60 f3 ff 	movss  %xmm0,-0xca0(%rbp)
  401166:	ff 
  401167:	f3 0f 10 8d 64 f3 ff 	movss  -0xc9c(%rbp),%xmm1
  40116e:	ff 
  40116f:	8b 85 20 f3 ff ff    	mov    -0xce0(%rbp),%eax
  401175:	48 98                	cltq   
  401177:	48 c1 e0 04          	shl    $0x4,%rax
  40117b:	48 01 e8             	add    %rbp,%rax
  40117e:	48 2d 8c 0c 00 00    	sub    $0xc8c,%rax
  401184:	f3 0f 10 00          	movss  (%rax),%xmm0
  401188:	f3 0f 58 c1          	addss  %xmm1,%xmm0
  40118c:	f3 0f 11 85 64 f3 ff 	movss  %xmm0,-0xc9c(%rbp)
  401193:	ff 
  401194:	f3 0f 10 8d 68 f3 ff 	movss  -0xc98(%rbp),%xmm1
  40119b:	ff 
  40119c:	8b 85 20 f3 ff ff    	mov    -0xce0(%rbp),%eax
  4011a2:	48 98                	cltq   
  4011a4:	48 c1 e0 04          	shl    $0x4,%rax
  4011a8:	48 01 e8             	add    %rbp,%rax
  4011ab:	48 2d 88 0c 00 00    	sub    $0xc88,%rax
  4011b1:	f3 0f 10 00          	movss  (%rax),%xmm0
  4011b5:	f3 0f 58 c1          	addss  %xmm1,%xmm0
  4011b9:	f3 0f 11 85 68 f3 ff 	movss  %xmm0,-0xc98(%rbp)
  4011c0:	ff 
  4011c1:	f3 0f 10 8d 6c f3 ff 	movss  -0xc94(%rbp),%xmm1
  4011c8:	ff 
  4011c9:	8b 85 20 f3 ff ff    	mov    -0xce0(%rbp),%eax
  4011cf:	48 98                	cltq   
  4011d1:	48 c1 e0 04          	shl    $0x4,%rax
  4011d5:	48 01 e8             	add    %rbp,%rax
  4011d8:	48 2d 84 0c 00 00    	sub    $0xc84,%rax
  4011de:	f3 0f 10 00          	movss  (%rax),%xmm0
  4011e2:	f3 0f 58 c1          	addss  %xmm1,%xmm0
  4011e6:	f3 0f 11 85 6c f3 ff 	movss  %xmm0,-0xc94(%rbp)
  4011ed:	ff 
  4011ee:	83 85 20 f3 ff ff 01 	addl   $0x1,-0xce0(%rbp)
  4011f5:	f3 0f 10 8d 60 f3 ff 	movss  -0xca0(%rbp),%xmm1
  4011fc:	ff 
  4011fd:	8b 85 20 f3 ff ff    	mov    -0xce0(%rbp),%eax
  401203:	48 98                	cltq   
  401205:	48 c1 e0 04          	shl    $0x4,%rax
  401209:	48 01 e8             	add    %rbp,%rax
  40120c:	48 2d 90 0c 00 00    	sub    $0xc90,%rax
  401212:	f3 0f 10 00          	movss  (%rax),%xmm0
  401216:	f3 0f 58 c1          	addss  %xmm1,%xmm0
  40121a:	f3 0f 11 85 60 f3 ff 	movss  %xmm0,-0xca0(%rbp)
  401221:	ff 
  401222:	f3 0f 10 8d 64 f3 ff 	movss  -0xc9c(%rbp),%xmm1
  401229:	ff 
  40122a:	8b 85 20 f3 ff ff    	mov    -0xce0(%rbp),%eax
  401230:	48 98                	cltq   
  401232:	48 c1 e0 04          	shl    $0x4,%rax
  401236:	48 01 e8             	add    %rbp,%rax
  401239:	48 2d 8c 0c 00 00    	sub    $0xc8c,%rax
  40123f:	f3 0f 10 00          	movss  (%rax),%xmm0
  401243:	f3 0f 58 c1          	addss  %xmm1,%xmm0
  401247:	f3 0f 11 85 64 f3 ff 	movss  %xmm0,-0xc9c(%rbp)
  40124e:	ff 
  40124f:	f3 0f 10 8d 68 f3 ff 	movss  -0xc98(%rbp),%xmm1
  401256:	ff 
  401257:	8b 85 20 f3 ff ff    	mov    -0xce0(%rbp),%eax
  40125d:	48 98                	cltq   
  40125f:	48 c1 e0 04          	shl    $0x4,%rax
  401263:	48 01 e8             	add    %rbp,%rax
  401266:	48 2d 88 0c 00 00    	sub    $0xc88,%rax
  40126c:	f3 0f 10 00          	movss  (%rax),%xmm0
  401270:	f3 0f 58 c1          	addss  %xmm1,%xmm0
  401274:	f3 0f 11 85 68 f3 ff 	movss  %xmm0,-0xc98(%rbp)
  40127b:	ff 
  40127c:	f3 0f 10 8d 6c f3 ff 	movss  -0xc94(%rbp),%xmm1
  401283:	ff 
  401284:	8b 85 20 f3 ff ff    	mov    -0xce0(%rbp),%eax
  40128a:	48 98                	cltq   
  40128c:	48 c1 e0 04          	shl    $0x4,%rax
  401290:	48 01 e8             	add    %rbp,%rax
  401293:	48 2d 84 0c 00 00    	sub    $0xc84,%rax
  401299:	f3 0f 10 00          	movss  (%rax),%xmm0
  40129d:	f3 0f 58 c1          	addss  %xmm1,%xmm0
  4012a1:	f3 0f 11 85 6c f3 ff 	movss  %xmm0,-0xc94(%rbp)
  4012a8:	ff 
  4012a9:	83 85 20 f3 ff ff 01 	addl   $0x1,-0xce0(%rbp)
  4012b0:	f3 0f 10 8d 60 f3 ff 	movss  -0xca0(%rbp),%xmm1
  4012b7:	ff 
  4012b8:	8b 85 20 f3 ff ff    	mov    -0xce0(%rbp),%eax
  4012be:	48 98                	cltq   
  4012c0:	48 c1 e0 04          	shl    $0x4,%rax
  4012c4:	48 01 e8             	add    %rbp,%rax
  4012c7:	48 2d 90 0c 00 00    	sub    $0xc90,%rax
  4012cd:	f3 0f 10 00          	movss  (%rax),%xmm0
  4012d1:	f3 0f 58 c1          	addss  %xmm1,%xmm0
  4012d5:	f3 0f 11 85 60 f3 ff 	movss  %xmm0,-0xca0(%rbp)
  4012dc:	ff 
  4012dd:	f3 0f 10 8d 64 f3 ff 	movss  -0xc9c(%rbp),%xmm1
  4012e4:	ff 
  4012e5:	8b 85 20 f3 ff ff    	mov    -0xce0(%rbp),%eax
  4012eb:	48 98                	cltq   
  4012ed:	48 c1 e0 04          	shl    $0x4,%rax
  4012f1:	48 01 e8             	add    %rbp,%rax
  4012f4:	48 2d 8c 0c 00 00    	sub    $0xc8c,%rax
  4012fa:	f3 0f 10 00          	movss  (%rax),%xmm0
  4012fe:	f3 0f 58 c1          	addss  %xmm1,%xmm0
  401302:	f3 0f 11 85 64 f3 ff 	movss  %xmm0,-0xc9c(%rbp)
  401309:	ff 
  40130a:	f3 0f 10 8d 68 f3 ff 	movss  -0xc98(%rbp),%xmm1
  401311:	ff 
  401312:	8b 85 20 f3 ff ff    	mov    -0xce0(%rbp),%eax
  401318:	48 98                	cltq   
  40131a:	48 c1 e0 04          	shl    $0x4,%rax
  40131e:	48 01 e8             	add    %rbp,%rax
  401321:	48 2d 88 0c 00 00    	sub    $0xc88,%rax
  401327:	f3 0f 10 00          	movss  (%rax),%xmm0
  40132b:	f3 0f 58 c1          	addss  %xmm1,%xmm0
  40132f:	f3 0f 11 85 68 f3 ff 	movss  %xmm0,-0xc98(%rbp)
  401336:	ff 
  401337:	f3 0f 10 8d 6c f3 ff 	movss  -0xc94(%rbp),%xmm1
  40133e:	ff 
  40133f:	8b 85 20 f3 ff ff    	mov    -0xce0(%rbp),%eax
  401345:	48 98                	cltq   
  401347:	48 c1 e0 04          	shl    $0x4,%rax
  40134b:	48 01 e8             	add    %rbp,%rax
  40134e:	48 2d 84 0c 00 00    	sub    $0xc84,%rax
  401354:	f3 0f 10 00          	movss  (%rax),%xmm0
  401358:	f3 0f 58 c1          	addss  %xmm1,%xmm0
  40135c:	f3 0f 11 85 6c f3 ff 	movss  %xmm0,-0xc94(%rbp)
  401363:	ff 
  401364:	83 85 20 f3 ff ff 01 	addl   $0x1,-0xce0(%rbp)
  40136b:	f3 0f 10 8d 60 f3 ff 	movss  -0xca0(%rbp),%xmm1
  401372:	ff 
  401373:	8b 85 20 f3 ff ff    	mov    -0xce0(%rbp),%eax
  401379:	48 98                	cltq   
  40137b:	48 c1 e0 04          	shl    $0x4,%rax
  40137f:	48 01 e8             	add    %rbp,%rax
  401382:	48 2d 90 0c 00 00    	sub    $0xc90,%rax
  401388:	f3 0f 10 00          	movss  (%rax),%xmm0
  40138c:	f3 0f 58 c1          	addss  %xmm1,%xmm0
  401390:	f3 0f 11 85 60 f3 ff 	movss  %xmm0,-0xca0(%rbp)
  401397:	ff 
  401398:	f3 0f 10 8d 64 f3 ff 	movss  -0xc9c(%rbp),%xmm1
  40139f:	ff 
  4013a0:	8b 85 20 f3 ff ff    	mov    -0xce0(%rbp),%eax
  4013a6:	48 98                	cltq   
  4013a8:	48 c1 e0 04          	shl    $0x4,%rax
  4013ac:	48 01 e8             	add    %rbp,%rax
  4013af:	48 2d 8c 0c 00 00    	sub    $0xc8c,%rax
  4013b5:	f3 0f 10 00          	movss  (%rax),%xmm0
  4013b9:	f3 0f 58 c1          	addss  %xmm1,%xmm0
  4013bd:	f3 0f 11 85 64 f3 ff 	movss  %xmm0,-0xc9c(%rbp)
  4013c4:	ff 
  4013c5:	f3 0f 10 8d 68 f3 ff 	movss  -0xc98(%rbp),%xmm1
  4013cc:	ff 
  4013cd:	8b 85 20 f3 ff ff    	mov    -0xce0(%rbp),%eax
  4013d3:	48 98                	cltq   
  4013d5:	48 c1 e0 04          	shl    $0x4,%rax
  4013d9:	48 01 e8             	add    %rbp,%rax
  4013dc:	48 2d 88 0c 00 00    	sub    $0xc88,%rax
  4013e2:	f3 0f 10 00          	movss  (%rax),%xmm0
  4013e6:	f3 0f 58 c1          	addss  %xmm1,%xmm0
  4013ea:	f3 0f 11 85 68 f3 ff 	movss  %xmm0,-0xc98(%rbp)
  4013f1:	ff 
  4013f2:	f3 0f 10 8d 6c f3 ff 	movss  -0xc94(%rbp),%xmm1
  4013f9:	ff 
  4013fa:	8b 85 20 f3 ff ff    	mov    -0xce0(%rbp),%eax
  401400:	48 98                	cltq   
  401402:	48 c1 e0 04          	shl    $0x4,%rax
  401406:	48 01 e8             	add    %rbp,%rax
  401409:	48 2d 84 0c 00 00    	sub    $0xc84,%rax
  40140f:	f3 0f 10 00          	movss  (%rax),%xmm0
  401413:	f3 0f 58 c1          	addss  %xmm1,%xmm0
  401417:	f3 0f 11 85 6c f3 ff 	movss  %xmm0,-0xc94(%rbp)
  40141e:	ff 
  40141f:	83 85 20 f3 ff ff 01 	addl   $0x1,-0xce0(%rbp)
  401426:	f3 0f 10 8d 60 f3 ff 	movss  -0xca0(%rbp),%xmm1
  40142d:	ff 
  40142e:	8b 85 20 f3 ff ff    	mov    -0xce0(%rbp),%eax
  401434:	48 98                	cltq   
  401436:	48 c1 e0 04          	shl    $0x4,%rax
  40143a:	48 01 e8             	add    %rbp,%rax
  40143d:	48 2d 90 0c 00 00    	sub    $0xc90,%rax
  401443:	f3 0f 10 00          	movss  (%rax),%xmm0
  401447:	f3 0f 58 c1          	addss  %xmm1,%xmm0
  40144b:	f3 0f 11 85 60 f3 ff 	movss  %xmm0,-0xca0(%rbp)
  401452:	ff 
  401453:	f3 0f 10 8d 64 f3 ff 	movss  -0xc9c(%rbp),%xmm1
  40145a:	ff 
  40145b:	8b 85 20 f3 ff ff    	mov    -0xce0(%rbp),%eax
  401461:	48 98                	cltq   
  401463:	48 c1 e0 04          	shl    $0x4,%rax
  401467:	48 01 e8             	add    %rbp,%rax
  40146a:	48 2d 8c 0c 00 00    	sub    $0xc8c,%rax
  401470:	f3 0f 10 00          	movss  (%rax),%xmm0
  401474:	f3 0f 58 c1          	addss  %xmm1,%xmm0
  401478:	f3 0f 11 85 64 f3 ff 	movss  %xmm0,-0xc9c(%rbp)
  40147f:	ff 
  401480:	f3 0f 10 8d 68 f3 ff 	movss  -0xc98(%rbp),%xmm1
  401487:	ff 
  401488:	8b 85 20 f3 ff ff    	mov    -0xce0(%rbp),%eax
  40148e:	48 98                	cltq   
  401490:	48 c1 e0 04          	shl    $0x4,%rax
  401494:	48 01 e8             	add    %rbp,%rax
  401497:	48 2d 88 0c 00 00    	sub    $0xc88,%rax
  40149d:	f3 0f 10 00          	movss  (%rax),%xmm0
  4014a1:	f3 0f 58 c1          	addss  %xmm1,%xmm0
  4014a5:	f3 0f 11 85 68 f3 ff 	movss  %xmm0,-0xc98(%rbp)
  4014ac:	ff 
  4014ad:	f3 0f 10 8d 6c f3 ff 	movss  -0xc94(%rbp),%xmm1
  4014b4:	ff 
  4014b5:	8b 85 20 f3 ff ff    	mov    -0xce0(%rbp),%eax
  4014bb:	48 98                	cltq   
  4014bd:	48 c1 e0 04          	shl    $0x4,%rax
  4014c1:	48 01 e8             	add    %rbp,%rax
  4014c4:	48 2d 84 0c 00 00    	sub    $0xc84,%rax
  4014ca:	f3 0f 10 00          	movss  (%rax),%xmm0
  4014ce:	f3 0f 58 c1          	addss  %xmm1,%xmm0
  4014d2:	f3 0f 11 85 6c f3 ff 	movss  %xmm0,-0xc94(%rbp)
  4014d9:	ff 
  4014da:	83 85 20 f3 ff ff 01 	addl   $0x1,-0xce0(%rbp)
  4014e1:	f3 0f 10 8d 60 f3 ff 	movss  -0xca0(%rbp),%xmm1
  4014e8:	ff 
  4014e9:	8b 85 20 f3 ff ff    	mov    -0xce0(%rbp),%eax
  4014ef:	48 98                	cltq   
  4014f1:	48 c1 e0 04          	shl    $0x4,%rax
  4014f5:	48 01 e8             	add    %rbp,%rax
  4014f8:	48 2d 90 0c 00 00    	sub    $0xc90,%rax
  4014fe:	f3 0f 10 00          	movss  (%rax),%xmm0
  401502:	f3 0f 58 c1          	addss  %xmm1,%xmm0
  401506:	f3 0f 11 85 60 f3 ff 	movss  %xmm0,-0xca0(%rbp)
  40150d:	ff 
  40150e:	f3 0f 10 8d 64 f3 ff 	movss  -0xc9c(%rbp),%xmm1
  401515:	ff 
  401516:	8b 85 20 f3 ff ff    	mov    -0xce0(%rbp),%eax
  40151c:	48 98                	cltq   
  40151e:	48 c1 e0 04          	shl    $0x4,%rax
  401522:	48 01 e8             	add    %rbp,%rax
  401525:	48 2d 8c 0c 00 00    	sub    $0xc8c,%rax
  40152b:	f3 0f 10 00          	movss  (%rax),%xmm0
  40152f:	f3 0f 58 c1          	addss  %xmm1,%xmm0
  401533:	f3 0f 11 85 64 f3 ff 	movss  %xmm0,-0xc9c(%rbp)
  40153a:	ff 
  40153b:	f3 0f 10 8d 68 f3 ff 	movss  -0xc98(%rbp),%xmm1
  401542:	ff 
  401543:	8b 85 20 f3 ff ff    	mov    -0xce0(%rbp),%eax
  401549:	48 98                	cltq   
  40154b:	48 c1 e0 04          	shl    $0x4,%rax
  40154f:	48 01 e8             	add    %rbp,%rax
  401552:	48 2d 88 0c 00 00    	sub    $0xc88,%rax
  401558:	f3 0f 10 00          	movss  (%rax),%xmm0
  40155c:	f3 0f 58 c1          	addss  %xmm1,%xmm0
  401560:	f3 0f 11 85 68 f3 ff 	movss  %xmm0,-0xc98(%rbp)
  401567:	ff 
  401568:	f3 0f 10 8d 6c f3 ff 	movss  -0xc94(%rbp),%xmm1
  40156f:	ff 
  401570:	8b 85 20 f3 ff ff    	mov    -0xce0(%rbp),%eax
  401576:	48 98                	cltq   
  401578:	48 c1 e0 04          	shl    $0x4,%rax
  40157c:	48 01 e8             	add    %rbp,%rax
  40157f:	48 2d 84 0c 00 00    	sub    $0xc84,%rax
  401585:	f3 0f 10 00          	movss  (%rax),%xmm0
  401589:	f3 0f 58 c1          	addss  %xmm1,%xmm0
  40158d:	f3 0f 11 85 6c f3 ff 	movss  %xmm0,-0xc94(%rbp)
  401594:	ff 
  401595:	83 85 20 f3 ff ff 01 	addl   $0x1,-0xce0(%rbp)
  40159c:	f3 0f 10 8d 60 f3 ff 	movss  -0xca0(%rbp),%xmm1
  4015a3:	ff 
  4015a4:	8b 85 20 f3 ff ff    	mov    -0xce0(%rbp),%eax
  4015aa:	48 98                	cltq   
  4015ac:	48 c1 e0 04          	shl    $0x4,%rax
  4015b0:	48 01 e8             	add    %rbp,%rax
  4015b3:	48 2d 90 0c 00 00    	sub    $0xc90,%rax
  4015b9:	f3 0f 10 00          	movss  (%rax),%xmm0
  4015bd:	f3 0f 58 c1          	addss  %xmm1,%xmm0
  4015c1:	f3 0f 11 85 60 f3 ff 	movss  %xmm0,-0xca0(%rbp)
  4015c8:	ff 
  4015c9:	f3 0f 10 8d 64 f3 ff 	movss  -0xc9c(%rbp),%xmm1
  4015d0:	ff 
  4015d1:	8b 85 20 f3 ff ff    	mov    -0xce0(%rbp),%eax
  4015d7:	48 98                	cltq   
  4015d9:	48 c1 e0 04          	shl    $0x4,%rax
  4015dd:	48 01 e8             	add    %rbp,%rax
  4015e0:	48 2d 8c 0c 00 00    	sub    $0xc8c,%rax
  4015e6:	f3 0f 10 00          	movss  (%rax),%xmm0
  4015ea:	f3 0f 58 c1          	addss  %xmm1,%xmm0
  4015ee:	f3 0f 11 85 64 f3 ff 	movss  %xmm0,-0xc9c(%rbp)
  4015f5:	ff 
  4015f6:	f3 0f 10 8d 68 f3 ff 	movss  -0xc98(%rbp),%xmm1
  4015fd:	ff 
  4015fe:	8b 85 20 f3 ff ff    	mov    -0xce0(%rbp),%eax
  401604:	48 98                	cltq   
  401606:	48 c1 e0 04          	shl    $0x4,%rax
  40160a:	48 01 e8             	add    %rbp,%rax
  40160d:	48 2d 88 0c 00 00    	sub    $0xc88,%rax
  401613:	f3 0f 10 00          	movss  (%rax),%xmm0
  401617:	f3 0f 58 c1          	addss  %xmm1,%xmm0
  40161b:	f3 0f 11 85 68 f3 ff 	movss  %xmm0,-0xc98(%rbp)
  401622:	ff 
  401623:	f3 0f 10 8d 6c f3 ff 	movss  -0xc94(%rbp),%xmm1
  40162a:	ff 
  40162b:	8b 85 20 f3 ff ff    	mov    -0xce0(%rbp),%eax
  401631:	48 98                	cltq   
  401633:	48 c1 e0 04          	shl    $0x4,%rax
  401637:	48 01 e8             	add    %rbp,%rax
  40163a:	48 2d 84 0c 00 00    	sub    $0xc84,%rax
  401640:	f3 0f 10 00          	movss  (%rax),%xmm0
  401644:	f3 0f 58 c1          	addss  %xmm1,%xmm0
  401648:	f3 0f 11 85 6c f3 ff 	movss  %xmm0,-0xc94(%rbp)
  40164f:	ff 
  401650:	83 85 20 f3 ff ff 01 	addl   $0x1,-0xce0(%rbp)
  401657:	f3 0f 10 8d 60 f3 ff 	movss  -0xca0(%rbp),%xmm1
  40165e:	ff 
  40165f:	8b 85 20 f3 ff ff    	mov    -0xce0(%rbp),%eax
  401665:	48 98                	cltq   
  401667:	48 c1 e0 04          	shl    $0x4,%rax
  40166b:	48 01 e8             	add    %rbp,%rax
  40166e:	48 2d 90 0c 00 00    	sub    $0xc90,%rax
  401674:	f3 0f 10 00          	movss  (%rax),%xmm0
  401678:	f3 0f 58 c1          	addss  %xmm1,%xmm0
  40167c:	f3 0f 11 85 60 f3 ff 	movss  %xmm0,-0xca0(%rbp)
  401683:	ff 
  401684:	f3 0f 10 8d 64 f3 ff 	movss  -0xc9c(%rbp),%xmm1
  40168b:	ff 
  40168c:	8b 85 20 f3 ff ff    	mov    -0xce0(%rbp),%eax
  401692:	48 98                	cltq   
  401694:	48 c1 e0 04          	shl    $0x4,%rax
  401698:	48 01 e8             	add    %rbp,%rax
  40169b:	48 2d 8c 0c 00 00    	sub    $0xc8c,%rax
  4016a1:	f3 0f 10 00          	movss  (%rax),%xmm0
  4016a5:	f3 0f 58 c1          	addss  %xmm1,%xmm0
  4016a9:	f3 0f 11 85 64 f3 ff 	movss  %xmm0,-0xc9c(%rbp)
  4016b0:	ff 
  4016b1:	f3 0f 10 8d 68 f3 ff 	movss  -0xc98(%rbp),%xmm1
  4016b8:	ff 
  4016b9:	8b 85 20 f3 ff ff    	mov    -0xce0(%rbp),%eax
  4016bf:	48 98                	cltq   
  4016c1:	48 c1 e0 04          	shl    $0x4,%rax
  4016c5:	48 01 e8             	add    %rbp,%rax
  4016c8:	48 2d 88 0c 00 00    	sub    $0xc88,%rax
  4016ce:	f3 0f 10 00          	movss  (%rax),%xmm0
  4016d2:	f3 0f 58 c1          	addss  %xmm1,%xmm0
  4016d6:	f3 0f 11 85 68 f3 ff 	movss  %xmm0,-0xc98(%rbp)
  4016dd:	ff 
  4016de:	f3 0f 10 8d 6c f3 ff 	movss  -0xc94(%rbp),%xmm1
  4016e5:	ff 
  4016e6:	8b 85 20 f3 ff ff    	mov    -0xce0(%rbp),%eax
  4016ec:	48 98                	cltq   
  4016ee:	48 c1 e0 04          	shl    $0x4,%rax
  4016f2:	48 01 e8             	add    %rbp,%rax
  4016f5:	48 2d 84 0c 00 00    	sub    $0xc84,%rax
  4016fb:	f3 0f 10 00          	movss  (%rax),%xmm0
  4016ff:	f3 0f 58 c1          	addss  %xmm1,%xmm0
  401703:	f3 0f 11 85 6c f3 ff 	movss  %xmm0,-0xc94(%rbp)
  40170a:	ff 
  40170b:	83 85 20 f3 ff ff 01 	addl   $0x1,-0xce0(%rbp)
  401712:	f3 0f 10 8d 60 f3 ff 	movss  -0xca0(%rbp),%xmm1
  401719:	ff 
  40171a:	8b 85 20 f3 ff ff    	mov    -0xce0(%rbp),%eax
  401720:	48 98                	cltq   
  401722:	48 c1 e0 04          	shl    $0x4,%rax
  401726:	48 01 e8             	add    %rbp,%rax
  401729:	48 2d 90 0c 00 00    	sub    $0xc90,%rax
  40172f:	f3 0f 10 00          	movss  (%rax),%xmm0
  401733:	f3 0f 58 c1          	addss  %xmm1,%xmm0
  401737:	f3 0f 11 85 60 f3 ff 	movss  %xmm0,-0xca0(%rbp)
  40173e:	ff 
  40173f:	f3 0f 10 8d 64 f3 ff 	movss  -0xc9c(%rbp),%xmm1
  401746:	ff 
  401747:	8b 85 20 f3 ff ff    	mov    -0xce0(%rbp),%eax
  40174d:	48 98                	cltq   
  40174f:	48 c1 e0 04          	shl    $0x4,%rax
  401753:	48 01 e8             	add    %rbp,%rax
  401756:	48 2d 8c 0c 00 00    	sub    $0xc8c,%rax
  40175c:	f3 0f 10 00          	movss  (%rax),%xmm0
  401760:	f3 0f 58 c1          	addss  %xmm1,%xmm0
  401764:	f3 0f 11 85 64 f3 ff 	movss  %xmm0,-0xc9c(%rbp)
  40176b:	ff 
  40176c:	f3 0f 10 8d 68 f3 ff 	movss  -0xc98(%rbp),%xmm1
  401773:	ff 
  401774:	8b 85 20 f3 ff ff    	mov    -0xce0(%rbp),%eax
  40177a:	48 98                	cltq   
  40177c:	48 c1 e0 04          	shl    $0x4,%rax
  401780:	48 01 e8             	add    %rbp,%rax
  401783:	48 2d 88 0c 00 00    	sub    $0xc88,%rax
  401789:	f3 0f 10 00          	movss  (%rax),%xmm0
  40178d:	f3 0f 58 c1          	addss  %xmm1,%xmm0
  401791:	f3 0f 11 85 68 f3 ff 	movss  %xmm0,-0xc98(%rbp)
  401798:	ff 
  401799:	f3 0f 10 8d 6c f3 ff 	movss  -0xc94(%rbp),%xmm1
  4017a0:	ff 
  4017a1:	8b 85 20 f3 ff ff    	mov    -0xce0(%rbp),%eax
  4017a7:	48 98                	cltq   
  4017a9:	48 c1 e0 04          	shl    $0x4,%rax
  4017ad:	48 01 e8             	add    %rbp,%rax
  4017b0:	48 2d 84 0c 00 00    	sub    $0xc84,%rax
  4017b6:	f3 0f 10 00          	movss  (%rax),%xmm0
  4017ba:	f3 0f 58 c1          	addss  %xmm1,%xmm0
  4017be:	f3 0f 11 85 6c f3 ff 	movss  %xmm0,-0xc94(%rbp)
  4017c5:	ff 
  4017c6:	83 85 20 f3 ff ff 01 	addl   $0x1,-0xce0(%rbp)
  4017cd:	f3 0f 10 8d 60 f3 ff 	movss  -0xca0(%rbp),%xmm1
  4017d4:	ff 
  4017d5:	8b 85 20 f3 ff ff    	mov    -0xce0(%rbp),%eax
  4017db:	48 98                	cltq   
  4017dd:	48 c1 e0 04          	shl    $0x4,%rax
  4017e1:	48 01 e8             	add    %rbp,%rax
  4017e4:	48 2d 90 0c 00 00    	sub    $0xc90,%rax
  4017ea:	f3 0f 10 00          	movss  (%rax),%xmm0
  4017ee:	f3 0f 58 c1          	addss  %xmm1,%xmm0
  4017f2:	f3 0f 11 85 60 f3 ff 	movss  %xmm0,-0xca0(%rbp)
  4017f9:	ff 
  4017fa:	f3 0f 10 8d 64 f3 ff 	movss  -0xc9c(%rbp),%xmm1
  401801:	ff 
  401802:	8b 85 20 f3 ff ff    	mov    -0xce0(%rbp),%eax
  401808:	48 98                	cltq   
  40180a:	48 c1 e0 04          	shl    $0x4,%rax
  40180e:	48 01 e8             	add    %rbp,%rax
  401811:	48 2d 8c 0c 00 00    	sub    $0xc8c,%rax
  401817:	f3 0f 10 00          	movss  (%rax),%xmm0
  40181b:	f3 0f 58 c1          	addss  %xmm1,%xmm0
  40181f:	f3 0f 11 85 64 f3 ff 	movss  %xmm0,-0xc9c(%rbp)
  401826:	ff 
  401827:	f3 0f 10 8d 68 f3 ff 	movss  -0xc98(%rbp),%xmm1
  40182e:	ff 
  40182f:	8b 85 20 f3 ff ff    	mov    -0xce0(%rbp),%eax
  401835:	48 98                	cltq   
  401837:	48 c1 e0 04          	shl    $0x4,%rax
  40183b:	48 01 e8             	add    %rbp,%rax
  40183e:	48 2d 88 0c 00 00    	sub    $0xc88,%rax
  401844:	f3 0f 10 00          	movss  (%rax),%xmm0
  401848:	f3 0f 58 c1          	addss  %xmm1,%xmm0
  40184c:	f3 0f 11 85 68 f3 ff 	movss  %xmm0,-0xc98(%rbp)
  401853:	ff 
  401854:	f3 0f 10 8d 6c f3 ff 	movss  -0xc94(%rbp),%xmm1
  40185b:	ff 
  40185c:	8b 85 20 f3 ff ff    	mov    -0xce0(%rbp),%eax
  401862:	48 98                	cltq   
  401864:	48 c1 e0 04          	shl    $0x4,%rax
  401868:	48 01 e8             	add    %rbp,%rax
  40186b:	48 2d 84 0c 00 00    	sub    $0xc84,%rax
  401871:	f3 0f 10 00          	movss  (%rax),%xmm0
  401875:	f3 0f 58 c1          	addss  %xmm1,%xmm0
  401879:	f3 0f 11 85 6c f3 ff 	movss  %xmm0,-0xc94(%rbp)
  401880:	ff 
  401881:	83 85 20 f3 ff ff 01 	addl   $0x1,-0xce0(%rbp)
  401888:	f3 0f 10 8d 60 f3 ff 	movss  -0xca0(%rbp),%xmm1
  40188f:	ff 
  401890:	8b 85 20 f3 ff ff    	mov    -0xce0(%rbp),%eax
  401896:	48 98                	cltq   
  401898:	48 c1 e0 04          	shl    $0x4,%rax
  40189c:	48 01 e8             	add    %rbp,%rax
  40189f:	48 2d 90 0c 00 00    	sub    $0xc90,%rax
  4018a5:	f3 0f 10 00          	movss  (%rax),%xmm0
  4018a9:	f3 0f 58 c1          	addss  %xmm1,%xmm0
  4018ad:	f3 0f 11 85 60 f3 ff 	movss  %xmm0,-0xca0(%rbp)
  4018b4:	ff 
  4018b5:	f3 0f 10 8d 64 f3 ff 	movss  -0xc9c(%rbp),%xmm1
  4018bc:	ff 
  4018bd:	8b 85 20 f3 ff ff    	mov    -0xce0(%rbp),%eax
  4018c3:	48 98                	cltq   
  4018c5:	48 c1 e0 04          	shl    $0x4,%rax
  4018c9:	48 01 e8             	add    %rbp,%rax
  4018cc:	48 2d 8c 0c 00 00    	sub    $0xc8c,%rax
  4018d2:	f3 0f 10 00          	movss  (%rax),%xmm0
  4018d6:	f3 0f 58 c1          	addss  %xmm1,%xmm0
  4018da:	f3 0f 11 85 64 f3 ff 	movss  %xmm0,-0xc9c(%rbp)
  4018e1:	ff 
  4018e2:	f3 0f 10 8d 68 f3 ff 	movss  -0xc98(%rbp),%xmm1
  4018e9:	ff 
  4018ea:	8b 85 20 f3 ff ff    	mov    -0xce0(%rbp),%eax
  4018f0:	48 98                	cltq   
  4018f2:	48 c1 e0 04          	shl    $0x4,%rax
  4018f6:	48 01 e8             	add    %rbp,%rax
  4018f9:	48 2d 88 0c 00 00    	sub    $0xc88,%rax
  4018ff:	f3 0f 10 00          	movss  (%rax),%xmm0
  401903:	f3 0f 58 c1          	addss  %xmm1,%xmm0
  401907:	f3 0f 11 85 68 f3 ff 	movss  %xmm0,-0xc98(%rbp)
  40190e:	ff 
  40190f:	f3 0f 10 8d 6c f3 ff 	movss  -0xc94(%rbp),%xmm1
  401916:	ff 
  401917:	8b 85 20 f3 ff ff    	mov    -0xce0(%rbp),%eax
  40191d:	48 98                	cltq   
  40191f:	48 c1 e0 04          	shl    $0x4,%rax
  401923:	48 01 e8             	add    %rbp,%rax
  401926:	48 2d 84 0c 00 00    	sub    $0xc84,%rax
  40192c:	f3 0f 10 00          	movss  (%rax),%xmm0
  401930:	f3 0f 58 c1          	addss  %xmm1,%xmm0
  401934:	f3 0f 11 85 6c f3 ff 	movss  %xmm0,-0xc94(%rbp)
  40193b:	ff 
  40193c:	83 85 20 f3 ff ff 01 	addl   $0x1,-0xce0(%rbp)
  401943:	f3 0f 10 8d 60 f3 ff 	movss  -0xca0(%rbp),%xmm1
  40194a:	ff 
  40194b:	8b 85 20 f3 ff ff    	mov    -0xce0(%rbp),%eax
  401951:	48 98                	cltq   
  401953:	48 c1 e0 04          	shl    $0x4,%rax
  401957:	48 01 e8             	add    %rbp,%rax
  40195a:	48 2d 90 0c 00 00    	sub    $0xc90,%rax
  401960:	f3 0f 10 00          	movss  (%rax),%xmm0
  401964:	f3 0f 58 c1          	addss  %xmm1,%xmm0
  401968:	f3 0f 11 85 60 f3 ff 	movss  %xmm0,-0xca0(%rbp)
  40196f:	ff 
  401970:	f3 0f 10 8d 64 f3 ff 	movss  -0xc9c(%rbp),%xmm1
  401977:	ff 
  401978:	8b 85 20 f3 ff ff    	mov    -0xce0(%rbp),%eax
  40197e:	48 98                	cltq   
  401980:	48 c1 e0 04          	shl    $0x4,%rax
  401984:	48 01 e8             	add    %rbp,%rax
  401987:	48 2d 8c 0c 00 00    	sub    $0xc8c,%rax
  40198d:	f3 0f 10 00          	movss  (%rax),%xmm0
  401991:	f3 0f 58 c1          	addss  %xmm1,%xmm0
  401995:	f3 0f 11 85 64 f3 ff 	movss  %xmm0,-0xc9c(%rbp)
  40199c:	ff 
  40199d:	f3 0f 10 8d 68 f3 ff 	movss  -0xc98(%rbp),%xmm1
  4019a4:	ff 
  4019a5:	8b 85 20 f3 ff ff    	mov    -0xce0(%rbp),%eax
  4019ab:	48 98                	cltq   
  4019ad:	48 c1 e0 04          	shl    $0x4,%rax
  4019b1:	48 01 e8             	add    %rbp,%rax
  4019b4:	48 2d 88 0c 00 00    	sub    $0xc88,%rax
  4019ba:	f3 0f 10 00          	movss  (%rax),%xmm0
  4019be:	f3 0f 58 c1          	addss  %xmm1,%xmm0
  4019c2:	f3 0f 11 85 68 f3 ff 	movss  %xmm0,-0xc98(%rbp)
  4019c9:	ff 
  4019ca:	f3 0f 10 8d 6c f3 ff 	movss  -0xc94(%rbp),%xmm1
  4019d1:	ff 
  4019d2:	8b 85 20 f3 ff ff    	mov    -0xce0(%rbp),%eax
  4019d8:	48 98                	cltq   
  4019da:	48 c1 e0 04          	shl    $0x4,%rax
  4019de:	48 01 e8             	add    %rbp,%rax
  4019e1:	48 2d 84 0c 00 00    	sub    $0xc84,%rax
  4019e7:	f3 0f 10 00          	movss  (%rax),%xmm0
  4019eb:	f3 0f 58 c1          	addss  %xmm1,%xmm0
  4019ef:	f3 0f 11 85 6c f3 ff 	movss  %xmm0,-0xc94(%rbp)
  4019f6:	ff 
  4019f7:	83 85 20 f3 ff ff 01 	addl   $0x1,-0xce0(%rbp)
  4019fe:	f3 0f 10 8d 60 f3 ff 	movss  -0xca0(%rbp),%xmm1
  401a05:	ff 
  401a06:	8b 85 20 f3 ff ff    	mov    -0xce0(%rbp),%eax
  401a0c:	48 98                	cltq   
  401a0e:	48 c1 e0 04          	shl    $0x4,%rax
  401a12:	48 01 e8             	add    %rbp,%rax
  401a15:	48 2d 90 0c 00 00    	sub    $0xc90,%rax
  401a1b:	f3 0f 10 00          	movss  (%rax),%xmm0
  401a1f:	f3 0f 58 c1          	addss  %xmm1,%xmm0
  401a23:	f3 0f 11 85 60 f3 ff 	movss  %xmm0,-0xca0(%rbp)
  401a2a:	ff 
  401a2b:	f3 0f 10 8d 64 f3 ff 	movss  -0xc9c(%rbp),%xmm1
  401a32:	ff 
  401a33:	8b 85 20 f3 ff ff    	mov    -0xce0(%rbp),%eax
  401a39:	48 98                	cltq   
  401a3b:	48 c1 e0 04          	shl    $0x4,%rax
  401a3f:	48 01 e8             	add    %rbp,%rax
  401a42:	48 2d 8c 0c 00 00    	sub    $0xc8c,%rax
  401a48:	f3 0f 10 00          	movss  (%rax),%xmm0
  401a4c:	f3 0f 58 c1          	addss  %xmm1,%xmm0
  401a50:	f3 0f 11 85 64 f3 ff 	movss  %xmm0,-0xc9c(%rbp)
  401a57:	ff 
  401a58:	f3 0f 10 8d 68 f3 ff 	movss  -0xc98(%rbp),%xmm1
  401a5f:	ff 
  401a60:	8b 85 20 f3 ff ff    	mov    -0xce0(%rbp),%eax
  401a66:	48 98                	cltq   
  401a68:	48 c1 e0 04          	shl    $0x4,%rax
  401a6c:	48 01 e8             	add    %rbp,%rax
  401a6f:	48 2d 88 0c 00 00    	sub    $0xc88,%rax
  401a75:	f3 0f 10 00          	movss  (%rax),%xmm0
  401a79:	f3 0f 58 c1          	addss  %xmm1,%xmm0
  401a7d:	f3 0f 11 85 68 f3 ff 	movss  %xmm0,-0xc98(%rbp)
  401a84:	ff 
  401a85:	f3 0f 10 8d 6c f3 ff 	movss  -0xc94(%rbp),%xmm1
  401a8c:	ff 
  401a8d:	8b 85 20 f3 ff ff    	mov    -0xce0(%rbp),%eax
  401a93:	48 98                	cltq   
  401a95:	48 c1 e0 04          	shl    $0x4,%rax
  401a99:	48 01 e8             	add    %rbp,%rax
  401a9c:	48 2d 84 0c 00 00    	sub    $0xc84,%rax
  401aa2:	f3 0f 10 00          	movss  (%rax),%xmm0
  401aa6:	f3 0f 58 c1          	addss  %xmm1,%xmm0
  401aaa:	f3 0f 11 85 6c f3 ff 	movss  %xmm0,-0xc94(%rbp)
  401ab1:	ff 
  401ab2:	83 85 20 f3 ff ff 01 	addl   $0x1,-0xce0(%rbp)
  401ab9:	f3 0f 10 8d 60 f3 ff 	movss  -0xca0(%rbp),%xmm1
  401ac0:	ff 
  401ac1:	8b 85 20 f3 ff ff    	mov    -0xce0(%rbp),%eax
  401ac7:	48 98                	cltq   
  401ac9:	48 c1 e0 04          	shl    $0x4,%rax
  401acd:	48 01 e8             	add    %rbp,%rax
  401ad0:	48 2d 90 0c 00 00    	sub    $0xc90,%rax
  401ad6:	f3 0f 10 00          	movss  (%rax),%xmm0
  401ada:	f3 0f 58 c1          	addss  %xmm1,%xmm0
  401ade:	f3 0f 11 85 60 f3 ff 	movss  %xmm0,-0xca0(%rbp)
  401ae5:	ff 
  401ae6:	f3 0f 10 8d 64 f3 ff 	movss  -0xc9c(%rbp),%xmm1
  401aed:	ff 
  401aee:	8b 85 20 f3 ff ff    	mov    -0xce0(%rbp),%eax
  401af4:	48 98                	cltq   
  401af6:	48 c1 e0 04          	shl    $0x4,%rax
  401afa:	48 01 e8             	add    %rbp,%rax
  401afd:	48 2d 8c 0c 00 00    	sub    $0xc8c,%rax
  401b03:	f3 0f 10 00          	movss  (%rax),%xmm0
  401b07:	f3 0f 58 c1          	addss  %xmm1,%xmm0
  401b0b:	f3 0f 11 85 64 f3 ff 	movss  %xmm0,-0xc9c(%rbp)
  401b12:	ff 
  401b13:	f3 0f 10 8d 68 f3 ff 	movss  -0xc98(%rbp),%xmm1
  401b1a:	ff 
  401b1b:	8b 85 20 f3 ff ff    	mov    -0xce0(%rbp),%eax
  401b21:	48 98                	cltq   
  401b23:	48 c1 e0 04          	shl    $0x4,%rax
  401b27:	48 01 e8             	add    %rbp,%rax
  401b2a:	48 2d 88 0c 00 00    	sub    $0xc88,%rax
  401b30:	f3 0f 10 00          	movss  (%rax),%xmm0
  401b34:	f3 0f 58 c1          	addss  %xmm1,%xmm0
  401b38:	f3 0f 11 85 68 f3 ff 	movss  %xmm0,-0xc98(%rbp)
  401b3f:	ff 
  401b40:	f3 0f 10 8d 6c f3 ff 	movss  -0xc94(%rbp),%xmm1
  401b47:	ff 
  401b48:	8b 85 20 f3 ff ff    	mov    -0xce0(%rbp),%eax
  401b4e:	48 98                	cltq   
  401b50:	48 c1 e0 04          	shl    $0x4,%rax
  401b54:	48 01 e8             	add    %rbp,%rax
  401b57:	48 2d 84 0c 00 00    	sub    $0xc84,%rax
  401b5d:	f3 0f 10 00          	movss  (%rax),%xmm0
  401b61:	f3 0f 58 c1          	addss  %xmm1,%xmm0
  401b65:	f3 0f 11 85 6c f3 ff 	movss  %xmm0,-0xc94(%rbp)
  401b6c:	ff 
  401b6d:	83 85 20 f3 ff ff 01 	addl   $0x1,-0xce0(%rbp)
  401b74:	f3 0f 10 8d 60 f3 ff 	movss  -0xca0(%rbp),%xmm1
  401b7b:	ff 
  401b7c:	8b 85 20 f3 ff ff    	mov    -0xce0(%rbp),%eax
  401b82:	48 98                	cltq   
  401b84:	48 c1 e0 04          	shl    $0x4,%rax
  401b88:	48 01 e8             	add    %rbp,%rax
  401b8b:	48 2d 90 0c 00 00    	sub    $0xc90,%rax
  401b91:	f3 0f 10 00          	movss  (%rax),%xmm0
  401b95:	f3 0f 58 c1          	addss  %xmm1,%xmm0
  401b99:	f3 0f 11 85 60 f3 ff 	movss  %xmm0,-0xca0(%rbp)
  401ba0:	ff 
  401ba1:	f3 0f 10 8d 64 f3 ff 	movss  -0xc9c(%rbp),%xmm1
  401ba8:	ff 
  401ba9:	8b 85 20 f3 ff ff    	mov    -0xce0(%rbp),%eax
  401baf:	48 98                	cltq   
  401bb1:	48 c1 e0 04          	shl    $0x4,%rax
  401bb5:	48 01 e8             	add    %rbp,%rax
  401bb8:	48 2d 8c 0c 00 00    	sub    $0xc8c,%rax
  401bbe:	f3 0f 10 00          	movss  (%rax),%xmm0
  401bc2:	f3 0f 58 c1          	addss  %xmm1,%xmm0
  401bc6:	f3 0f 11 85 64 f3 ff 	movss  %xmm0,-0xc9c(%rbp)
  401bcd:	ff 
  401bce:	f3 0f 10 8d 68 f3 ff 	movss  -0xc98(%rbp),%xmm1
  401bd5:	ff 
  401bd6:	8b 85 20 f3 ff ff    	mov    -0xce0(%rbp),%eax
  401bdc:	48 98                	cltq   
  401bde:	48 c1 e0 04          	shl    $0x4,%rax
  401be2:	48 01 e8             	add    %rbp,%rax
  401be5:	48 2d 88 0c 00 00    	sub    $0xc88,%rax
  401beb:	f3 0f 10 00          	movss  (%rax),%xmm0
  401bef:	f3 0f 58 c1          	addss  %xmm1,%xmm0
  401bf3:	f3 0f 11 85 68 f3 ff 	movss  %xmm0,-0xc98(%rbp)
  401bfa:	ff 
  401bfb:	f3 0f 10 8d 6c f3 ff 	movss  -0xc94(%rbp),%xmm1
  401c02:	ff 
  401c03:	8b 85 20 f3 ff ff    	mov    -0xce0(%rbp),%eax
  401c09:	48 98                	cltq   
  401c0b:	48 c1 e0 04          	shl    $0x4,%rax
  401c0f:	48 01 e8             	add    %rbp,%rax
  401c12:	48 2d 84 0c 00 00    	sub    $0xc84,%rax
  401c18:	f3 0f 10 00          	movss  (%rax),%xmm0
  401c1c:	f3 0f 58 c1          	addss  %xmm1,%xmm0
  401c20:	f3 0f 11 85 6c f3 ff 	movss  %xmm0,-0xc94(%rbp)
  401c27:	ff 
  401c28:	83 85 20 f3 ff ff 01 	addl   $0x1,-0xce0(%rbp)
  401c2f:	f3 0f 10 8d 60 f3 ff 	movss  -0xca0(%rbp),%xmm1
  401c36:	ff 
  401c37:	8b 85 20 f3 ff ff    	mov    -0xce0(%rbp),%eax
  401c3d:	48 98                	cltq   
  401c3f:	48 c1 e0 04          	shl    $0x4,%rax
  401c43:	48 01 e8             	add    %rbp,%rax
  401c46:	48 2d 90 0c 00 00    	sub    $0xc90,%rax
  401c4c:	f3 0f 10 00          	movss  (%rax),%xmm0
  401c50:	f3 0f 58 c1          	addss  %xmm1,%xmm0
  401c54:	f3 0f 11 85 60 f3 ff 	movss  %xmm0,-0xca0(%rbp)
  401c5b:	ff 
  401c5c:	f3 0f 10 8d 64 f3 ff 	movss  -0xc9c(%rbp),%xmm1
  401c63:	ff 
  401c64:	8b 85 20 f3 ff ff    	mov    -0xce0(%rbp),%eax
  401c6a:	48 98                	cltq   
  401c6c:	48 c1 e0 04          	shl    $0x4,%rax
  401c70:	48 01 e8             	add    %rbp,%rax
  401c73:	48 2d 8c 0c 00 00    	sub    $0xc8c,%rax
  401c79:	f3 0f 10 00          	movss  (%rax),%xmm0
  401c7d:	f3 0f 58 c1          	addss  %xmm1,%xmm0
  401c81:	f3 0f 11 85 64 f3 ff 	movss  %xmm0,-0xc9c(%rbp)
  401c88:	ff 
  401c89:	f3 0f 10 8d 68 f3 ff 	movss  -0xc98(%rbp),%xmm1
  401c90:	ff 
  401c91:	8b 85 20 f3 ff ff    	mov    -0xce0(%rbp),%eax
  401c97:	48 98                	cltq   
  401c99:	48 c1 e0 04          	shl    $0x4,%rax
  401c9d:	48 01 e8             	add    %rbp,%rax
  401ca0:	48 2d 88 0c 00 00    	sub    $0xc88,%rax
  401ca6:	f3 0f 10 00          	movss  (%rax),%xmm0
  401caa:	f3 0f 58 c1          	addss  %xmm1,%xmm0
  401cae:	f3 0f 11 85 68 f3 ff 	movss  %xmm0,-0xc98(%rbp)
  401cb5:	ff 
  401cb6:	f3 0f 10 8d 6c f3 ff 	movss  -0xc94(%rbp),%xmm1
  401cbd:	ff 
  401cbe:	8b 85 20 f3 ff ff    	mov    -0xce0(%rbp),%eax
  401cc4:	48 98                	cltq   
  401cc6:	48 c1 e0 04          	shl    $0x4,%rax
  401cca:	48 01 e8             	add    %rbp,%rax
  401ccd:	48 2d 84 0c 00 00    	sub    $0xc84,%rax
  401cd3:	f3 0f 10 00          	movss  (%rax),%xmm0
  401cd7:	f3 0f 58 c1          	addss  %xmm1,%xmm0
  401cdb:	f3 0f 11 85 6c f3 ff 	movss  %xmm0,-0xc94(%rbp)
  401ce2:	ff 
  401ce3:	83 85 20 f3 ff ff 01 	addl   $0x1,-0xce0(%rbp)
  401cea:	f3 0f 10 8d 60 f3 ff 	movss  -0xca0(%rbp),%xmm1
  401cf1:	ff 
  401cf2:	8b 85 20 f3 ff ff    	mov    -0xce0(%rbp),%eax
  401cf8:	48 98                	cltq   
  401cfa:	48 c1 e0 04          	shl    $0x4,%rax
  401cfe:	48 01 e8             	add    %rbp,%rax
  401d01:	48 2d 90 0c 00 00    	sub    $0xc90,%rax
  401d07:	f3 0f 10 00          	movss  (%rax),%xmm0
  401d0b:	f3 0f 58 c1          	addss  %xmm1,%xmm0
  401d0f:	f3 0f 11 85 60 f3 ff 	movss  %xmm0,-0xca0(%rbp)
  401d16:	ff 
  401d17:	f3 0f 10 8d 64 f3 ff 	movss  -0xc9c(%rbp),%xmm1
  401d1e:	ff 
  401d1f:	8b 85 20 f3 ff ff    	mov    -0xce0(%rbp),%eax
  401d25:	48 98                	cltq   
  401d27:	48 c1 e0 04          	shl    $0x4,%rax
  401d2b:	48 01 e8             	add    %rbp,%rax
  401d2e:	48 2d 8c 0c 00 00    	sub    $0xc8c,%rax
  401d34:	f3 0f 10 00          	movss  (%rax),%xmm0
  401d38:	f3 0f 58 c1          	addss  %xmm1,%xmm0
  401d3c:	f3 0f 11 85 64 f3 ff 	movss  %xmm0,-0xc9c(%rbp)
  401d43:	ff 
  401d44:	f3 0f 10 8d 68 f3 ff 	movss  -0xc98(%rbp),%xmm1
  401d4b:	ff 
  401d4c:	8b 85 20 f3 ff ff    	mov    -0xce0(%rbp),%eax
  401d52:	48 98                	cltq   
  401d54:	48 c1 e0 04          	shl    $0x4,%rax
  401d58:	48 01 e8             	add    %rbp,%rax
  401d5b:	48 2d 88 0c 00 00    	sub    $0xc88,%rax
  401d61:	f3 0f 10 00          	movss  (%rax),%xmm0
  401d65:	f3 0f 58 c1          	addss  %xmm1,%xmm0
  401d69:	f3 0f 11 85 68 f3 ff 	movss  %xmm0,-0xc98(%rbp)
  401d70:	ff 
  401d71:	f3 0f 10 8d 6c f3 ff 	movss  -0xc94(%rbp),%xmm1
  401d78:	ff 
  401d79:	8b 85 20 f3 ff ff    	mov    -0xce0(%rbp),%eax
  401d7f:	48 98                	cltq   
  401d81:	48 c1 e0 04          	shl    $0x4,%rax
  401d85:	48 01 e8             	add    %rbp,%rax
  401d88:	48 2d 84 0c 00 00    	sub    $0xc84,%rax
  401d8e:	f3 0f 10 00          	movss  (%rax),%xmm0
  401d92:	f3 0f 58 c1          	addss  %xmm1,%xmm0
  401d96:	f3 0f 11 85 6c f3 ff 	movss  %xmm0,-0xc94(%rbp)
  401d9d:	ff 
  401d9e:	83 85 20 f3 ff ff 01 	addl   $0x1,-0xce0(%rbp)
  401da5:	f3 0f 10 8d 60 f3 ff 	movss  -0xca0(%rbp),%xmm1
  401dac:	ff 
  401dad:	8b 85 20 f3 ff ff    	mov    -0xce0(%rbp),%eax
  401db3:	48 98                	cltq   
  401db5:	48 c1 e0 04          	shl    $0x4,%rax
  401db9:	48 01 e8             	add    %rbp,%rax
  401dbc:	48 2d 90 0c 00 00    	sub    $0xc90,%rax
  401dc2:	f3 0f 10 00          	movss  (%rax),%xmm0
  401dc6:	f3 0f 58 c1          	addss  %xmm1,%xmm0
  401dca:	f3 0f 11 85 60 f3 ff 	movss  %xmm0,-0xca0(%rbp)
  401dd1:	ff 
  401dd2:	f3 0f 10 8d 64 f3 ff 	movss  -0xc9c(%rbp),%xmm1
  401dd9:	ff 
  401dda:	8b 85 20 f3 ff ff    	mov    -0xce0(%rbp),%eax
  401de0:	48 98                	cltq   
  401de2:	48 c1 e0 04          	shl    $0x4,%rax
  401de6:	48 01 e8             	add    %rbp,%rax
  401de9:	48 2d 8c 0c 00 00    	sub    $0xc8c,%rax
  401def:	f3 0f 10 00          	movss  (%rax),%xmm0
  401df3:	f3 0f 58 c1          	addss  %xmm1,%xmm0
  401df7:	f3 0f 11 85 64 f3 ff 	movss  %xmm0,-0xc9c(%rbp)
  401dfe:	ff 
  401dff:	f3 0f 10 8d 68 f3 ff 	movss  -0xc98(%rbp),%xmm1
  401e06:	ff 
  401e07:	8b 85 20 f3 ff ff    	mov    -0xce0(%rbp),%eax
  401e0d:	48 98                	cltq   
  401e0f:	48 c1 e0 04          	shl    $0x4,%rax
  401e13:	48 01 e8             	add    %rbp,%rax
  401e16:	48 2d 88 0c 00 00    	sub    $0xc88,%rax
  401e1c:	f3 0f 10 00          	movss  (%rax),%xmm0
  401e20:	f3 0f 58 c1          	addss  %xmm1,%xmm0
  401e24:	f3 0f 11 85 68 f3 ff 	movss  %xmm0,-0xc98(%rbp)
  401e2b:	ff 
  401e2c:	f3 0f 10 8d 6c f3 ff 	movss  -0xc94(%rbp),%xmm1
  401e33:	ff 
  401e34:	8b 85 20 f3 ff ff    	mov    -0xce0(%rbp),%eax
  401e3a:	48 98                	cltq   
  401e3c:	48 c1 e0 04          	shl    $0x4,%rax
  401e40:	48 01 e8             	add    %rbp,%rax
  401e43:	48 2d 84 0c 00 00    	sub    $0xc84,%rax
  401e49:	f3 0f 10 00          	movss  (%rax),%xmm0
  401e4d:	f3 0f 58 c1          	addss  %xmm1,%xmm0
  401e51:	f3 0f 11 85 6c f3 ff 	movss  %xmm0,-0xc94(%rbp)
  401e58:	ff 
  401e59:	83 85 20 f3 ff ff 01 	addl   $0x1,-0xce0(%rbp)
  401e60:	f3 0f 10 8d 60 f3 ff 	movss  -0xca0(%rbp),%xmm1
  401e67:	ff 
  401e68:	8b 85 20 f3 ff ff    	mov    -0xce0(%rbp),%eax
  401e6e:	48 98                	cltq   
  401e70:	48 c1 e0 04          	shl    $0x4,%rax
  401e74:	48 01 e8             	add    %rbp,%rax
  401e77:	48 2d 90 0c 00 00    	sub    $0xc90,%rax
  401e7d:	f3 0f 10 00          	movss  (%rax),%xmm0
  401e81:	f3 0f 58 c1          	addss  %xmm1,%xmm0
  401e85:	f3 0f 11 85 60 f3 ff 	movss  %xmm0,-0xca0(%rbp)
  401e8c:	ff 
  401e8d:	f3 0f 10 8d 64 f3 ff 	movss  -0xc9c(%rbp),%xmm1
  401e94:	ff 
  401e95:	8b 85 20 f3 ff ff    	mov    -0xce0(%rbp),%eax
  401e9b:	48 98                	cltq   
  401e9d:	48 c1 e0 04          	shl    $0x4,%rax
  401ea1:	48 01 e8             	add    %rbp,%rax
  401ea4:	48 2d 8c 0c 00 00    	sub    $0xc8c,%rax
  401eaa:	f3 0f 10 00          	movss  (%rax),%xmm0
  401eae:	f3 0f 58 c1          	addss  %xmm1,%xmm0
  401eb2:	f3 0f 11 85 64 f3 ff 	movss  %xmm0,-0xc9c(%rbp)
  401eb9:	ff 
  401eba:	f3 0f 10 8d 68 f3 ff 	movss  -0xc98(%rbp),%xmm1
  401ec1:	ff 
  401ec2:	8b 85 20 f3 ff ff    	mov    -0xce0(%rbp),%eax
  401ec8:	48 98                	cltq   
  401eca:	48 c1 e0 04          	shl    $0x4,%rax
  401ece:	48 01 e8             	add    %rbp,%rax
  401ed1:	48 2d 88 0c 00 00    	sub    $0xc88,%rax
  401ed7:	f3 0f 10 00          	movss  (%rax),%xmm0
  401edb:	f3 0f 58 c1          	addss  %xmm1,%xmm0
  401edf:	f3 0f 11 85 68 f3 ff 	movss  %xmm0,-0xc98(%rbp)
  401ee6:	ff 
  401ee7:	f3 0f 10 8d 6c f3 ff 	movss  -0xc94(%rbp),%xmm1
  401eee:	ff 
  401eef:	8b 85 20 f3 ff ff    	mov    -0xce0(%rbp),%eax
  401ef5:	48 98                	cltq   
  401ef7:	48 c1 e0 04          	shl    $0x4,%rax
  401efb:	48 01 e8             	add    %rbp,%rax
  401efe:	48 2d 84 0c 00 00    	sub    $0xc84,%rax
  401f04:	f3 0f 10 00          	movss  (%rax),%xmm0
  401f08:	f3 0f 58 c1          	addss  %xmm1,%xmm0
  401f0c:	f3 0f 11 85 6c f3 ff 	movss  %xmm0,-0xc94(%rbp)
  401f13:	ff 
  401f14:	83 85 20 f3 ff ff 01 	addl   $0x1,-0xce0(%rbp)
  401f1b:	f3 0f 10 8d 60 f3 ff 	movss  -0xca0(%rbp),%xmm1
  401f22:	ff 
  401f23:	8b 85 20 f3 ff ff    	mov    -0xce0(%rbp),%eax
  401f29:	48 98                	cltq   
  401f2b:	48 c1 e0 04          	shl    $0x4,%rax
  401f2f:	48 01 e8             	add    %rbp,%rax
  401f32:	48 2d 90 0c 00 00    	sub    $0xc90,%rax
  401f38:	f3 0f 10 00          	movss  (%rax),%xmm0
  401f3c:	f3 0f 58 c1          	addss  %xmm1,%xmm0
  401f40:	f3 0f 11 85 60 f3 ff 	movss  %xmm0,-0xca0(%rbp)
  401f47:	ff 
  401f48:	f3 0f 10 8d 64 f3 ff 	movss  -0xc9c(%rbp),%xmm1
  401f4f:	ff 
  401f50:	8b 85 20 f3 ff ff    	mov    -0xce0(%rbp),%eax
  401f56:	48 98                	cltq   
  401f58:	48 c1 e0 04          	shl    $0x4,%rax
  401f5c:	48 01 e8             	add    %rbp,%rax
  401f5f:	48 2d 8c 0c 00 00    	sub    $0xc8c,%rax
  401f65:	f3 0f 10 00          	movss  (%rax),%xmm0
  401f69:	f3 0f 58 c1          	addss  %xmm1,%xmm0
  401f6d:	f3 0f 11 85 64 f3 ff 	movss  %xmm0,-0xc9c(%rbp)
  401f74:	ff 
  401f75:	f3 0f 10 8d 68 f3 ff 	movss  -0xc98(%rbp),%xmm1
  401f7c:	ff 
  401f7d:	8b 85 20 f3 ff ff    	mov    -0xce0(%rbp),%eax
  401f83:	48 98                	cltq   
  401f85:	48 c1 e0 04          	shl    $0x4,%rax
  401f89:	48 01 e8             	add    %rbp,%rax
  401f8c:	48 2d 88 0c 00 00    	sub    $0xc88,%rax
  401f92:	f3 0f 10 00          	movss  (%rax),%xmm0
  401f96:	f3 0f 58 c1          	addss  %xmm1,%xmm0
  401f9a:	f3 0f 11 85 68 f3 ff 	movss  %xmm0,-0xc98(%rbp)
  401fa1:	ff 
  401fa2:	f3 0f 10 8d 6c f3 ff 	movss  -0xc94(%rbp),%xmm1
  401fa9:	ff 
  401faa:	8b 85 20 f3 ff ff    	mov    -0xce0(%rbp),%eax
  401fb0:	48 98                	cltq   
  401fb2:	48 c1 e0 04          	shl    $0x4,%rax
  401fb6:	48 01 e8             	add    %rbp,%rax
  401fb9:	48 2d 84 0c 00 00    	sub    $0xc84,%rax
  401fbf:	f3 0f 10 00          	movss  (%rax),%xmm0
  401fc3:	f3 0f 58 c1          	addss  %xmm1,%xmm0
  401fc7:	f3 0f 11 85 6c f3 ff 	movss  %xmm0,-0xc94(%rbp)
  401fce:	ff 
  401fcf:	83 85 20 f3 ff ff 01 	addl   $0x1,-0xce0(%rbp)
  401fd6:	f3 0f 10 8d 60 f3 ff 	movss  -0xca0(%rbp),%xmm1
  401fdd:	ff 
  401fde:	8b 85 20 f3 ff ff    	mov    -0xce0(%rbp),%eax
  401fe4:	48 98                	cltq   
  401fe6:	48 c1 e0 04          	shl    $0x4,%rax
  401fea:	48 01 e8             	add    %rbp,%rax
  401fed:	48 2d 90 0c 00 00    	sub    $0xc90,%rax
  401ff3:	f3 0f 10 00          	movss  (%rax),%xmm0
  401ff7:	f3 0f 58 c1          	addss  %xmm1,%xmm0
  401ffb:	f3 0f 11 85 60 f3 ff 	movss  %xmm0,-0xca0(%rbp)
  402002:	ff 
  402003:	f3 0f 10 8d 64 f3 ff 	movss  -0xc9c(%rbp),%xmm1
  40200a:	ff 
  40200b:	8b 85 20 f3 ff ff    	mov    -0xce0(%rbp),%eax
  402011:	48 98                	cltq   
  402013:	48 c1 e0 04          	shl    $0x4,%rax
  402017:	48 01 e8             	add    %rbp,%rax
  40201a:	48 2d 8c 0c 00 00    	sub    $0xc8c,%rax
  402020:	f3 0f 10 00          	movss  (%rax),%xmm0
  402024:	f3 0f 58 c1          	addss  %xmm1,%xmm0
  402028:	f3 0f 11 85 64 f3 ff 	movss  %xmm0,-0xc9c(%rbp)
  40202f:	ff 
  402030:	f3 0f 10 8d 68 f3 ff 	movss  -0xc98(%rbp),%xmm1
  402037:	ff 
  402038:	8b 85 20 f3 ff ff    	mov    -0xce0(%rbp),%eax
  40203e:	48 98                	cltq   
  402040:	48 c1 e0 04          	shl    $0x4,%rax
  402044:	48 01 e8             	add    %rbp,%rax
  402047:	48 2d 88 0c 00 00    	sub    $0xc88,%rax
  40204d:	f3 0f 10 00          	movss  (%rax),%xmm0
  402051:	f3 0f 58 c1          	addss  %xmm1,%xmm0
  402055:	f3 0f 11 85 68 f3 ff 	movss  %xmm0,-0xc98(%rbp)
  40205c:	ff 
  40205d:	f3 0f 10 8d 6c f3 ff 	movss  -0xc94(%rbp),%xmm1
  402064:	ff 
  402065:	8b 85 20 f3 ff ff    	mov    -0xce0(%rbp),%eax
  40206b:	48 98                	cltq   
  40206d:	48 c1 e0 04          	shl    $0x4,%rax
  402071:	48 01 e8             	add    %rbp,%rax
  402074:	48 2d 84 0c 00 00    	sub    $0xc84,%rax
  40207a:	f3 0f 10 00          	movss  (%rax),%xmm0
  40207e:	f3 0f 58 c1          	addss  %xmm1,%xmm0
  402082:	f3 0f 11 85 6c f3 ff 	movss  %xmm0,-0xc94(%rbp)
  402089:	ff 
  40208a:	83 85 20 f3 ff ff 01 	addl   $0x1,-0xce0(%rbp)
  402091:	f3 0f 10 8d 60 f3 ff 	movss  -0xca0(%rbp),%xmm1
  402098:	ff 
  402099:	8b 85 20 f3 ff ff    	mov    -0xce0(%rbp),%eax
  40209f:	48 98                	cltq   
  4020a1:	48 c1 e0 04          	shl    $0x4,%rax
  4020a5:	48 01 e8             	add    %rbp,%rax
  4020a8:	48 2d 90 0c 00 00    	sub    $0xc90,%rax
  4020ae:	f3 0f 10 00          	movss  (%rax),%xmm0
  4020b2:	f3 0f 58 c1          	addss  %xmm1,%xmm0
  4020b6:	f3 0f 11 85 60 f3 ff 	movss  %xmm0,-0xca0(%rbp)
  4020bd:	ff 
  4020be:	f3 0f 10 8d 64 f3 ff 	movss  -0xc9c(%rbp),%xmm1
  4020c5:	ff 
  4020c6:	8b 85 20 f3 ff ff    	mov    -0xce0(%rbp),%eax
  4020cc:	48 98                	cltq   
  4020ce:	48 c1 e0 04          	shl    $0x4,%rax
  4020d2:	48 01 e8             	add    %rbp,%rax
  4020d5:	48 2d 8c 0c 00 00    	sub    $0xc8c,%rax
  4020db:	f3 0f 10 00          	movss  (%rax),%xmm0
  4020df:	f3 0f 58 c1          	addss  %xmm1,%xmm0
  4020e3:	f3 0f 11 85 64 f3 ff 	movss  %xmm0,-0xc9c(%rbp)
  4020ea:	ff 
  4020eb:	f3 0f 10 8d 68 f3 ff 	movss  -0xc98(%rbp),%xmm1
  4020f2:	ff 
  4020f3:	8b 85 20 f3 ff ff    	mov    -0xce0(%rbp),%eax
  4020f9:	48 98                	cltq   
  4020fb:	48 c1 e0 04          	shl    $0x4,%rax
  4020ff:	48 01 e8             	add    %rbp,%rax
  402102:	48 2d 88 0c 00 00    	sub    $0xc88,%rax
  402108:	f3 0f 10 00          	movss  (%rax),%xmm0
  40210c:	f3 0f 58 c1          	addss  %xmm1,%xmm0
  402110:	f3 0f 11 85 68 f3 ff 	movss  %xmm0,-0xc98(%rbp)
  402117:	ff 
  402118:	f3 0f 10 8d 6c f3 ff 	movss  -0xc94(%rbp),%xmm1
  40211f:	ff 
  402120:	8b 85 20 f3 ff ff    	mov    -0xce0(%rbp),%eax
  402126:	48 98                	cltq   
  402128:	48 c1 e0 04          	shl    $0x4,%rax
  40212c:	48 01 e8             	add    %rbp,%rax
  40212f:	48 2d 84 0c 00 00    	sub    $0xc84,%rax
  402135:	f3 0f 10 00          	movss  (%rax),%xmm0
  402139:	f3 0f 58 c1          	addss  %xmm1,%xmm0
  40213d:	f3 0f 11 85 6c f3 ff 	movss  %xmm0,-0xc94(%rbp)
  402144:	ff 
  402145:	83 85 20 f3 ff ff 01 	addl   $0x1,-0xce0(%rbp)
  40214c:	f3 0f 10 8d 60 f3 ff 	movss  -0xca0(%rbp),%xmm1
  402153:	ff 
  402154:	8b 85 20 f3 ff ff    	mov    -0xce0(%rbp),%eax
  40215a:	48 98                	cltq   
  40215c:	48 c1 e0 04          	shl    $0x4,%rax
  402160:	48 01 e8             	add    %rbp,%rax
  402163:	48 2d 90 0c 00 00    	sub    $0xc90,%rax
  402169:	f3 0f 10 00          	movss  (%rax),%xmm0
  40216d:	f3 0f 58 c1          	addss  %xmm1,%xmm0
  402171:	f3 0f 11 85 60 f3 ff 	movss  %xmm0,-0xca0(%rbp)
  402178:	ff 
  402179:	f3 0f 10 8d 64 f3 ff 	movss  -0xc9c(%rbp),%xmm1
  402180:	ff 
  402181:	8b 85 20 f3 ff ff    	mov    -0xce0(%rbp),%eax
  402187:	48 98                	cltq   
  402189:	48 c1 e0 04          	shl    $0x4,%rax
  40218d:	48 01 e8             	add    %rbp,%rax
  402190:	48 2d 8c 0c 00 00    	sub    $0xc8c,%rax
  402196:	f3 0f 10 00          	movss  (%rax),%xmm0
  40219a:	f3 0f 58 c1          	addss  %xmm1,%xmm0
  40219e:	f3 0f 11 85 64 f3 ff 	movss  %xmm0,-0xc9c(%rbp)
  4021a5:	ff 
  4021a6:	f3 0f 10 8d 68 f3 ff 	movss  -0xc98(%rbp),%xmm1
  4021ad:	ff 
  4021ae:	8b 85 20 f3 ff ff    	mov    -0xce0(%rbp),%eax
  4021b4:	48 98                	cltq   
  4021b6:	48 c1 e0 04          	shl    $0x4,%rax
  4021ba:	48 01 e8             	add    %rbp,%rax
  4021bd:	48 2d 88 0c 00 00    	sub    $0xc88,%rax
  4021c3:	f3 0f 10 00          	movss  (%rax),%xmm0
  4021c7:	f3 0f 58 c1          	addss  %xmm1,%xmm0
  4021cb:	f3 0f 11 85 68 f3 ff 	movss  %xmm0,-0xc98(%rbp)
  4021d2:	ff 
  4021d3:	f3 0f 10 8d 6c f3 ff 	movss  -0xc94(%rbp),%xmm1
  4021da:	ff 
  4021db:	8b 85 20 f3 ff ff    	mov    -0xce0(%rbp),%eax
  4021e1:	48 98                	cltq   
  4021e3:	48 c1 e0 04          	shl    $0x4,%rax
  4021e7:	48 01 e8             	add    %rbp,%rax
  4021ea:	48 2d 84 0c 00 00    	sub    $0xc84,%rax
  4021f0:	f3 0f 10 00          	movss  (%rax),%xmm0
  4021f4:	f3 0f 58 c1          	addss  %xmm1,%xmm0
  4021f8:	f3 0f 11 85 6c f3 ff 	movss  %xmm0,-0xc94(%rbp)
  4021ff:	ff 
  402200:	83 85 20 f3 ff ff 01 	addl   $0x1,-0xce0(%rbp)
  402207:	f3 0f 10 8d 60 f3 ff 	movss  -0xca0(%rbp),%xmm1
  40220e:	ff 
  40220f:	8b 85 20 f3 ff ff    	mov    -0xce0(%rbp),%eax
  402215:	48 98                	cltq   
  402217:	48 c1 e0 04          	shl    $0x4,%rax
  40221b:	48 01 e8             	add    %rbp,%rax
  40221e:	48 2d 90 0c 00 00    	sub    $0xc90,%rax
  402224:	f3 0f 10 00          	movss  (%rax),%xmm0
  402228:	f3 0f 58 c1          	addss  %xmm1,%xmm0
  40222c:	f3 0f 11 85 60 f3 ff 	movss  %xmm0,-0xca0(%rbp)
  402233:	ff 
  402234:	f3 0f 10 8d 64 f3 ff 	movss  -0xc9c(%rbp),%xmm1
  40223b:	ff 
  40223c:	8b 85 20 f3 ff ff    	mov    -0xce0(%rbp),%eax
  402242:	48 98                	cltq   
  402244:	48 c1 e0 04          	shl    $0x4,%rax
  402248:	48 01 e8             	add    %rbp,%rax
  40224b:	48 2d 8c 0c 00 00    	sub    $0xc8c,%rax
  402251:	f3 0f 10 00          	movss  (%rax),%xmm0
  402255:	f3 0f 58 c1          	addss  %xmm1,%xmm0
  402259:	f3 0f 11 85 64 f3 ff 	movss  %xmm0,-0xc9c(%rbp)
  402260:	ff 
  402261:	f3 0f 10 8d 68 f3 ff 	movss  -0xc98(%rbp),%xmm1
  402268:	ff 
  402269:	8b 85 20 f3 ff ff    	mov    -0xce0(%rbp),%eax
  40226f:	48 98                	cltq   
  402271:	48 c1 e0 04          	shl    $0x4,%rax
  402275:	48 01 e8             	add    %rbp,%rax
  402278:	48 2d 88 0c 00 00    	sub    $0xc88,%rax
  40227e:	f3 0f 10 00          	movss  (%rax),%xmm0
  402282:	f3 0f 58 c1          	addss  %xmm1,%xmm0
  402286:	f3 0f 11 85 68 f3 ff 	movss  %xmm0,-0xc98(%rbp)
  40228d:	ff 
  40228e:	f3 0f 10 8d 6c f3 ff 	movss  -0xc94(%rbp),%xmm1
  402295:	ff 
  402296:	8b 85 20 f3 ff ff    	mov    -0xce0(%rbp),%eax
  40229c:	48 98                	cltq   
  40229e:	48 c1 e0 04          	shl    $0x4,%rax
  4022a2:	48 01 e8             	add    %rbp,%rax
  4022a5:	48 2d 84 0c 00 00    	sub    $0xc84,%rax
  4022ab:	f3 0f 10 00          	movss  (%rax),%xmm0
  4022af:	f3 0f 58 c1          	addss  %xmm1,%xmm0
  4022b3:	f3 0f 11 85 6c f3 ff 	movss  %xmm0,-0xc94(%rbp)
  4022ba:	ff 
  4022bb:	83 85 20 f3 ff ff 01 	addl   $0x1,-0xce0(%rbp)
  4022c2:	f3 0f 10 8d 60 f3 ff 	movss  -0xca0(%rbp),%xmm1
  4022c9:	ff 
  4022ca:	8b 85 20 f3 ff ff    	mov    -0xce0(%rbp),%eax
  4022d0:	48 98                	cltq   
  4022d2:	48 c1 e0 04          	shl    $0x4,%rax
  4022d6:	48 01 e8             	add    %rbp,%rax
  4022d9:	48 2d 90 0c 00 00    	sub    $0xc90,%rax
  4022df:	f3 0f 10 00          	movss  (%rax),%xmm0
  4022e3:	f3 0f 58 c1          	addss  %xmm1,%xmm0
  4022e7:	f3 0f 11 85 60 f3 ff 	movss  %xmm0,-0xca0(%rbp)
  4022ee:	ff 
  4022ef:	f3 0f 10 8d 64 f3 ff 	movss  -0xc9c(%rbp),%xmm1
  4022f6:	ff 
  4022f7:	8b 85 20 f3 ff ff    	mov    -0xce0(%rbp),%eax
  4022fd:	48 98                	cltq   
  4022ff:	48 c1 e0 04          	shl    $0x4,%rax
  402303:	48 01 e8             	add    %rbp,%rax
  402306:	48 2d 8c 0c 00 00    	sub    $0xc8c,%rax
  40230c:	f3 0f 10 00          	movss  (%rax),%xmm0
  402310:	f3 0f 58 c1          	addss  %xmm1,%xmm0
  402314:	f3 0f 11 85 64 f3 ff 	movss  %xmm0,-0xc9c(%rbp)
  40231b:	ff 
  40231c:	f3 0f 10 8d 68 f3 ff 	movss  -0xc98(%rbp),%xmm1
  402323:	ff 
  402324:	8b 85 20 f3 ff ff    	mov    -0xce0(%rbp),%eax
  40232a:	48 98                	cltq   
  40232c:	48 c1 e0 04          	shl    $0x4,%rax
  402330:	48 01 e8             	add    %rbp,%rax
  402333:	48 2d 88 0c 00 00    	sub    $0xc88,%rax
  402339:	f3 0f 10 00          	movss  (%rax),%xmm0
  40233d:	f3 0f 58 c1          	addss  %xmm1,%xmm0
  402341:	f3 0f 11 85 68 f3 ff 	movss  %xmm0,-0xc98(%rbp)
  402348:	ff 
  402349:	f3 0f 10 8d 6c f3 ff 	movss  -0xc94(%rbp),%xmm1
  402350:	ff 
  402351:	8b 85 20 f3 ff ff    	mov    -0xce0(%rbp),%eax
  402357:	48 98                	cltq   
  402359:	48 c1 e0 04          	shl    $0x4,%rax
  40235d:	48 01 e8             	add    %rbp,%rax
  402360:	48 2d 84 0c 00 00    	sub    $0xc84,%rax
  402366:	f3 0f 10 00          	movss  (%rax),%xmm0
  40236a:	f3 0f 58 c1          	addss  %xmm1,%xmm0
  40236e:	f3 0f 11 85 6c f3 ff 	movss  %xmm0,-0xc94(%rbp)
  402375:	ff 
  402376:	83 85 20 f3 ff ff 01 	addl   $0x1,-0xce0(%rbp)
  40237d:	f3 0f 10 8d 60 f3 ff 	movss  -0xca0(%rbp),%xmm1
  402384:	ff 
  402385:	8b 85 20 f3 ff ff    	mov    -0xce0(%rbp),%eax
  40238b:	48 98                	cltq   
  40238d:	48 c1 e0 04          	shl    $0x4,%rax
  402391:	48 01 e8             	add    %rbp,%rax
  402394:	48 2d 90 0c 00 00    	sub    $0xc90,%rax
  40239a:	f3 0f 10 00          	movss  (%rax),%xmm0
  40239e:	f3 0f 58 c1          	addss  %xmm1,%xmm0
  4023a2:	f3 0f 11 85 60 f3 ff 	movss  %xmm0,-0xca0(%rbp)
  4023a9:	ff 
  4023aa:	f3 0f 10 8d 64 f3 ff 	movss  -0xc9c(%rbp),%xmm1
  4023b1:	ff 
  4023b2:	8b 85 20 f3 ff ff    	mov    -0xce0(%rbp),%eax
  4023b8:	48 98                	cltq   
  4023ba:	48 c1 e0 04          	shl    $0x4,%rax
  4023be:	48 01 e8             	add    %rbp,%rax
  4023c1:	48 2d 8c 0c 00 00    	sub    $0xc8c,%rax
  4023c7:	f3 0f 10 00          	movss  (%rax),%xmm0
  4023cb:	f3 0f 58 c1          	addss  %xmm1,%xmm0
  4023cf:	f3 0f 11 85 64 f3 ff 	movss  %xmm0,-0xc9c(%rbp)
  4023d6:	ff 
  4023d7:	f3 0f 10 8d 68 f3 ff 	movss  -0xc98(%rbp),%xmm1
  4023de:	ff 
  4023df:	8b 85 20 f3 ff ff    	mov    -0xce0(%rbp),%eax
  4023e5:	48 98                	cltq   
  4023e7:	48 c1 e0 04          	shl    $0x4,%rax
  4023eb:	48 01 e8             	add    %rbp,%rax
  4023ee:	48 2d 88 0c 00 00    	sub    $0xc88,%rax
  4023f4:	f3 0f 10 00          	movss  (%rax),%xmm0
  4023f8:	f3 0f 58 c1          	addss  %xmm1,%xmm0
  4023fc:	f3 0f 11 85 68 f3 ff 	movss  %xmm0,-0xc98(%rbp)
  402403:	ff 
  402404:	f3 0f 10 8d 6c f3 ff 	movss  -0xc94(%rbp),%xmm1
  40240b:	ff 
  40240c:	8b 85 20 f3 ff ff    	mov    -0xce0(%rbp),%eax
  402412:	48 98                	cltq   
  402414:	48 c1 e0 04          	shl    $0x4,%rax
  402418:	48 01 e8             	add    %rbp,%rax
  40241b:	48 2d 84 0c 00 00    	sub    $0xc84,%rax
  402421:	f3 0f 10 00          	movss  (%rax),%xmm0
  402425:	f3 0f 58 c1          	addss  %xmm1,%xmm0
  402429:	f3 0f 11 85 6c f3 ff 	movss  %xmm0,-0xc94(%rbp)
  402430:	ff 
  402431:	83 85 20 f3 ff ff 01 	addl   $0x1,-0xce0(%rbp)
  402438:	f3 0f 10 8d 60 f3 ff 	movss  -0xca0(%rbp),%xmm1
  40243f:	ff 
  402440:	8b 85 20 f3 ff ff    	mov    -0xce0(%rbp),%eax
  402446:	48 98                	cltq   
  402448:	48 c1 e0 04          	shl    $0x4,%rax
  40244c:	48 01 e8             	add    %rbp,%rax
  40244f:	48 2d 90 0c 00 00    	sub    $0xc90,%rax
  402455:	f3 0f 10 00          	movss  (%rax),%xmm0
  402459:	f3 0f 58 c1          	addss  %xmm1,%xmm0
  40245d:	f3 0f 11 85 60 f3 ff 	movss  %xmm0,-0xca0(%rbp)
  402464:	ff 
  402465:	f3 0f 10 8d 64 f3 ff 	movss  -0xc9c(%rbp),%xmm1
  40246c:	ff 
  40246d:	8b 85 20 f3 ff ff    	mov    -0xce0(%rbp),%eax
  402473:	48 98                	cltq   
  402475:	48 c1 e0 04          	shl    $0x4,%rax
  402479:	48 01 e8             	add    %rbp,%rax
  40247c:	48 2d 8c 0c 00 00    	sub    $0xc8c,%rax
  402482:	f3 0f 10 00          	movss  (%rax),%xmm0
  402486:	f3 0f 58 c1          	addss  %xmm1,%xmm0
  40248a:	f3 0f 11 85 64 f3 ff 	movss  %xmm0,-0xc9c(%rbp)
  402491:	ff 
  402492:	f3 0f 10 8d 68 f3 ff 	movss  -0xc98(%rbp),%xmm1
  402499:	ff 
  40249a:	8b 85 20 f3 ff ff    	mov    -0xce0(%rbp),%eax
  4024a0:	48 98                	cltq   
  4024a2:	48 c1 e0 04          	shl    $0x4,%rax
  4024a6:	48 01 e8             	add    %rbp,%rax
  4024a9:	48 2d 88 0c 00 00    	sub    $0xc88,%rax
  4024af:	f3 0f 10 00          	movss  (%rax),%xmm0
  4024b3:	f3 0f 58 c1          	addss  %xmm1,%xmm0
  4024b7:	f3 0f 11 85 68 f3 ff 	movss  %xmm0,-0xc98(%rbp)
  4024be:	ff 
  4024bf:	f3 0f 10 8d 6c f3 ff 	movss  -0xc94(%rbp),%xmm1
  4024c6:	ff 
  4024c7:	8b 85 20 f3 ff ff    	mov    -0xce0(%rbp),%eax
  4024cd:	48 98                	cltq   
  4024cf:	48 c1 e0 04          	shl    $0x4,%rax
  4024d3:	48 01 e8             	add    %rbp,%rax
  4024d6:	48 2d 84 0c 00 00    	sub    $0xc84,%rax
  4024dc:	f3 0f 10 00          	movss  (%rax),%xmm0
  4024e0:	f3 0f 58 c1          	addss  %xmm1,%xmm0
  4024e4:	f3 0f 11 85 6c f3 ff 	movss  %xmm0,-0xc94(%rbp)
  4024eb:	ff 
  4024ec:	83 85 20 f3 ff ff 01 	addl   $0x1,-0xce0(%rbp)
  4024f3:	f3 0f 10 8d 60 f3 ff 	movss  -0xca0(%rbp),%xmm1
  4024fa:	ff 
  4024fb:	8b 85 20 f3 ff ff    	mov    -0xce0(%rbp),%eax
  402501:	48 98                	cltq   
  402503:	48 c1 e0 04          	shl    $0x4,%rax
  402507:	48 01 e8             	add    %rbp,%rax
  40250a:	48 2d 90 0c 00 00    	sub    $0xc90,%rax
  402510:	f3 0f 10 00          	movss  (%rax),%xmm0
  402514:	f3 0f 58 c1          	addss  %xmm1,%xmm0
  402518:	f3 0f 11 85 60 f3 ff 	movss  %xmm0,-0xca0(%rbp)
  40251f:	ff 
  402520:	f3 0f 10 8d 64 f3 ff 	movss  -0xc9c(%rbp),%xmm1
  402527:	ff 
  402528:	8b 85 20 f3 ff ff    	mov    -0xce0(%rbp),%eax
  40252e:	48 98                	cltq   
  402530:	48 c1 e0 04          	shl    $0x4,%rax
  402534:	48 01 e8             	add    %rbp,%rax
  402537:	48 2d 8c 0c 00 00    	sub    $0xc8c,%rax
  40253d:	f3 0f 10 00          	movss  (%rax),%xmm0
  402541:	f3 0f 58 c1          	addss  %xmm1,%xmm0
  402545:	f3 0f 11 85 64 f3 ff 	movss  %xmm0,-0xc9c(%rbp)
  40254c:	ff 
  40254d:	f3 0f 10 8d 68 f3 ff 	movss  -0xc98(%rbp),%xmm1
  402554:	ff 
  402555:	8b 85 20 f3 ff ff    	mov    -0xce0(%rbp),%eax
  40255b:	48 98                	cltq   
  40255d:	48 c1 e0 04          	shl    $0x4,%rax
  402561:	48 01 e8             	add    %rbp,%rax
  402564:	48 2d 88 0c 00 00    	sub    $0xc88,%rax
  40256a:	f3 0f 10 00          	movss  (%rax),%xmm0
  40256e:	f3 0f 58 c1          	addss  %xmm1,%xmm0
  402572:	f3 0f 11 85 68 f3 ff 	movss  %xmm0,-0xc98(%rbp)
  402579:	ff 
  40257a:	f3 0f 10 8d 6c f3 ff 	movss  -0xc94(%rbp),%xmm1
  402581:	ff 
  402582:	8b 85 20 f3 ff ff    	mov    -0xce0(%rbp),%eax
  402588:	48 98                	cltq   
  40258a:	48 c1 e0 04          	shl    $0x4,%rax
  40258e:	48 01 e8             	add    %rbp,%rax
  402591:	48 2d 84 0c 00 00    	sub    $0xc84,%rax
  402597:	f3 0f 10 00          	movss  (%rax),%xmm0
  40259b:	f3 0f 58 c1          	addss  %xmm1,%xmm0
  40259f:	f3 0f 11 85 6c f3 ff 	movss  %xmm0,-0xc94(%rbp)
  4025a6:	ff 
  4025a7:	83 85 20 f3 ff ff 01 	addl   $0x1,-0xce0(%rbp)
  4025ae:	f3 0f 10 8d 60 f3 ff 	movss  -0xca0(%rbp),%xmm1
  4025b5:	ff 
  4025b6:	8b 85 20 f3 ff ff    	mov    -0xce0(%rbp),%eax
  4025bc:	48 98                	cltq   
  4025be:	48 c1 e0 04          	shl    $0x4,%rax
  4025c2:	48 01 e8             	add    %rbp,%rax
  4025c5:	48 2d 90 0c 00 00    	sub    $0xc90,%rax
  4025cb:	f3 0f 10 00          	movss  (%rax),%xmm0
  4025cf:	f3 0f 58 c1          	addss  %xmm1,%xmm0
  4025d3:	f3 0f 11 85 60 f3 ff 	movss  %xmm0,-0xca0(%rbp)
  4025da:	ff 
  4025db:	f3 0f 10 8d 64 f3 ff 	movss  -0xc9c(%rbp),%xmm1
  4025e2:	ff 
  4025e3:	8b 85 20 f3 ff ff    	mov    -0xce0(%rbp),%eax
  4025e9:	48 98                	cltq   
  4025eb:	48 c1 e0 04          	shl    $0x4,%rax
  4025ef:	48 01 e8             	add    %rbp,%rax
  4025f2:	48 2d 8c 0c 00 00    	sub    $0xc8c,%rax
  4025f8:	f3 0f 10 00          	movss  (%rax),%xmm0
  4025fc:	f3 0f 58 c1          	addss  %xmm1,%xmm0
  402600:	f3 0f 11 85 64 f3 ff 	movss  %xmm0,-0xc9c(%rbp)
  402607:	ff 
  402608:	f3 0f 10 8d 68 f3 ff 	movss  -0xc98(%rbp),%xmm1
  40260f:	ff 
  402610:	8b 85 20 f3 ff ff    	mov    -0xce0(%rbp),%eax
  402616:	48 98                	cltq   
  402618:	48 c1 e0 04          	shl    $0x4,%rax
  40261c:	48 01 e8             	add    %rbp,%rax
  40261f:	48 2d 88 0c 00 00    	sub    $0xc88,%rax
  402625:	f3 0f 10 00          	movss  (%rax),%xmm0
  402629:	f3 0f 58 c1          	addss  %xmm1,%xmm0
  40262d:	f3 0f 11 85 68 f3 ff 	movss  %xmm0,-0xc98(%rbp)
  402634:	ff 
  402635:	f3 0f 10 8d 6c f3 ff 	movss  -0xc94(%rbp),%xmm1
  40263c:	ff 
  40263d:	8b 85 20 f3 ff ff    	mov    -0xce0(%rbp),%eax
  402643:	48 98                	cltq   
  402645:	48 c1 e0 04          	shl    $0x4,%rax
  402649:	48 01 e8             	add    %rbp,%rax
  40264c:	48 2d 84 0c 00 00    	sub    $0xc84,%rax
  402652:	f3 0f 10 00          	movss  (%rax),%xmm0
  402656:	f3 0f 58 c1          	addss  %xmm1,%xmm0
  40265a:	f3 0f 11 85 6c f3 ff 	movss  %xmm0,-0xc94(%rbp)
  402661:	ff 
  402662:	83 85 20 f3 ff ff 01 	addl   $0x1,-0xce0(%rbp)
  402669:	f3 0f 10 8d 60 f3 ff 	movss  -0xca0(%rbp),%xmm1
  402670:	ff 
  402671:	8b 85 20 f3 ff ff    	mov    -0xce0(%rbp),%eax
  402677:	48 98                	cltq   
  402679:	48 c1 e0 04          	shl    $0x4,%rax
  40267d:	48 01 e8             	add    %rbp,%rax
  402680:	48 2d 90 0c 00 00    	sub    $0xc90,%rax
  402686:	f3 0f 10 00          	movss  (%rax),%xmm0
  40268a:	f3 0f 58 c1          	addss  %xmm1,%xmm0
  40268e:	f3 0f 11 85 60 f3 ff 	movss  %xmm0,-0xca0(%rbp)
  402695:	ff 
  402696:	f3 0f 10 8d 64 f3 ff 	movss  -0xc9c(%rbp),%xmm1
  40269d:	ff 
  40269e:	8b 85 20 f3 ff ff    	mov    -0xce0(%rbp),%eax
  4026a4:	48 98                	cltq   
  4026a6:	48 c1 e0 04          	shl    $0x4,%rax
  4026aa:	48 01 e8             	add    %rbp,%rax
  4026ad:	48 2d 8c 0c 00 00    	sub    $0xc8c,%rax
  4026b3:	f3 0f 10 00          	movss  (%rax),%xmm0
  4026b7:	f3 0f 58 c1          	addss  %xmm1,%xmm0
  4026bb:	f3 0f 11 85 64 f3 ff 	movss  %xmm0,-0xc9c(%rbp)
  4026c2:	ff 
  4026c3:	f3 0f 10 8d 68 f3 ff 	movss  -0xc98(%rbp),%xmm1
  4026ca:	ff 
  4026cb:	8b 85 20 f3 ff ff    	mov    -0xce0(%rbp),%eax
  4026d1:	48 98                	cltq   
  4026d3:	48 c1 e0 04          	shl    $0x4,%rax
  4026d7:	48 01 e8             	add    %rbp,%rax
  4026da:	48 2d 88 0c 00 00    	sub    $0xc88,%rax
  4026e0:	f3 0f 10 00          	movss  (%rax),%xmm0
  4026e4:	f3 0f 58 c1          	addss  %xmm1,%xmm0
  4026e8:	f3 0f 11 85 68 f3 ff 	movss  %xmm0,-0xc98(%rbp)
  4026ef:	ff 
  4026f0:	f3 0f 10 8d 6c f3 ff 	movss  -0xc94(%rbp),%xmm1
  4026f7:	ff 
  4026f8:	8b 85 20 f3 ff ff    	mov    -0xce0(%rbp),%eax
  4026fe:	48 98                	cltq   
  402700:	48 c1 e0 04          	shl    $0x4,%rax
  402704:	48 01 e8             	add    %rbp,%rax
  402707:	48 2d 84 0c 00 00    	sub    $0xc84,%rax
  40270d:	f3 0f 10 00          	movss  (%rax),%xmm0
  402711:	f3 0f 58 c1          	addss  %xmm1,%xmm0
  402715:	f3 0f 11 85 6c f3 ff 	movss  %xmm0,-0xc94(%rbp)
  40271c:	ff 
  40271d:	83 85 20 f3 ff ff 01 	addl   $0x1,-0xce0(%rbp)
  402724:	f3 0f 10 8d 60 f3 ff 	movss  -0xca0(%rbp),%xmm1
  40272b:	ff 
  40272c:	8b 85 20 f3 ff ff    	mov    -0xce0(%rbp),%eax
  402732:	48 98                	cltq   
  402734:	48 c1 e0 04          	shl    $0x4,%rax
  402738:	48 01 e8             	add    %rbp,%rax
  40273b:	48 2d 90 0c 00 00    	sub    $0xc90,%rax
  402741:	f3 0f 10 00          	movss  (%rax),%xmm0
  402745:	f3 0f 58 c1          	addss  %xmm1,%xmm0
  402749:	f3 0f 11 85 60 f3 ff 	movss  %xmm0,-0xca0(%rbp)
  402750:	ff 
  402751:	f3 0f 10 8d 64 f3 ff 	movss  -0xc9c(%rbp),%xmm1
  402758:	ff 
  402759:	8b 85 20 f3 ff ff    	mov    -0xce0(%rbp),%eax
  40275f:	48 98                	cltq   
  402761:	48 c1 e0 04          	shl    $0x4,%rax
  402765:	48 01 e8             	add    %rbp,%rax
  402768:	48 2d 8c 0c 00 00    	sub    $0xc8c,%rax
  40276e:	f3 0f 10 00          	movss  (%rax),%xmm0
  402772:	f3 0f 58 c1          	addss  %xmm1,%xmm0
  402776:	f3 0f 11 85 64 f3 ff 	movss  %xmm0,-0xc9c(%rbp)
  40277d:	ff 
  40277e:	f3 0f 10 8d 68 f3 ff 	movss  -0xc98(%rbp),%xmm1
  402785:	ff 
  402786:	8b 85 20 f3 ff ff    	mov    -0xce0(%rbp),%eax
  40278c:	48 98                	cltq   
  40278e:	48 c1 e0 04          	shl    $0x4,%rax
  402792:	48 01 e8             	add    %rbp,%rax
  402795:	48 2d 88 0c 00 00    	sub    $0xc88,%rax
  40279b:	f3 0f 10 00          	movss  (%rax),%xmm0
  40279f:	f3 0f 58 c1          	addss  %xmm1,%xmm0
  4027a3:	f3 0f 11 85 68 f3 ff 	movss  %xmm0,-0xc98(%rbp)
  4027aa:	ff 
  4027ab:	f3 0f 10 8d 6c f3 ff 	movss  -0xc94(%rbp),%xmm1
  4027b2:	ff 
  4027b3:	8b 85 20 f3 ff ff    	mov    -0xce0(%rbp),%eax
  4027b9:	48 98                	cltq   
  4027bb:	48 c1 e0 04          	shl    $0x4,%rax
  4027bf:	48 01 e8             	add    %rbp,%rax
  4027c2:	48 2d 84 0c 00 00    	sub    $0xc84,%rax
  4027c8:	f3 0f 10 00          	movss  (%rax),%xmm0
  4027cc:	f3 0f 58 c1          	addss  %xmm1,%xmm0
  4027d0:	f3 0f 11 85 6c f3 ff 	movss  %xmm0,-0xc94(%rbp)
  4027d7:	ff 
  4027d8:	83 85 20 f3 ff ff 01 	addl   $0x1,-0xce0(%rbp)
  4027df:	f3 0f 10 8d 60 f3 ff 	movss  -0xca0(%rbp),%xmm1
  4027e6:	ff 
  4027e7:	8b 85 20 f3 ff ff    	mov    -0xce0(%rbp),%eax
  4027ed:	48 98                	cltq   
  4027ef:	48 c1 e0 04          	shl    $0x4,%rax
  4027f3:	48 01 e8             	add    %rbp,%rax
  4027f6:	48 2d 90 0c 00 00    	sub    $0xc90,%rax
  4027fc:	f3 0f 10 00          	movss  (%rax),%xmm0
  402800:	f3 0f 58 c1          	addss  %xmm1,%xmm0
  402804:	f3 0f 11 85 60 f3 ff 	movss  %xmm0,-0xca0(%rbp)
  40280b:	ff 
  40280c:	f3 0f 10 8d 64 f3 ff 	movss  -0xc9c(%rbp),%xmm1
  402813:	ff 
  402814:	8b 85 20 f3 ff ff    	mov    -0xce0(%rbp),%eax
  40281a:	48 98                	cltq   
  40281c:	48 c1 e0 04          	shl    $0x4,%rax
  402820:	48 01 e8             	add    %rbp,%rax
  402823:	48 2d 8c 0c 00 00    	sub    $0xc8c,%rax
  402829:	f3 0f 10 00          	movss  (%rax),%xmm0
  40282d:	f3 0f 58 c1          	addss  %xmm1,%xmm0
  402831:	f3 0f 11 85 64 f3 ff 	movss  %xmm0,-0xc9c(%rbp)
  402838:	ff 
  402839:	f3 0f 10 8d 68 f3 ff 	movss  -0xc98(%rbp),%xmm1
  402840:	ff 
  402841:	8b 85 20 f3 ff ff    	mov    -0xce0(%rbp),%eax
  402847:	48 98                	cltq   
  402849:	48 c1 e0 04          	shl    $0x4,%rax
  40284d:	48 01 e8             	add    %rbp,%rax
  402850:	48 2d 88 0c 00 00    	sub    $0xc88,%rax
  402856:	f3 0f 10 00          	movss  (%rax),%xmm0
  40285a:	f3 0f 58 c1          	addss  %xmm1,%xmm0
  40285e:	f3 0f 11 85 68 f3 ff 	movss  %xmm0,-0xc98(%rbp)
  402865:	ff 
  402866:	f3 0f 10 8d 6c f3 ff 	movss  -0xc94(%rbp),%xmm1
  40286d:	ff 
  40286e:	8b 85 20 f3 ff ff    	mov    -0xce0(%rbp),%eax
  402874:	48 98                	cltq   
  402876:	48 c1 e0 04          	shl    $0x4,%rax
  40287a:	48 01 e8             	add    %rbp,%rax
  40287d:	48 2d 84 0c 00 00    	sub    $0xc84,%rax
  402883:	f3 0f 10 00          	movss  (%rax),%xmm0
  402887:	f3 0f 58 c1          	addss  %xmm1,%xmm0
  40288b:	f3 0f 11 85 6c f3 ff 	movss  %xmm0,-0xc94(%rbp)
  402892:	ff 
  402893:	83 85 20 f3 ff ff 01 	addl   $0x1,-0xce0(%rbp)
  40289a:	f3 0f 10 8d 60 f3 ff 	movss  -0xca0(%rbp),%xmm1
  4028a1:	ff 
  4028a2:	8b 85 20 f3 ff ff    	mov    -0xce0(%rbp),%eax
  4028a8:	48 98                	cltq   
  4028aa:	48 c1 e0 04          	shl    $0x4,%rax
  4028ae:	48 01 e8             	add    %rbp,%rax
  4028b1:	48 2d 90 0c 00 00    	sub    $0xc90,%rax
  4028b7:	f3 0f 10 00          	movss  (%rax),%xmm0
  4028bb:	f3 0f 58 c1          	addss  %xmm1,%xmm0
  4028bf:	f3 0f 11 85 60 f3 ff 	movss  %xmm0,-0xca0(%rbp)
  4028c6:	ff 
  4028c7:	f3 0f 10 8d 64 f3 ff 	movss  -0xc9c(%rbp),%xmm1
  4028ce:	ff 
  4028cf:	8b 85 20 f3 ff ff    	mov    -0xce0(%rbp),%eax
  4028d5:	48 98                	cltq   
  4028d7:	48 c1 e0 04          	shl    $0x4,%rax
  4028db:	48 01 e8             	add    %rbp,%rax
  4028de:	48 2d 8c 0c 00 00    	sub    $0xc8c,%rax
  4028e4:	f3 0f 10 00          	movss  (%rax),%xmm0
  4028e8:	f3 0f 58 c1          	addss  %xmm1,%xmm0
  4028ec:	f3 0f 11 85 64 f3 ff 	movss  %xmm0,-0xc9c(%rbp)
  4028f3:	ff 
  4028f4:	f3 0f 10 8d 68 f3 ff 	movss  -0xc98(%rbp),%xmm1
  4028fb:	ff 
  4028fc:	8b 85 20 f3 ff ff    	mov    -0xce0(%rbp),%eax
  402902:	48 98                	cltq   
  402904:	48 c1 e0 04          	shl    $0x4,%rax
  402908:	48 01 e8             	add    %rbp,%rax
  40290b:	48 2d 88 0c 00 00    	sub    $0xc88,%rax
  402911:	f3 0f 10 00          	movss  (%rax),%xmm0
  402915:	f3 0f 58 c1          	addss  %xmm1,%xmm0
  402919:	f3 0f 11 85 68 f3 ff 	movss  %xmm0,-0xc98(%rbp)
  402920:	ff 
  402921:	f3 0f 10 8d 6c f3 ff 	movss  -0xc94(%rbp),%xmm1
  402928:	ff 
  402929:	8b 85 20 f3 ff ff    	mov    -0xce0(%rbp),%eax
  40292f:	48 98                	cltq   
  402931:	48 c1 e0 04          	shl    $0x4,%rax
  402935:	48 01 e8             	add    %rbp,%rax
  402938:	48 2d 84 0c 00 00    	sub    $0xc84,%rax
  40293e:	f3 0f 10 00          	movss  (%rax),%xmm0
  402942:	f3 0f 58 c1          	addss  %xmm1,%xmm0
  402946:	f3 0f 11 85 6c f3 ff 	movss  %xmm0,-0xc94(%rbp)
  40294d:	ff 
  40294e:	83 85 20 f3 ff ff 01 	addl   $0x1,-0xce0(%rbp)
  402955:	f3 0f 10 8d 60 f3 ff 	movss  -0xca0(%rbp),%xmm1
  40295c:	ff 
  40295d:	8b 85 20 f3 ff ff    	mov    -0xce0(%rbp),%eax
  402963:	48 98                	cltq   
  402965:	48 c1 e0 04          	shl    $0x4,%rax
  402969:	48 01 e8             	add    %rbp,%rax
  40296c:	48 2d 90 0c 00 00    	sub    $0xc90,%rax
  402972:	f3 0f 10 00          	movss  (%rax),%xmm0
  402976:	f3 0f 58 c1          	addss  %xmm1,%xmm0
  40297a:	f3 0f 11 85 60 f3 ff 	movss  %xmm0,-0xca0(%rbp)
  402981:	ff 
  402982:	f3 0f 10 8d 64 f3 ff 	movss  -0xc9c(%rbp),%xmm1
  402989:	ff 
  40298a:	8b 85 20 f3 ff ff    	mov    -0xce0(%rbp),%eax
  402990:	48 98                	cltq   
  402992:	48 c1 e0 04          	shl    $0x4,%rax
  402996:	48 01 e8             	add    %rbp,%rax
  402999:	48 2d 8c 0c 00 00    	sub    $0xc8c,%rax
  40299f:	f3 0f 10 00          	movss  (%rax),%xmm0
  4029a3:	f3 0f 58 c1          	addss  %xmm1,%xmm0
  4029a7:	f3 0f 11 85 64 f3 ff 	movss  %xmm0,-0xc9c(%rbp)
  4029ae:	ff 
  4029af:	f3 0f 10 8d 68 f3 ff 	movss  -0xc98(%rbp),%xmm1
  4029b6:	ff 
  4029b7:	8b 85 20 f3 ff ff    	mov    -0xce0(%rbp),%eax
  4029bd:	48 98                	cltq   
  4029bf:	48 c1 e0 04          	shl    $0x4,%rax
  4029c3:	48 01 e8             	add    %rbp,%rax
  4029c6:	48 2d 88 0c 00 00    	sub    $0xc88,%rax
  4029cc:	f3 0f 10 00          	movss  (%rax),%xmm0
  4029d0:	f3 0f 58 c1          	addss  %xmm1,%xmm0
  4029d4:	f3 0f 11 85 68 f3 ff 	movss  %xmm0,-0xc98(%rbp)
  4029db:	ff 
  4029dc:	f3 0f 10 8d 6c f3 ff 	movss  -0xc94(%rbp),%xmm1
  4029e3:	ff 
  4029e4:	8b 85 20 f3 ff ff    	mov    -0xce0(%rbp),%eax
  4029ea:	48 98                	cltq   
  4029ec:	48 c1 e0 04          	shl    $0x4,%rax
  4029f0:	48 01 e8             	add    %rbp,%rax
  4029f3:	48 2d 84 0c 00 00    	sub    $0xc84,%rax
  4029f9:	f3 0f 10 00          	movss  (%rax),%xmm0
  4029fd:	f3 0f 58 c1          	addss  %xmm1,%xmm0
  402a01:	f3 0f 11 85 6c f3 ff 	movss  %xmm0,-0xc94(%rbp)
  402a08:	ff 
  402a09:	83 85 20 f3 ff ff 01 	addl   $0x1,-0xce0(%rbp)
  402a10:	f3 0f 10 8d 60 f3 ff 	movss  -0xca0(%rbp),%xmm1
  402a17:	ff 
  402a18:	8b 85 20 f3 ff ff    	mov    -0xce0(%rbp),%eax
  402a1e:	48 98                	cltq   
  402a20:	48 c1 e0 04          	shl    $0x4,%rax
  402a24:	48 01 e8             	add    %rbp,%rax
  402a27:	48 2d 90 0c 00 00    	sub    $0xc90,%rax
  402a2d:	f3 0f 10 00          	movss  (%rax),%xmm0
  402a31:	f3 0f 58 c1          	addss  %xmm1,%xmm0
  402a35:	f3 0f 11 85 60 f3 ff 	movss  %xmm0,-0xca0(%rbp)
  402a3c:	ff 
  402a3d:	f3 0f 10 8d 64 f3 ff 	movss  -0xc9c(%rbp),%xmm1
  402a44:	ff 
  402a45:	8b 85 20 f3 ff ff    	mov    -0xce0(%rbp),%eax
  402a4b:	48 98                	cltq   
  402a4d:	48 c1 e0 04          	shl    $0x4,%rax
  402a51:	48 01 e8             	add    %rbp,%rax
  402a54:	48 2d 8c 0c 00 00    	sub    $0xc8c,%rax
  402a5a:	f3 0f 10 00          	movss  (%rax),%xmm0
  402a5e:	f3 0f 58 c1          	addss  %xmm1,%xmm0
  402a62:	f3 0f 11 85 64 f3 ff 	movss  %xmm0,-0xc9c(%rbp)
  402a69:	ff 
  402a6a:	f3 0f 10 8d 68 f3 ff 	movss  -0xc98(%rbp),%xmm1
  402a71:	ff 
  402a72:	8b 85 20 f3 ff ff    	mov    -0xce0(%rbp),%eax
  402a78:	48 98                	cltq   
  402a7a:	48 c1 e0 04          	shl    $0x4,%rax
  402a7e:	48 01 e8             	add    %rbp,%rax
  402a81:	48 2d 88 0c 00 00    	sub    $0xc88,%rax
  402a87:	f3 0f 10 00          	movss  (%rax),%xmm0
  402a8b:	f3 0f 58 c1          	addss  %xmm1,%xmm0
  402a8f:	f3 0f 11 85 68 f3 ff 	movss  %xmm0,-0xc98(%rbp)
  402a96:	ff 
  402a97:	f3 0f 10 8d 6c f3 ff 	movss  -0xc94(%rbp),%xmm1
  402a9e:	ff 
  402a9f:	8b 85 20 f3 ff ff    	mov    -0xce0(%rbp),%eax
  402aa5:	48 98                	cltq   
  402aa7:	48 c1 e0 04          	shl    $0x4,%rax
  402aab:	48 01 e8             	add    %rbp,%rax
  402aae:	48 2d 84 0c 00 00    	sub    $0xc84,%rax
  402ab4:	f3 0f 10 00          	movss  (%rax),%xmm0
  402ab8:	f3 0f 58 c1          	addss  %xmm1,%xmm0
  402abc:	f3 0f 11 85 6c f3 ff 	movss  %xmm0,-0xc94(%rbp)
  402ac3:	ff 
  402ac4:	83 85 20 f3 ff ff 01 	addl   $0x1,-0xce0(%rbp)
  402acb:	f3 0f 10 8d 60 f3 ff 	movss  -0xca0(%rbp),%xmm1
  402ad2:	ff 
  402ad3:	8b 85 20 f3 ff ff    	mov    -0xce0(%rbp),%eax
  402ad9:	48 98                	cltq   
  402adb:	48 c1 e0 04          	shl    $0x4,%rax
  402adf:	48 01 e8             	add    %rbp,%rax
  402ae2:	48 2d 90 0c 00 00    	sub    $0xc90,%rax
  402ae8:	f3 0f 10 00          	movss  (%rax),%xmm0
  402aec:	f3 0f 58 c1          	addss  %xmm1,%xmm0
  402af0:	f3 0f 11 85 60 f3 ff 	movss  %xmm0,-0xca0(%rbp)
  402af7:	ff 
  402af8:	f3 0f 10 8d 64 f3 ff 	movss  -0xc9c(%rbp),%xmm1
  402aff:	ff 
  402b00:	8b 85 20 f3 ff ff    	mov    -0xce0(%rbp),%eax
  402b06:	48 98                	cltq   
  402b08:	48 c1 e0 04          	shl    $0x4,%rax
  402b0c:	48 01 e8             	add    %rbp,%rax
  402b0f:	48 2d 8c 0c 00 00    	sub    $0xc8c,%rax
  402b15:	f3 0f 10 00          	movss  (%rax),%xmm0
  402b19:	f3 0f 58 c1          	addss  %xmm1,%xmm0
  402b1d:	f3 0f 11 85 64 f3 ff 	movss  %xmm0,-0xc9c(%rbp)
  402b24:	ff 
  402b25:	f3 0f 10 8d 68 f3 ff 	movss  -0xc98(%rbp),%xmm1
  402b2c:	ff 
  402b2d:	8b 85 20 f3 ff ff    	mov    -0xce0(%rbp),%eax
  402b33:	48 98                	cltq   
  402b35:	48 c1 e0 04          	shl    $0x4,%rax
  402b39:	48 01 e8             	add    %rbp,%rax
  402b3c:	48 2d 88 0c 00 00    	sub    $0xc88,%rax
  402b42:	f3 0f 10 00          	movss  (%rax),%xmm0
  402b46:	f3 0f 58 c1          	addss  %xmm1,%xmm0
  402b4a:	f3 0f 11 85 68 f3 ff 	movss  %xmm0,-0xc98(%rbp)
  402b51:	ff 
  402b52:	f3 0f 10 8d 6c f3 ff 	movss  -0xc94(%rbp),%xmm1
  402b59:	ff 
  402b5a:	8b 85 20 f3 ff ff    	mov    -0xce0(%rbp),%eax
  402b60:	48 98                	cltq   
  402b62:	48 c1 e0 04          	shl    $0x4,%rax
  402b66:	48 01 e8             	add    %rbp,%rax
  402b69:	48 2d 84 0c 00 00    	sub    $0xc84,%rax
  402b6f:	f3 0f 10 00          	movss  (%rax),%xmm0
  402b73:	f3 0f 58 c1          	addss  %xmm1,%xmm0
  402b77:	f3 0f 11 85 6c f3 ff 	movss  %xmm0,-0xc94(%rbp)
  402b7e:	ff 
  402b7f:	83 85 20 f3 ff ff 01 	addl   $0x1,-0xce0(%rbp)
  402b86:	f3 0f 10 8d 60 f3 ff 	movss  -0xca0(%rbp),%xmm1
  402b8d:	ff 
  402b8e:	8b 85 20 f3 ff ff    	mov    -0xce0(%rbp),%eax
  402b94:	48 98                	cltq   
  402b96:	48 c1 e0 04          	shl    $0x4,%rax
  402b9a:	48 01 e8             	add    %rbp,%rax
  402b9d:	48 2d 90 0c 00 00    	sub    $0xc90,%rax
  402ba3:	f3 0f 10 00          	movss  (%rax),%xmm0
  402ba7:	f3 0f 58 c1          	addss  %xmm1,%xmm0
  402bab:	f3 0f 11 85 60 f3 ff 	movss  %xmm0,-0xca0(%rbp)
  402bb2:	ff 
  402bb3:	f3 0f 10 8d 64 f3 ff 	movss  -0xc9c(%rbp),%xmm1
  402bba:	ff 
  402bbb:	8b 85 20 f3 ff ff    	mov    -0xce0(%rbp),%eax
  402bc1:	48 98                	cltq   
  402bc3:	48 c1 e0 04          	shl    $0x4,%rax
  402bc7:	48 01 e8             	add    %rbp,%rax
  402bca:	48 2d 8c 0c 00 00    	sub    $0xc8c,%rax
  402bd0:	f3 0f 10 00          	movss  (%rax),%xmm0
  402bd4:	f3 0f 58 c1          	addss  %xmm1,%xmm0
  402bd8:	f3 0f 11 85 64 f3 ff 	movss  %xmm0,-0xc9c(%rbp)
  402bdf:	ff 
  402be0:	f3 0f 10 8d 68 f3 ff 	movss  -0xc98(%rbp),%xmm1
  402be7:	ff 
  402be8:	8b 85 20 f3 ff ff    	mov    -0xce0(%rbp),%eax
  402bee:	48 98                	cltq   
  402bf0:	48 c1 e0 04          	shl    $0x4,%rax
  402bf4:	48 01 e8             	add    %rbp,%rax
  402bf7:	48 2d 88 0c 00 00    	sub    $0xc88,%rax
  402bfd:	f3 0f 10 00          	movss  (%rax),%xmm0
  402c01:	f3 0f 58 c1          	addss  %xmm1,%xmm0
  402c05:	f3 0f 11 85 68 f3 ff 	movss  %xmm0,-0xc98(%rbp)
  402c0c:	ff 
  402c0d:	f3 0f 10 8d 6c f3 ff 	movss  -0xc94(%rbp),%xmm1
  402c14:	ff 
  402c15:	8b 85 20 f3 ff ff    	mov    -0xce0(%rbp),%eax
  402c1b:	48 98                	cltq   
  402c1d:	48 c1 e0 04          	shl    $0x4,%rax
  402c21:	48 01 e8             	add    %rbp,%rax
  402c24:	48 2d 84 0c 00 00    	sub    $0xc84,%rax
  402c2a:	f3 0f 10 00          	movss  (%rax),%xmm0
  402c2e:	f3 0f 58 c1          	addss  %xmm1,%xmm0
  402c32:	f3 0f 11 85 6c f3 ff 	movss  %xmm0,-0xc94(%rbp)
  402c39:	ff 
  402c3a:	83 85 20 f3 ff ff 01 	addl   $0x1,-0xce0(%rbp)
  402c41:	f3 0f 10 8d 60 f3 ff 	movss  -0xca0(%rbp),%xmm1
  402c48:	ff 
  402c49:	8b 85 20 f3 ff ff    	mov    -0xce0(%rbp),%eax
  402c4f:	48 98                	cltq   
  402c51:	48 c1 e0 04          	shl    $0x4,%rax
  402c55:	48 01 e8             	add    %rbp,%rax
  402c58:	48 2d 90 0c 00 00    	sub    $0xc90,%rax
  402c5e:	f3 0f 10 00          	movss  (%rax),%xmm0
  402c62:	f3 0f 58 c1          	addss  %xmm1,%xmm0
  402c66:	f3 0f 11 85 60 f3 ff 	movss  %xmm0,-0xca0(%rbp)
  402c6d:	ff 
  402c6e:	f3 0f 10 8d 64 f3 ff 	movss  -0xc9c(%rbp),%xmm1
  402c75:	ff 
  402c76:	8b 85 20 f3 ff ff    	mov    -0xce0(%rbp),%eax
  402c7c:	48 98                	cltq   
  402c7e:	48 c1 e0 04          	shl    $0x4,%rax
  402c82:	48 01 e8             	add    %rbp,%rax
  402c85:	48 2d 8c 0c 00 00    	sub    $0xc8c,%rax
  402c8b:	f3 0f 10 00          	movss  (%rax),%xmm0
  402c8f:	f3 0f 58 c1          	addss  %xmm1,%xmm0
  402c93:	f3 0f 11 85 64 f3 ff 	movss  %xmm0,-0xc9c(%rbp)
  402c9a:	ff 
  402c9b:	f3 0f 10 8d 68 f3 ff 	movss  -0xc98(%rbp),%xmm1
  402ca2:	ff 
  402ca3:	8b 85 20 f3 ff ff    	mov    -0xce0(%rbp),%eax
  402ca9:	48 98                	cltq   
  402cab:	48 c1 e0 04          	shl    $0x4,%rax
  402caf:	48 01 e8             	add    %rbp,%rax
  402cb2:	48 2d 88 0c 00 00    	sub    $0xc88,%rax
  402cb8:	f3 0f 10 00          	movss  (%rax),%xmm0
  402cbc:	f3 0f 58 c1          	addss  %xmm1,%xmm0
  402cc0:	f3 0f 11 85 68 f3 ff 	movss  %xmm0,-0xc98(%rbp)
  402cc7:	ff 
  402cc8:	f3 0f 10 8d 6c f3 ff 	movss  -0xc94(%rbp),%xmm1
  402ccf:	ff 
  402cd0:	8b 85 20 f3 ff ff    	mov    -0xce0(%rbp),%eax
  402cd6:	48 98                	cltq   
  402cd8:	48 c1 e0 04          	shl    $0x4,%rax
  402cdc:	48 01 e8             	add    %rbp,%rax
  402cdf:	48 2d 84 0c 00 00    	sub    $0xc84,%rax
  402ce5:	f3 0f 10 00          	movss  (%rax),%xmm0
  402ce9:	f3 0f 58 c1          	addss  %xmm1,%xmm0
  402ced:	f3 0f 11 85 6c f3 ff 	movss  %xmm0,-0xc94(%rbp)
  402cf4:	ff 
  402cf5:	83 85 20 f3 ff ff 01 	addl   $0x1,-0xce0(%rbp)
  402cfc:	f3 0f 10 8d 60 f3 ff 	movss  -0xca0(%rbp),%xmm1
  402d03:	ff 
  402d04:	8b 85 20 f3 ff ff    	mov    -0xce0(%rbp),%eax
  402d0a:	48 98                	cltq   
  402d0c:	48 c1 e0 04          	shl    $0x4,%rax
  402d10:	48 01 e8             	add    %rbp,%rax
  402d13:	48 2d 90 0c 00 00    	sub    $0xc90,%rax
  402d19:	f3 0f 10 00          	movss  (%rax),%xmm0
  402d1d:	f3 0f 58 c1          	addss  %xmm1,%xmm0
  402d21:	f3 0f 11 85 60 f3 ff 	movss  %xmm0,-0xca0(%rbp)
  402d28:	ff 
  402d29:	f3 0f 10 8d 64 f3 ff 	movss  -0xc9c(%rbp),%xmm1
  402d30:	ff 
  402d31:	8b 85 20 f3 ff ff    	mov    -0xce0(%rbp),%eax
  402d37:	48 98                	cltq   
  402d39:	48 c1 e0 04          	shl    $0x4,%rax
  402d3d:	48 01 e8             	add    %rbp,%rax
  402d40:	48 2d 8c 0c 00 00    	sub    $0xc8c,%rax
  402d46:	f3 0f 10 00          	movss  (%rax),%xmm0
  402d4a:	f3 0f 58 c1          	addss  %xmm1,%xmm0
  402d4e:	f3 0f 11 85 64 f3 ff 	movss  %xmm0,-0xc9c(%rbp)
  402d55:	ff 
  402d56:	f3 0f 10 8d 68 f3 ff 	movss  -0xc98(%rbp),%xmm1
  402d5d:	ff 
  402d5e:	8b 85 20 f3 ff ff    	mov    -0xce0(%rbp),%eax
  402d64:	48 98                	cltq   
  402d66:	48 c1 e0 04          	shl    $0x4,%rax
  402d6a:	48 01 e8             	add    %rbp,%rax
  402d6d:	48 2d 88 0c 00 00    	sub    $0xc88,%rax
  402d73:	f3 0f 10 00          	movss  (%rax),%xmm0
  402d77:	f3 0f 58 c1          	addss  %xmm1,%xmm0
  402d7b:	f3 0f 11 85 68 f3 ff 	movss  %xmm0,-0xc98(%rbp)
  402d82:	ff 
  402d83:	f3 0f 10 8d 6c f3 ff 	movss  -0xc94(%rbp),%xmm1
  402d8a:	ff 
  402d8b:	8b 85 20 f3 ff ff    	mov    -0xce0(%rbp),%eax
  402d91:	48 98                	cltq   
  402d93:	48 c1 e0 04          	shl    $0x4,%rax
  402d97:	48 01 e8             	add    %rbp,%rax
  402d9a:	48 2d 84 0c 00 00    	sub    $0xc84,%rax
  402da0:	f3 0f 10 00          	movss  (%rax),%xmm0
  402da4:	f3 0f 58 c1          	addss  %xmm1,%xmm0
  402da8:	f3 0f 11 85 6c f3 ff 	movss  %xmm0,-0xc94(%rbp)
  402daf:	ff 
  402db0:	83 85 20 f3 ff ff 01 	addl   $0x1,-0xce0(%rbp)
  402db7:	f3 0f 10 8d 60 f3 ff 	movss  -0xca0(%rbp),%xmm1
  402dbe:	ff 
  402dbf:	8b 85 20 f3 ff ff    	mov    -0xce0(%rbp),%eax
  402dc5:	48 98                	cltq   
  402dc7:	48 c1 e0 04          	shl    $0x4,%rax
  402dcb:	48 01 e8             	add    %rbp,%rax
  402dce:	48 2d 90 0c 00 00    	sub    $0xc90,%rax
  402dd4:	f3 0f 10 00          	movss  (%rax),%xmm0
  402dd8:	f3 0f 58 c1          	addss  %xmm1,%xmm0
  402ddc:	f3 0f 11 85 60 f3 ff 	movss  %xmm0,-0xca0(%rbp)
  402de3:	ff 
  402de4:	f3 0f 10 8d 64 f3 ff 	movss  -0xc9c(%rbp),%xmm1
  402deb:	ff 
  402dec:	8b 85 20 f3 ff ff    	mov    -0xce0(%rbp),%eax
  402df2:	48 98                	cltq   
  402df4:	48 c1 e0 04          	shl    $0x4,%rax
  402df8:	48 01 e8             	add    %rbp,%rax
  402dfb:	48 2d 8c 0c 00 00    	sub    $0xc8c,%rax
  402e01:	f3 0f 10 00          	movss  (%rax),%xmm0
  402e05:	f3 0f 58 c1          	addss  %xmm1,%xmm0
  402e09:	f3 0f 11 85 64 f3 ff 	movss  %xmm0,-0xc9c(%rbp)
  402e10:	ff 
  402e11:	f3 0f 10 8d 68 f3 ff 	movss  -0xc98(%rbp),%xmm1
  402e18:	ff 
  402e19:	8b 85 20 f3 ff ff    	mov    -0xce0(%rbp),%eax
  402e1f:	48 98                	cltq   
  402e21:	48 c1 e0 04          	shl    $0x4,%rax
  402e25:	48 01 e8             	add    %rbp,%rax
  402e28:	48 2d 88 0c 00 00    	sub    $0xc88,%rax
  402e2e:	f3 0f 10 00          	movss  (%rax),%xmm0
  402e32:	f3 0f 58 c1          	addss  %xmm1,%xmm0
  402e36:	f3 0f 11 85 68 f3 ff 	movss  %xmm0,-0xc98(%rbp)
  402e3d:	ff 
  402e3e:	f3 0f 10 8d 6c f3 ff 	movss  -0xc94(%rbp),%xmm1
  402e45:	ff 
  402e46:	8b 85 20 f3 ff ff    	mov    -0xce0(%rbp),%eax
  402e4c:	48 98                	cltq   
  402e4e:	48 c1 e0 04          	shl    $0x4,%rax
  402e52:	48 01 e8             	add    %rbp,%rax
  402e55:	48 2d 84 0c 00 00    	sub    $0xc84,%rax
  402e5b:	f3 0f 10 00          	movss  (%rax),%xmm0
  402e5f:	f3 0f 58 c1          	addss  %xmm1,%xmm0
  402e63:	f3 0f 11 85 6c f3 ff 	movss  %xmm0,-0xc94(%rbp)
  402e6a:	ff 
  402e6b:	83 85 20 f3 ff ff 01 	addl   $0x1,-0xce0(%rbp)
  402e72:	c7 85 20 f3 ff ff 00 	movl   $0x0,-0xce0(%rbp)
  402e79:	00 00 00 
  402e7c:	c7 85 38 f3 ff ff 00 	movl   $0x0,-0xcc8(%rbp)
  402e83:	00 00 00 
  402e86:	f3 0f 10 8d 60 f3 ff 	movss  -0xca0(%rbp),%xmm1
  402e8d:	ff 
  402e8e:	8b 85 20 f3 ff ff    	mov    -0xce0(%rbp),%eax
  402e94:	48 98                	cltq   
  402e96:	48 c1 e0 04          	shl    $0x4,%rax
  402e9a:	48 01 e8             	add    %rbp,%rax
  402e9d:	48 2d 90 0c 00 00    	sub    $0xc90,%rax
  402ea3:	f3 0f 10 00          	movss  (%rax),%xmm0
  402ea7:	f3 0f 58 c1          	addss  %xmm1,%xmm0
  402eab:	f3 0f 11 85 60 f3 ff 	movss  %xmm0,-0xca0(%rbp)
  402eb2:	ff 
  402eb3:	f3 0f 10 8d 64 f3 ff 	movss  -0xc9c(%rbp),%xmm1
  402eba:	ff 
  402ebb:	8b 85 20 f3 ff ff    	mov    -0xce0(%rbp),%eax
  402ec1:	48 98                	cltq   
  402ec3:	48 c1 e0 04          	shl    $0x4,%rax
  402ec7:	48 01 e8             	add    %rbp,%rax
  402eca:	48 2d 8c 0c 00 00    	sub    $0xc8c,%rax
  402ed0:	f3 0f 10 00          	movss  (%rax),%xmm0
  402ed4:	f3 0f 58 c1          	addss  %xmm1,%xmm0
  402ed8:	f3 0f 11 85 64 f3 ff 	movss  %xmm0,-0xc9c(%rbp)
  402edf:	ff 
  402ee0:	f3 0f 10 8d 68 f3 ff 	movss  -0xc98(%rbp),%xmm1
  402ee7:	ff 
  402ee8:	8b 85 20 f3 ff ff    	mov    -0xce0(%rbp),%eax
  402eee:	48 98                	cltq   
  402ef0:	48 c1 e0 04          	shl    $0x4,%rax
  402ef4:	48 01 e8             	add    %rbp,%rax
  402ef7:	48 2d 88 0c 00 00    	sub    $0xc88,%rax
  402efd:	f3 0f 10 00          	movss  (%rax),%xmm0
  402f01:	f3 0f 58 c1          	addss  %xmm1,%xmm0
  402f05:	f3 0f 11 85 68 f3 ff 	movss  %xmm0,-0xc98(%rbp)
  402f0c:	ff 
  402f0d:	f3 0f 10 8d 6c f3 ff 	movss  -0xc94(%rbp),%xmm1
  402f14:	ff 
  402f15:	8b 85 20 f3 ff ff    	mov    -0xce0(%rbp),%eax
  402f1b:	48 98                	cltq   
  402f1d:	48 c1 e0 04          	shl    $0x4,%rax
  402f21:	48 01 e8             	add    %rbp,%rax
  402f24:	48 2d 84 0c 00 00    	sub    $0xc84,%rax
  402f2a:	f3 0f 10 00          	movss  (%rax),%xmm0
  402f2e:	f3 0f 58 c1          	addss  %xmm1,%xmm0
  402f32:	f3 0f 11 85 6c f3 ff 	movss  %xmm0,-0xc94(%rbp)
  402f39:	ff 
  402f3a:	83 85 20 f3 ff ff 01 	addl   $0x1,-0xce0(%rbp)
  402f41:	f3 0f 10 8d 60 f3 ff 	movss  -0xca0(%rbp),%xmm1
  402f48:	ff 
  402f49:	8b 85 20 f3 ff ff    	mov    -0xce0(%rbp),%eax
  402f4f:	48 98                	cltq   
  402f51:	48 c1 e0 04          	shl    $0x4,%rax
  402f55:	48 01 e8             	add    %rbp,%rax
  402f58:	48 2d 90 0c 00 00    	sub    $0xc90,%rax
  402f5e:	f3 0f 10 00          	movss  (%rax),%xmm0
  402f62:	f3 0f 58 c1          	addss  %xmm1,%xmm0
  402f66:	f3 0f 11 85 60 f3 ff 	movss  %xmm0,-0xca0(%rbp)
  402f6d:	ff 
  402f6e:	f3 0f 10 8d 64 f3 ff 	movss  -0xc9c(%rbp),%xmm1
  402f75:	ff 
  402f76:	8b 85 20 f3 ff ff    	mov    -0xce0(%rbp),%eax
  402f7c:	48 98                	cltq   
  402f7e:	48 c1 e0 04          	shl    $0x4,%rax
  402f82:	48 01 e8             	add    %rbp,%rax
  402f85:	48 2d 8c 0c 00 00    	sub    $0xc8c,%rax
  402f8b:	f3 0f 10 00          	movss  (%rax),%xmm0
  402f8f:	f3 0f 58 c1          	addss  %xmm1,%xmm0
  402f93:	f3 0f 11 85 64 f3 ff 	movss  %xmm0,-0xc9c(%rbp)
  402f9a:	ff 
  402f9b:	f3 0f 10 8d 68 f3 ff 	movss  -0xc98(%rbp),%xmm1
  402fa2:	ff 
  402fa3:	8b 85 20 f3 ff ff    	mov    -0xce0(%rbp),%eax
  402fa9:	48 98                	cltq   
  402fab:	48 c1 e0 04          	shl    $0x4,%rax
  402faf:	48 01 e8             	add    %rbp,%rax
  402fb2:	48 2d 88 0c 00 00    	sub    $0xc88,%rax
  402fb8:	f3 0f 10 00          	movss  (%rax),%xmm0
  402fbc:	f3 0f 58 c1          	addss  %xmm1,%xmm0
  402fc0:	f3 0f 11 85 68 f3 ff 	movss  %xmm0,-0xc98(%rbp)
  402fc7:	ff 
  402fc8:	f3 0f 10 8d 6c f3 ff 	movss  -0xc94(%rbp),%xmm1
  402fcf:	ff 
  402fd0:	8b 85 20 f3 ff ff    	mov    -0xce0(%rbp),%eax
  402fd6:	48 98                	cltq   
  402fd8:	48 c1 e0 04          	shl    $0x4,%rax
  402fdc:	48 01 e8             	add    %rbp,%rax
  402fdf:	48 2d 84 0c 00 00    	sub    $0xc84,%rax
  402fe5:	f3 0f 10 00          	movss  (%rax),%xmm0
  402fe9:	f3 0f 58 c1          	addss  %xmm1,%xmm0
  402fed:	f3 0f 11 85 6c f3 ff 	movss  %xmm0,-0xc94(%rbp)
  402ff4:	ff 
  402ff5:	83 85 20 f3 ff ff 01 	addl   $0x1,-0xce0(%rbp)
  402ffc:	f3 0f 10 8d 60 f3 ff 	movss  -0xca0(%rbp),%xmm1
  403003:	ff 
  403004:	8b 85 20 f3 ff ff    	mov    -0xce0(%rbp),%eax
  40300a:	48 98                	cltq   
  40300c:	48 c1 e0 04          	shl    $0x4,%rax
  403010:	48 01 e8             	add    %rbp,%rax
  403013:	48 2d 90 0c 00 00    	sub    $0xc90,%rax
  403019:	f3 0f 10 00          	movss  (%rax),%xmm0
  40301d:	f3 0f 58 c1          	addss  %xmm1,%xmm0
  403021:	f3 0f 11 85 60 f3 ff 	movss  %xmm0,-0xca0(%rbp)
  403028:	ff 
  403029:	f3 0f 10 8d 64 f3 ff 	movss  -0xc9c(%rbp),%xmm1
  403030:	ff 
  403031:	8b 85 20 f3 ff ff    	mov    -0xce0(%rbp),%eax
  403037:	48 98                	cltq   
  403039:	48 c1 e0 04          	shl    $0x4,%rax
  40303d:	48 01 e8             	add    %rbp,%rax
  403040:	48 2d 8c 0c 00 00    	sub    $0xc8c,%rax
  403046:	f3 0f 10 00          	movss  (%rax),%xmm0
  40304a:	f3 0f 58 c1          	addss  %xmm1,%xmm0
  40304e:	f3 0f 11 85 64 f3 ff 	movss  %xmm0,-0xc9c(%rbp)
  403055:	ff 
  403056:	f3 0f 10 8d 68 f3 ff 	movss  -0xc98(%rbp),%xmm1
  40305d:	ff 
  40305e:	8b 85 20 f3 ff ff    	mov    -0xce0(%rbp),%eax
  403064:	48 98                	cltq   
  403066:	48 c1 e0 04          	shl    $0x4,%rax
  40306a:	48 01 e8             	add    %rbp,%rax
  40306d:	48 2d 88 0c 00 00    	sub    $0xc88,%rax
  403073:	f3 0f 10 00          	movss  (%rax),%xmm0
  403077:	f3 0f 58 c1          	addss  %xmm1,%xmm0
  40307b:	f3 0f 11 85 68 f3 ff 	movss  %xmm0,-0xc98(%rbp)
  403082:	ff 
  403083:	f3 0f 10 8d 6c f3 ff 	movss  -0xc94(%rbp),%xmm1
  40308a:	ff 
  40308b:	8b 85 20 f3 ff ff    	mov    -0xce0(%rbp),%eax
  403091:	48 98                	cltq   
  403093:	48 c1 e0 04          	shl    $0x4,%rax
  403097:	48 01 e8             	add    %rbp,%rax
  40309a:	48 2d 84 0c 00 00    	sub    $0xc84,%rax
  4030a0:	f3 0f 10 00          	movss  (%rax),%xmm0
  4030a4:	f3 0f 58 c1          	addss  %xmm1,%xmm0
  4030a8:	f3 0f 11 85 6c f3 ff 	movss  %xmm0,-0xc94(%rbp)
  4030af:	ff 
  4030b0:	83 85 20 f3 ff ff 01 	addl   $0x1,-0xce0(%rbp)
  4030b7:	f3 0f 10 8d 60 f3 ff 	movss  -0xca0(%rbp),%xmm1
  4030be:	ff 
  4030bf:	8b 85 20 f3 ff ff    	mov    -0xce0(%rbp),%eax
  4030c5:	48 98                	cltq   
  4030c7:	48 c1 e0 04          	shl    $0x4,%rax
  4030cb:	48 01 e8             	add    %rbp,%rax
  4030ce:	48 2d 90 0c 00 00    	sub    $0xc90,%rax
  4030d4:	f3 0f 10 00          	movss  (%rax),%xmm0
  4030d8:	f3 0f 58 c1          	addss  %xmm1,%xmm0
  4030dc:	f3 0f 11 85 60 f3 ff 	movss  %xmm0,-0xca0(%rbp)
  4030e3:	ff 
  4030e4:	f3 0f 10 8d 64 f3 ff 	movss  -0xc9c(%rbp),%xmm1
  4030eb:	ff 
  4030ec:	8b 85 20 f3 ff ff    	mov    -0xce0(%rbp),%eax
  4030f2:	48 98                	cltq   
  4030f4:	48 c1 e0 04          	shl    $0x4,%rax
  4030f8:	48 01 e8             	add    %rbp,%rax
  4030fb:	48 2d 8c 0c 00 00    	sub    $0xc8c,%rax
  403101:	f3 0f 10 00          	movss  (%rax),%xmm0
  403105:	f3 0f 58 c1          	addss  %xmm1,%xmm0
  403109:	f3 0f 11 85 64 f3 ff 	movss  %xmm0,-0xc9c(%rbp)
  403110:	ff 
  403111:	f3 0f 10 8d 68 f3 ff 	movss  -0xc98(%rbp),%xmm1
  403118:	ff 
  403119:	8b 85 20 f3 ff ff    	mov    -0xce0(%rbp),%eax
  40311f:	48 98                	cltq   
  403121:	48 c1 e0 04          	shl    $0x4,%rax
  403125:	48 01 e8             	add    %rbp,%rax
  403128:	48 2d 88 0c 00 00    	sub    $0xc88,%rax
  40312e:	f3 0f 10 00          	movss  (%rax),%xmm0
  403132:	f3 0f 58 c1          	addss  %xmm1,%xmm0
  403136:	f3 0f 11 85 68 f3 ff 	movss  %xmm0,-0xc98(%rbp)
  40313d:	ff 
  40313e:	f3 0f 10 8d 6c f3 ff 	movss  -0xc94(%rbp),%xmm1
  403145:	ff 
  403146:	8b 85 20 f3 ff ff    	mov    -0xce0(%rbp),%eax
  40314c:	48 98                	cltq   
  40314e:	48 c1 e0 04          	shl    $0x4,%rax
  403152:	48 01 e8             	add    %rbp,%rax
  403155:	48 2d 84 0c 00 00    	sub    $0xc84,%rax
  40315b:	f3 0f 10 00          	movss  (%rax),%xmm0
  40315f:	f3 0f 58 c1          	addss  %xmm1,%xmm0
  403163:	f3 0f 11 85 6c f3 ff 	movss  %xmm0,-0xc94(%rbp)
  40316a:	ff 
  40316b:	83 85 20 f3 ff ff 01 	addl   $0x1,-0xce0(%rbp)
  403172:	f3 0f 10 8d 60 f3 ff 	movss  -0xca0(%rbp),%xmm1
  403179:	ff 
  40317a:	8b 85 20 f3 ff ff    	mov    -0xce0(%rbp),%eax
  403180:	48 98                	cltq   
  403182:	48 c1 e0 04          	shl    $0x4,%rax
  403186:	48 01 e8             	add    %rbp,%rax
  403189:	48 2d 90 0c 00 00    	sub    $0xc90,%rax
  40318f:	f3 0f 10 00          	movss  (%rax),%xmm0
  403193:	f3 0f 58 c1          	addss  %xmm1,%xmm0
  403197:	f3 0f 11 85 60 f3 ff 	movss  %xmm0,-0xca0(%rbp)
  40319e:	ff 
  40319f:	f3 0f 10 8d 64 f3 ff 	movss  -0xc9c(%rbp),%xmm1
  4031a6:	ff 
  4031a7:	8b 85 20 f3 ff ff    	mov    -0xce0(%rbp),%eax
  4031ad:	48 98                	cltq   
  4031af:	48 c1 e0 04          	shl    $0x4,%rax
  4031b3:	48 01 e8             	add    %rbp,%rax
  4031b6:	48 2d 8c 0c 00 00    	sub    $0xc8c,%rax
  4031bc:	f3 0f 10 00          	movss  (%rax),%xmm0
  4031c0:	f3 0f 58 c1          	addss  %xmm1,%xmm0
  4031c4:	f3 0f 11 85 64 f3 ff 	movss  %xmm0,-0xc9c(%rbp)
  4031cb:	ff 
  4031cc:	f3 0f 10 8d 68 f3 ff 	movss  -0xc98(%rbp),%xmm1
  4031d3:	ff 
  4031d4:	8b 85 20 f3 ff ff    	mov    -0xce0(%rbp),%eax
  4031da:	48 98                	cltq   
  4031dc:	48 c1 e0 04          	shl    $0x4,%rax
  4031e0:	48 01 e8             	add    %rbp,%rax
  4031e3:	48 2d 88 0c 00 00    	sub    $0xc88,%rax
  4031e9:	f3 0f 10 00          	movss  (%rax),%xmm0
  4031ed:	f3 0f 58 c1          	addss  %xmm1,%xmm0
  4031f1:	f3 0f 11 85 68 f3 ff 	movss  %xmm0,-0xc98(%rbp)
  4031f8:	ff 
  4031f9:	f3 0f 10 8d 6c f3 ff 	movss  -0xc94(%rbp),%xmm1
  403200:	ff 
  403201:	8b 85 20 f3 ff ff    	mov    -0xce0(%rbp),%eax
  403207:	48 98                	cltq   
  403209:	48 c1 e0 04          	shl    $0x4,%rax
  40320d:	48 01 e8             	add    %rbp,%rax
  403210:	48 2d 84 0c 00 00    	sub    $0xc84,%rax
  403216:	f3 0f 10 00          	movss  (%rax),%xmm0
  40321a:	f3 0f 58 c1          	addss  %xmm1,%xmm0
  40321e:	f3 0f 11 85 6c f3 ff 	movss  %xmm0,-0xc94(%rbp)
  403225:	ff 
  403226:	83 85 20 f3 ff ff 01 	addl   $0x1,-0xce0(%rbp)
  40322d:	f3 0f 10 8d 60 f3 ff 	movss  -0xca0(%rbp),%xmm1
  403234:	ff 
  403235:	8b 85 20 f3 ff ff    	mov    -0xce0(%rbp),%eax
  40323b:	48 98                	cltq   
  40323d:	48 c1 e0 04          	shl    $0x4,%rax
  403241:	48 01 e8             	add    %rbp,%rax
  403244:	48 2d 90 0c 00 00    	sub    $0xc90,%rax
  40324a:	f3 0f 10 00          	movss  (%rax),%xmm0
  40324e:	f3 0f 58 c1          	addss  %xmm1,%xmm0
  403252:	f3 0f 11 85 60 f3 ff 	movss  %xmm0,-0xca0(%rbp)
  403259:	ff 
  40325a:	f3 0f 10 8d 64 f3 ff 	movss  -0xc9c(%rbp),%xmm1
  403261:	ff 
  403262:	8b 85 20 f3 ff ff    	mov    -0xce0(%rbp),%eax
  403268:	48 98                	cltq   
  40326a:	48 c1 e0 04          	shl    $0x4,%rax
  40326e:	48 01 e8             	add    %rbp,%rax
  403271:	48 2d 8c 0c 00 00    	sub    $0xc8c,%rax
  403277:	f3 0f 10 00          	movss  (%rax),%xmm0
  40327b:	f3 0f 58 c1          	addss  %xmm1,%xmm0
  40327f:	f3 0f 11 85 64 f3 ff 	movss  %xmm0,-0xc9c(%rbp)
  403286:	ff 
  403287:	f3 0f 10 8d 68 f3 ff 	movss  -0xc98(%rbp),%xmm1
  40328e:	ff 
  40328f:	8b 85 20 f3 ff ff    	mov    -0xce0(%rbp),%eax
  403295:	48 98                	cltq   
  403297:	48 c1 e0 04          	shl    $0x4,%rax
  40329b:	48 01 e8             	add    %rbp,%rax
  40329e:	48 2d 88 0c 00 00    	sub    $0xc88,%rax
  4032a4:	f3 0f 10 00          	movss  (%rax),%xmm0
  4032a8:	f3 0f 58 c1          	addss  %xmm1,%xmm0
  4032ac:	f3 0f 11 85 68 f3 ff 	movss  %xmm0,-0xc98(%rbp)
  4032b3:	ff 
  4032b4:	f3 0f 10 8d 6c f3 ff 	movss  -0xc94(%rbp),%xmm1
  4032bb:	ff 
  4032bc:	8b 85 20 f3 ff ff    	mov    -0xce0(%rbp),%eax
  4032c2:	48 98                	cltq   
  4032c4:	48 c1 e0 04          	shl    $0x4,%rax
  4032c8:	48 01 e8             	add    %rbp,%rax
  4032cb:	48 2d 84 0c 00 00    	sub    $0xc84,%rax
  4032d1:	f3 0f 10 00          	movss  (%rax),%xmm0
  4032d5:	f3 0f 58 c1          	addss  %xmm1,%xmm0
  4032d9:	f3 0f 11 85 6c f3 ff 	movss  %xmm0,-0xc94(%rbp)
  4032e0:	ff 
  4032e1:	83 85 20 f3 ff ff 01 	addl   $0x1,-0xce0(%rbp)
  4032e8:	f3 0f 10 8d 60 f3 ff 	movss  -0xca0(%rbp),%xmm1
  4032ef:	ff 
  4032f0:	8b 85 20 f3 ff ff    	mov    -0xce0(%rbp),%eax
  4032f6:	48 98                	cltq   
  4032f8:	48 c1 e0 04          	shl    $0x4,%rax
  4032fc:	48 01 e8             	add    %rbp,%rax
  4032ff:	48 2d 90 0c 00 00    	sub    $0xc90,%rax
  403305:	f3 0f 10 00          	movss  (%rax),%xmm0
  403309:	f3 0f 58 c1          	addss  %xmm1,%xmm0
  40330d:	f3 0f 11 85 60 f3 ff 	movss  %xmm0,-0xca0(%rbp)
  403314:	ff 
  403315:	f3 0f 10 8d 64 f3 ff 	movss  -0xc9c(%rbp),%xmm1
  40331c:	ff 
  40331d:	8b 85 20 f3 ff ff    	mov    -0xce0(%rbp),%eax
  403323:	48 98                	cltq   
  403325:	48 c1 e0 04          	shl    $0x4,%rax
  403329:	48 01 e8             	add    %rbp,%rax
  40332c:	48 2d 8c 0c 00 00    	sub    $0xc8c,%rax
  403332:	f3 0f 10 00          	movss  (%rax),%xmm0
  403336:	f3 0f 58 c1          	addss  %xmm1,%xmm0
  40333a:	f3 0f 11 85 64 f3 ff 	movss  %xmm0,-0xc9c(%rbp)
  403341:	ff 
  403342:	f3 0f 10 8d 68 f3 ff 	movss  -0xc98(%rbp),%xmm1
  403349:	ff 
  40334a:	8b 85 20 f3 ff ff    	mov    -0xce0(%rbp),%eax
  403350:	48 98                	cltq   
  403352:	48 c1 e0 04          	shl    $0x4,%rax
  403356:	48 01 e8             	add    %rbp,%rax
  403359:	48 2d 88 0c 00 00    	sub    $0xc88,%rax
  40335f:	f3 0f 10 00          	movss  (%rax),%xmm0
  403363:	f3 0f 58 c1          	addss  %xmm1,%xmm0
  403367:	f3 0f 11 85 68 f3 ff 	movss  %xmm0,-0xc98(%rbp)
  40336e:	ff 
  40336f:	f3 0f 10 8d 6c f3 ff 	movss  -0xc94(%rbp),%xmm1
  403376:	ff 
  403377:	8b 85 20 f3 ff ff    	mov    -0xce0(%rbp),%eax
  40337d:	48 98                	cltq   
  40337f:	48 c1 e0 04          	shl    $0x4,%rax
  403383:	48 01 e8             	add    %rbp,%rax
  403386:	48 2d 84 0c 00 00    	sub    $0xc84,%rax
  40338c:	f3 0f 10 00          	movss  (%rax),%xmm0
  403390:	f3 0f 58 c1          	addss  %xmm1,%xmm0
  403394:	f3 0f 11 85 6c f3 ff 	movss  %xmm0,-0xc94(%rbp)
  40339b:	ff 
  40339c:	83 85 20 f3 ff ff 01 	addl   $0x1,-0xce0(%rbp)
  4033a3:	f3 0f 10 8d 60 f3 ff 	movss  -0xca0(%rbp),%xmm1
  4033aa:	ff 
  4033ab:	8b 85 20 f3 ff ff    	mov    -0xce0(%rbp),%eax
  4033b1:	48 98                	cltq   
  4033b3:	48 c1 e0 04          	shl    $0x4,%rax
  4033b7:	48 01 e8             	add    %rbp,%rax
  4033ba:	48 2d 90 0c 00 00    	sub    $0xc90,%rax
  4033c0:	f3 0f 10 00          	movss  (%rax),%xmm0
  4033c4:	f3 0f 58 c1          	addss  %xmm1,%xmm0
  4033c8:	f3 0f 11 85 60 f3 ff 	movss  %xmm0,-0xca0(%rbp)
  4033cf:	ff 
  4033d0:	f3 0f 10 8d 64 f3 ff 	movss  -0xc9c(%rbp),%xmm1
  4033d7:	ff 
  4033d8:	8b 85 20 f3 ff ff    	mov    -0xce0(%rbp),%eax
  4033de:	48 98                	cltq   
  4033e0:	48 c1 e0 04          	shl    $0x4,%rax
  4033e4:	48 01 e8             	add    %rbp,%rax
  4033e7:	48 2d 8c 0c 00 00    	sub    $0xc8c,%rax
  4033ed:	f3 0f 10 00          	movss  (%rax),%xmm0
  4033f1:	f3 0f 58 c1          	addss  %xmm1,%xmm0
  4033f5:	f3 0f 11 85 64 f3 ff 	movss  %xmm0,-0xc9c(%rbp)
  4033fc:	ff 
  4033fd:	f3 0f 10 8d 68 f3 ff 	movss  -0xc98(%rbp),%xmm1
  403404:	ff 
  403405:	8b 85 20 f3 ff ff    	mov    -0xce0(%rbp),%eax
  40340b:	48 98                	cltq   
  40340d:	48 c1 e0 04          	shl    $0x4,%rax
  403411:	48 01 e8             	add    %rbp,%rax
  403414:	48 2d 88 0c 00 00    	sub    $0xc88,%rax
  40341a:	f3 0f 10 00          	movss  (%rax),%xmm0
  40341e:	f3 0f 58 c1          	addss  %xmm1,%xmm0
  403422:	f3 0f 11 85 68 f3 ff 	movss  %xmm0,-0xc98(%rbp)
  403429:	ff 
  40342a:	f3 0f 10 8d 6c f3 ff 	movss  -0xc94(%rbp),%xmm1
  403431:	ff 
  403432:	8b 85 20 f3 ff ff    	mov    -0xce0(%rbp),%eax
  403438:	48 98                	cltq   
  40343a:	48 c1 e0 04          	shl    $0x4,%rax
  40343e:	48 01 e8             	add    %rbp,%rax
  403441:	48 2d 84 0c 00 00    	sub    $0xc84,%rax
  403447:	f3 0f 10 00          	movss  (%rax),%xmm0
  40344b:	f3 0f 58 c1          	addss  %xmm1,%xmm0
  40344f:	f3 0f 11 85 6c f3 ff 	movss  %xmm0,-0xc94(%rbp)
  403456:	ff 
  403457:	83 85 20 f3 ff ff 01 	addl   $0x1,-0xce0(%rbp)
  40345e:	f3 0f 10 8d 60 f3 ff 	movss  -0xca0(%rbp),%xmm1
  403465:	ff 
  403466:	8b 85 20 f3 ff ff    	mov    -0xce0(%rbp),%eax
  40346c:	48 98                	cltq   
  40346e:	48 c1 e0 04          	shl    $0x4,%rax
  403472:	48 01 e8             	add    %rbp,%rax
  403475:	48 2d 90 0c 00 00    	sub    $0xc90,%rax
  40347b:	f3 0f 10 00          	movss  (%rax),%xmm0
  40347f:	f3 0f 58 c1          	addss  %xmm1,%xmm0
  403483:	f3 0f 11 85 60 f3 ff 	movss  %xmm0,-0xca0(%rbp)
  40348a:	ff 
  40348b:	f3 0f 10 8d 64 f3 ff 	movss  -0xc9c(%rbp),%xmm1
  403492:	ff 
  403493:	8b 85 20 f3 ff ff    	mov    -0xce0(%rbp),%eax
  403499:	48 98                	cltq   
  40349b:	48 c1 e0 04          	shl    $0x4,%rax
  40349f:	48 01 e8             	add    %rbp,%rax
  4034a2:	48 2d 8c 0c 00 00    	sub    $0xc8c,%rax
  4034a8:	f3 0f 10 00          	movss  (%rax),%xmm0
  4034ac:	f3 0f 58 c1          	addss  %xmm1,%xmm0
  4034b0:	f3 0f 11 85 64 f3 ff 	movss  %xmm0,-0xc9c(%rbp)
  4034b7:	ff 
  4034b8:	f3 0f 10 8d 68 f3 ff 	movss  -0xc98(%rbp),%xmm1
  4034bf:	ff 
  4034c0:	8b 85 20 f3 ff ff    	mov    -0xce0(%rbp),%eax
  4034c6:	48 98                	cltq   
  4034c8:	48 c1 e0 04          	shl    $0x4,%rax
  4034cc:	48 01 e8             	add    %rbp,%rax
  4034cf:	48 2d 88 0c 00 00    	sub    $0xc88,%rax
  4034d5:	f3 0f 10 00          	movss  (%rax),%xmm0
  4034d9:	f3 0f 58 c1          	addss  %xmm1,%xmm0
  4034dd:	f3 0f 11 85 68 f3 ff 	movss  %xmm0,-0xc98(%rbp)
  4034e4:	ff 
  4034e5:	f3 0f 10 8d 6c f3 ff 	movss  -0xc94(%rbp),%xmm1
  4034ec:	ff 
  4034ed:	8b 85 20 f3 ff ff    	mov    -0xce0(%rbp),%eax
  4034f3:	48 98                	cltq   
  4034f5:	48 c1 e0 04          	shl    $0x4,%rax
  4034f9:	48 01 e8             	add    %rbp,%rax
  4034fc:	48 2d 84 0c 00 00    	sub    $0xc84,%rax
  403502:	f3 0f 10 00          	movss  (%rax),%xmm0
  403506:	f3 0f 58 c1          	addss  %xmm1,%xmm0
  40350a:	f3 0f 11 85 6c f3 ff 	movss  %xmm0,-0xc94(%rbp)
  403511:	ff 
  403512:	83 85 20 f3 ff ff 01 	addl   $0x1,-0xce0(%rbp)
  403519:	f3 0f 10 8d 60 f3 ff 	movss  -0xca0(%rbp),%xmm1
  403520:	ff 
  403521:	8b 85 20 f3 ff ff    	mov    -0xce0(%rbp),%eax
  403527:	48 98                	cltq   
  403529:	48 c1 e0 04          	shl    $0x4,%rax
  40352d:	48 01 e8             	add    %rbp,%rax
  403530:	48 2d 90 0c 00 00    	sub    $0xc90,%rax
  403536:	f3 0f 10 00          	movss  (%rax),%xmm0
  40353a:	f3 0f 58 c1          	addss  %xmm1,%xmm0
  40353e:	f3 0f 11 85 60 f3 ff 	movss  %xmm0,-0xca0(%rbp)
  403545:	ff 
  403546:	f3 0f 10 8d 64 f3 ff 	movss  -0xc9c(%rbp),%xmm1
  40354d:	ff 
  40354e:	8b 85 20 f3 ff ff    	mov    -0xce0(%rbp),%eax
  403554:	48 98                	cltq   
  403556:	48 c1 e0 04          	shl    $0x4,%rax
  40355a:	48 01 e8             	add    %rbp,%rax
  40355d:	48 2d 8c 0c 00 00    	sub    $0xc8c,%rax
  403563:	f3 0f 10 00          	movss  (%rax),%xmm0
  403567:	f3 0f 58 c1          	addss  %xmm1,%xmm0
  40356b:	f3 0f 11 85 64 f3 ff 	movss  %xmm0,-0xc9c(%rbp)
  403572:	ff 
  403573:	f3 0f 10 8d 68 f3 ff 	movss  -0xc98(%rbp),%xmm1
  40357a:	ff 
  40357b:	8b 85 20 f3 ff ff    	mov    -0xce0(%rbp),%eax
  403581:	48 98                	cltq   
  403583:	48 c1 e0 04          	shl    $0x4,%rax
  403587:	48 01 e8             	add    %rbp,%rax
  40358a:	48 2d 88 0c 00 00    	sub    $0xc88,%rax
  403590:	f3 0f 10 00          	movss  (%rax),%xmm0
  403594:	f3 0f 58 c1          	addss  %xmm1,%xmm0
  403598:	f3 0f 11 85 68 f3 ff 	movss  %xmm0,-0xc98(%rbp)
  40359f:	ff 
  4035a0:	f3 0f 10 8d 6c f3 ff 	movss  -0xc94(%rbp),%xmm1
  4035a7:	ff 
  4035a8:	8b 85 20 f3 ff ff    	mov    -0xce0(%rbp),%eax
  4035ae:	48 98                	cltq   
  4035b0:	48 c1 e0 04          	shl    $0x4,%rax
  4035b4:	48 01 e8             	add    %rbp,%rax
  4035b7:	48 2d 84 0c 00 00    	sub    $0xc84,%rax
  4035bd:	f3 0f 10 00          	movss  (%rax),%xmm0
  4035c1:	f3 0f 58 c1          	addss  %xmm1,%xmm0
  4035c5:	f3 0f 11 85 6c f3 ff 	movss  %xmm0,-0xc94(%rbp)
  4035cc:	ff 
  4035cd:	83 85 20 f3 ff ff 01 	addl   $0x1,-0xce0(%rbp)
  4035d4:	f3 0f 10 8d 60 f3 ff 	movss  -0xca0(%rbp),%xmm1
  4035db:	ff 
  4035dc:	8b 85 20 f3 ff ff    	mov    -0xce0(%rbp),%eax
  4035e2:	48 98                	cltq   
  4035e4:	48 c1 e0 04          	shl    $0x4,%rax
  4035e8:	48 01 e8             	add    %rbp,%rax
  4035eb:	48 2d 90 0c 00 00    	sub    $0xc90,%rax
  4035f1:	f3 0f 10 00          	movss  (%rax),%xmm0
  4035f5:	f3 0f 58 c1          	addss  %xmm1,%xmm0
  4035f9:	f3 0f 11 85 60 f3 ff 	movss  %xmm0,-0xca0(%rbp)
  403600:	ff 
  403601:	f3 0f 10 8d 64 f3 ff 	movss  -0xc9c(%rbp),%xmm1
  403608:	ff 
  403609:	8b 85 20 f3 ff ff    	mov    -0xce0(%rbp),%eax
  40360f:	48 98                	cltq   
  403611:	48 c1 e0 04          	shl    $0x4,%rax
  403615:	48 01 e8             	add    %rbp,%rax
  403618:	48 2d 8c 0c 00 00    	sub    $0xc8c,%rax
  40361e:	f3 0f 10 00          	movss  (%rax),%xmm0
  403622:	f3 0f 58 c1          	addss  %xmm1,%xmm0
  403626:	f3 0f 11 85 64 f3 ff 	movss  %xmm0,-0xc9c(%rbp)
  40362d:	ff 
  40362e:	f3 0f 10 8d 68 f3 ff 	movss  -0xc98(%rbp),%xmm1
  403635:	ff 
  403636:	8b 85 20 f3 ff ff    	mov    -0xce0(%rbp),%eax
  40363c:	48 98                	cltq   
  40363e:	48 c1 e0 04          	shl    $0x4,%rax
  403642:	48 01 e8             	add    %rbp,%rax
  403645:	48 2d 88 0c 00 00    	sub    $0xc88,%rax
  40364b:	f3 0f 10 00          	movss  (%rax),%xmm0
  40364f:	f3 0f 58 c1          	addss  %xmm1,%xmm0
  403653:	f3 0f 11 85 68 f3 ff 	movss  %xmm0,-0xc98(%rbp)
  40365a:	ff 
  40365b:	f3 0f 10 8d 6c f3 ff 	movss  -0xc94(%rbp),%xmm1
  403662:	ff 
  403663:	8b 85 20 f3 ff ff    	mov    -0xce0(%rbp),%eax
  403669:	48 98                	cltq   
  40366b:	48 c1 e0 04          	shl    $0x4,%rax
  40366f:	48 01 e8             	add    %rbp,%rax
  403672:	48 2d 84 0c 00 00    	sub    $0xc84,%rax
  403678:	f3 0f 10 00          	movss  (%rax),%xmm0
  40367c:	f3 0f 58 c1          	addss  %xmm1,%xmm0
  403680:	f3 0f 11 85 6c f3 ff 	movss  %xmm0,-0xc94(%rbp)
  403687:	ff 
  403688:	83 85 20 f3 ff ff 01 	addl   $0x1,-0xce0(%rbp)
  40368f:	f3 0f 10 8d 60 f3 ff 	movss  -0xca0(%rbp),%xmm1
  403696:	ff 
  403697:	8b 85 20 f3 ff ff    	mov    -0xce0(%rbp),%eax
  40369d:	48 98                	cltq   
  40369f:	48 c1 e0 04          	shl    $0x4,%rax
  4036a3:	48 01 e8             	add    %rbp,%rax
  4036a6:	48 2d 90 0c 00 00    	sub    $0xc90,%rax
  4036ac:	f3 0f 10 00          	movss  (%rax),%xmm0
  4036b0:	f3 0f 58 c1          	addss  %xmm1,%xmm0
  4036b4:	f3 0f 11 85 60 f3 ff 	movss  %xmm0,-0xca0(%rbp)
  4036bb:	ff 
  4036bc:	f3 0f 10 8d 64 f3 ff 	movss  -0xc9c(%rbp),%xmm1
  4036c3:	ff 
  4036c4:	8b 85 20 f3 ff ff    	mov    -0xce0(%rbp),%eax
  4036ca:	48 98                	cltq   
  4036cc:	48 c1 e0 04          	shl    $0x4,%rax
  4036d0:	48 01 e8             	add    %rbp,%rax
  4036d3:	48 2d 8c 0c 00 00    	sub    $0xc8c,%rax
  4036d9:	f3 0f 10 00          	movss  (%rax),%xmm0
  4036dd:	f3 0f 58 c1          	addss  %xmm1,%xmm0
  4036e1:	f3 0f 11 85 64 f3 ff 	movss  %xmm0,-0xc9c(%rbp)
  4036e8:	ff 
  4036e9:	f3 0f 10 8d 68 f3 ff 	movss  -0xc98(%rbp),%xmm1
  4036f0:	ff 
  4036f1:	8b 85 20 f3 ff ff    	mov    -0xce0(%rbp),%eax
  4036f7:	48 98                	cltq   
  4036f9:	48 c1 e0 04          	shl    $0x4,%rax
  4036fd:	48 01 e8             	add    %rbp,%rax
  403700:	48 2d 88 0c 00 00    	sub    $0xc88,%rax
  403706:	f3 0f 10 00          	movss  (%rax),%xmm0
  40370a:	f3 0f 58 c1          	addss  %xmm1,%xmm0
  40370e:	f3 0f 11 85 68 f3 ff 	movss  %xmm0,-0xc98(%rbp)
  403715:	ff 
  403716:	f3 0f 10 8d 6c f3 ff 	movss  -0xc94(%rbp),%xmm1
  40371d:	ff 
  40371e:	8b 85 20 f3 ff ff    	mov    -0xce0(%rbp),%eax
  403724:	48 98                	cltq   
  403726:	48 c1 e0 04          	shl    $0x4,%rax
  40372a:	48 01 e8             	add    %rbp,%rax
  40372d:	48 2d 84 0c 00 00    	sub    $0xc84,%rax
  403733:	f3 0f 10 00          	movss  (%rax),%xmm0
  403737:	f3 0f 58 c1          	addss  %xmm1,%xmm0
  40373b:	f3 0f 11 85 6c f3 ff 	movss  %xmm0,-0xc94(%rbp)
  403742:	ff 
  403743:	83 85 20 f3 ff ff 01 	addl   $0x1,-0xce0(%rbp)
  40374a:	f3 0f 10 8d 60 f3 ff 	movss  -0xca0(%rbp),%xmm1
  403751:	ff 
  403752:	8b 85 20 f3 ff ff    	mov    -0xce0(%rbp),%eax
  403758:	48 98                	cltq   
  40375a:	48 c1 e0 04          	shl    $0x4,%rax
  40375e:	48 01 e8             	add    %rbp,%rax
  403761:	48 2d 90 0c 00 00    	sub    $0xc90,%rax
  403767:	f3 0f 10 00          	movss  (%rax),%xmm0
  40376b:	f3 0f 58 c1          	addss  %xmm1,%xmm0
  40376f:	f3 0f 11 85 60 f3 ff 	movss  %xmm0,-0xca0(%rbp)
  403776:	ff 
  403777:	f3 0f 10 8d 64 f3 ff 	movss  -0xc9c(%rbp),%xmm1
  40377e:	ff 
  40377f:	8b 85 20 f3 ff ff    	mov    -0xce0(%rbp),%eax
  403785:	48 98                	cltq   
  403787:	48 c1 e0 04          	shl    $0x4,%rax
  40378b:	48 01 e8             	add    %rbp,%rax
  40378e:	48 2d 8c 0c 00 00    	sub    $0xc8c,%rax
  403794:	f3 0f 10 00          	movss  (%rax),%xmm0
  403798:	f3 0f 58 c1          	addss  %xmm1,%xmm0
  40379c:	f3 0f 11 85 64 f3 ff 	movss  %xmm0,-0xc9c(%rbp)
  4037a3:	ff 
  4037a4:	f3 0f 10 8d 68 f3 ff 	movss  -0xc98(%rbp),%xmm1
  4037ab:	ff 
  4037ac:	8b 85 20 f3 ff ff    	mov    -0xce0(%rbp),%eax
  4037b2:	48 98                	cltq   
  4037b4:	48 c1 e0 04          	shl    $0x4,%rax
  4037b8:	48 01 e8             	add    %rbp,%rax
  4037bb:	48 2d 88 0c 00 00    	sub    $0xc88,%rax
  4037c1:	f3 0f 10 00          	movss  (%rax),%xmm0
  4037c5:	f3 0f 58 c1          	addss  %xmm1,%xmm0
  4037c9:	f3 0f 11 85 68 f3 ff 	movss  %xmm0,-0xc98(%rbp)
  4037d0:	ff 
  4037d1:	f3 0f 10 8d 6c f3 ff 	movss  -0xc94(%rbp),%xmm1
  4037d8:	ff 
  4037d9:	8b 85 20 f3 ff ff    	mov    -0xce0(%rbp),%eax
  4037df:	48 98                	cltq   
  4037e1:	48 c1 e0 04          	shl    $0x4,%rax
  4037e5:	48 01 e8             	add    %rbp,%rax
  4037e8:	48 2d 84 0c 00 00    	sub    $0xc84,%rax
  4037ee:	f3 0f 10 00          	movss  (%rax),%xmm0
  4037f2:	f3 0f 58 c1          	addss  %xmm1,%xmm0
  4037f6:	f3 0f 11 85 6c f3 ff 	movss  %xmm0,-0xc94(%rbp)
  4037fd:	ff 
  4037fe:	83 85 20 f3 ff ff 01 	addl   $0x1,-0xce0(%rbp)
  403805:	f3 0f 10 8d 60 f3 ff 	movss  -0xca0(%rbp),%xmm1
  40380c:	ff 
  40380d:	8b 85 20 f3 ff ff    	mov    -0xce0(%rbp),%eax
  403813:	48 98                	cltq   
  403815:	48 c1 e0 04          	shl    $0x4,%rax
  403819:	48 01 e8             	add    %rbp,%rax
  40381c:	48 2d 90 0c 00 00    	sub    $0xc90,%rax
  403822:	f3 0f 10 00          	movss  (%rax),%xmm0
  403826:	f3 0f 58 c1          	addss  %xmm1,%xmm0
  40382a:	f3 0f 11 85 60 f3 ff 	movss  %xmm0,-0xca0(%rbp)
  403831:	ff 
  403832:	f3 0f 10 8d 64 f3 ff 	movss  -0xc9c(%rbp),%xmm1
  403839:	ff 
  40383a:	8b 85 20 f3 ff ff    	mov    -0xce0(%rbp),%eax
  403840:	48 98                	cltq   
  403842:	48 c1 e0 04          	shl    $0x4,%rax
  403846:	48 01 e8             	add    %rbp,%rax
  403849:	48 2d 8c 0c 00 00    	sub    $0xc8c,%rax
  40384f:	f3 0f 10 00          	movss  (%rax),%xmm0
  403853:	f3 0f 58 c1          	addss  %xmm1,%xmm0
  403857:	f3 0f 11 85 64 f3 ff 	movss  %xmm0,-0xc9c(%rbp)
  40385e:	ff 
  40385f:	f3 0f 10 8d 68 f3 ff 	movss  -0xc98(%rbp),%xmm1
  403866:	ff 
  403867:	8b 85 20 f3 ff ff    	mov    -0xce0(%rbp),%eax
  40386d:	48 98                	cltq   
  40386f:	48 c1 e0 04          	shl    $0x4,%rax
  403873:	48 01 e8             	add    %rbp,%rax
  403876:	48 2d 88 0c 00 00    	sub    $0xc88,%rax
  40387c:	f3 0f 10 00          	movss  (%rax),%xmm0
  403880:	f3 0f 58 c1          	addss  %xmm1,%xmm0
  403884:	f3 0f 11 85 68 f3 ff 	movss  %xmm0,-0xc98(%rbp)
  40388b:	ff 
  40388c:	f3 0f 10 8d 6c f3 ff 	movss  -0xc94(%rbp),%xmm1
  403893:	ff 
  403894:	8b 85 20 f3 ff ff    	mov    -0xce0(%rbp),%eax
  40389a:	48 98                	cltq   
  40389c:	48 c1 e0 04          	shl    $0x4,%rax
  4038a0:	48 01 e8             	add    %rbp,%rax
  4038a3:	48 2d 84 0c 00 00    	sub    $0xc84,%rax
  4038a9:	f3 0f 10 00          	movss  (%rax),%xmm0
  4038ad:	f3 0f 58 c1          	addss  %xmm1,%xmm0
  4038b1:	f3 0f 11 85 6c f3 ff 	movss  %xmm0,-0xc94(%rbp)
  4038b8:	ff 
  4038b9:	83 85 20 f3 ff ff 01 	addl   $0x1,-0xce0(%rbp)
  4038c0:	f3 0f 10 8d 60 f3 ff 	movss  -0xca0(%rbp),%xmm1
  4038c7:	ff 
  4038c8:	8b 85 20 f3 ff ff    	mov    -0xce0(%rbp),%eax
  4038ce:	48 98                	cltq   
  4038d0:	48 c1 e0 04          	shl    $0x4,%rax
  4038d4:	48 01 e8             	add    %rbp,%rax
  4038d7:	48 2d 90 0c 00 00    	sub    $0xc90,%rax
  4038dd:	f3 0f 10 00          	movss  (%rax),%xmm0
  4038e1:	f3 0f 58 c1          	addss  %xmm1,%xmm0
  4038e5:	f3 0f 11 85 60 f3 ff 	movss  %xmm0,-0xca0(%rbp)
  4038ec:	ff 
  4038ed:	f3 0f 10 8d 64 f3 ff 	movss  -0xc9c(%rbp),%xmm1
  4038f4:	ff 
  4038f5:	8b 85 20 f3 ff ff    	mov    -0xce0(%rbp),%eax
  4038fb:	48 98                	cltq   
  4038fd:	48 c1 e0 04          	shl    $0x4,%rax
  403901:	48 01 e8             	add    %rbp,%rax
  403904:	48 2d 8c 0c 00 00    	sub    $0xc8c,%rax
  40390a:	f3 0f 10 00          	movss  (%rax),%xmm0
  40390e:	f3 0f 58 c1          	addss  %xmm1,%xmm0
  403912:	f3 0f 11 85 64 f3 ff 	movss  %xmm0,-0xc9c(%rbp)
  403919:	ff 
  40391a:	f3 0f 10 8d 68 f3 ff 	movss  -0xc98(%rbp),%xmm1
  403921:	ff 
  403922:	8b 85 20 f3 ff ff    	mov    -0xce0(%rbp),%eax
  403928:	48 98                	cltq   
  40392a:	48 c1 e0 04          	shl    $0x4,%rax
  40392e:	48 01 e8             	add    %rbp,%rax
  403931:	48 2d 88 0c 00 00    	sub    $0xc88,%rax
  403937:	f3 0f 10 00          	movss  (%rax),%xmm0
  40393b:	f3 0f 58 c1          	addss  %xmm1,%xmm0
  40393f:	f3 0f 11 85 68 f3 ff 	movss  %xmm0,-0xc98(%rbp)
  403946:	ff 
  403947:	f3 0f 10 8d 6c f3 ff 	movss  -0xc94(%rbp),%xmm1
  40394e:	ff 
  40394f:	8b 85 20 f3 ff ff    	mov    -0xce0(%rbp),%eax
  403955:	48 98                	cltq   
  403957:	48 c1 e0 04          	shl    $0x4,%rax
  40395b:	48 01 e8             	add    %rbp,%rax
  40395e:	48 2d 84 0c 00 00    	sub    $0xc84,%rax
  403964:	f3 0f 10 00          	movss  (%rax),%xmm0
  403968:	f3 0f 58 c1          	addss  %xmm1,%xmm0
  40396c:	f3 0f 11 85 6c f3 ff 	movss  %xmm0,-0xc94(%rbp)
  403973:	ff 
  403974:	83 85 20 f3 ff ff 01 	addl   $0x1,-0xce0(%rbp)
  40397b:	f3 0f 10 8d 60 f3 ff 	movss  -0xca0(%rbp),%xmm1
  403982:	ff 
  403983:	8b 85 20 f3 ff ff    	mov    -0xce0(%rbp),%eax
  403989:	48 98                	cltq   
  40398b:	48 c1 e0 04          	shl    $0x4,%rax
  40398f:	48 01 e8             	add    %rbp,%rax
  403992:	48 2d 90 0c 00 00    	sub    $0xc90,%rax
  403998:	f3 0f 10 00          	movss  (%rax),%xmm0
  40399c:	f3 0f 58 c1          	addss  %xmm1,%xmm0
  4039a0:	f3 0f 11 85 60 f3 ff 	movss  %xmm0,-0xca0(%rbp)
  4039a7:	ff 
  4039a8:	f3 0f 10 8d 64 f3 ff 	movss  -0xc9c(%rbp),%xmm1
  4039af:	ff 
  4039b0:	8b 85 20 f3 ff ff    	mov    -0xce0(%rbp),%eax
  4039b6:	48 98                	cltq   
  4039b8:	48 c1 e0 04          	shl    $0x4,%rax
  4039bc:	48 01 e8             	add    %rbp,%rax
  4039bf:	48 2d 8c 0c 00 00    	sub    $0xc8c,%rax
  4039c5:	f3 0f 10 00          	movss  (%rax),%xmm0
  4039c9:	f3 0f 58 c1          	addss  %xmm1,%xmm0
  4039cd:	f3 0f 11 85 64 f3 ff 	movss  %xmm0,-0xc9c(%rbp)
  4039d4:	ff 
  4039d5:	f3 0f 10 8d 68 f3 ff 	movss  -0xc98(%rbp),%xmm1
  4039dc:	ff 
  4039dd:	8b 85 20 f3 ff ff    	mov    -0xce0(%rbp),%eax
  4039e3:	48 98                	cltq   
  4039e5:	48 c1 e0 04          	shl    $0x4,%rax
  4039e9:	48 01 e8             	add    %rbp,%rax
  4039ec:	48 2d 88 0c 00 00    	sub    $0xc88,%rax
  4039f2:	f3 0f 10 00          	movss  (%rax),%xmm0
  4039f6:	f3 0f 58 c1          	addss  %xmm1,%xmm0
  4039fa:	f3 0f 11 85 68 f3 ff 	movss  %xmm0,-0xc98(%rbp)
  403a01:	ff 
  403a02:	f3 0f 10 8d 6c f3 ff 	movss  -0xc94(%rbp),%xmm1
  403a09:	ff 
  403a0a:	8b 85 20 f3 ff ff    	mov    -0xce0(%rbp),%eax
  403a10:	48 98                	cltq   
  403a12:	48 c1 e0 04          	shl    $0x4,%rax
  403a16:	48 01 e8             	add    %rbp,%rax
  403a19:	48 2d 84 0c 00 00    	sub    $0xc84,%rax
  403a1f:	f3 0f 10 00          	movss  (%rax),%xmm0
  403a23:	f3 0f 58 c1          	addss  %xmm1,%xmm0
  403a27:	f3 0f 11 85 6c f3 ff 	movss  %xmm0,-0xc94(%rbp)
  403a2e:	ff 
  403a2f:	83 85 20 f3 ff ff 01 	addl   $0x1,-0xce0(%rbp)
  403a36:	f3 0f 10 8d 60 f3 ff 	movss  -0xca0(%rbp),%xmm1
  403a3d:	ff 
  403a3e:	8b 85 20 f3 ff ff    	mov    -0xce0(%rbp),%eax
  403a44:	48 98                	cltq   
  403a46:	48 c1 e0 04          	shl    $0x4,%rax
  403a4a:	48 01 e8             	add    %rbp,%rax
  403a4d:	48 2d 90 0c 00 00    	sub    $0xc90,%rax
  403a53:	f3 0f 10 00          	movss  (%rax),%xmm0
  403a57:	f3 0f 58 c1          	addss  %xmm1,%xmm0
  403a5b:	f3 0f 11 85 60 f3 ff 	movss  %xmm0,-0xca0(%rbp)
  403a62:	ff 
  403a63:	f3 0f 10 8d 64 f3 ff 	movss  -0xc9c(%rbp),%xmm1
  403a6a:	ff 
  403a6b:	8b 85 20 f3 ff ff    	mov    -0xce0(%rbp),%eax
  403a71:	48 98                	cltq   
  403a73:	48 c1 e0 04          	shl    $0x4,%rax
  403a77:	48 01 e8             	add    %rbp,%rax
  403a7a:	48 2d 8c 0c 00 00    	sub    $0xc8c,%rax
  403a80:	f3 0f 10 00          	movss  (%rax),%xmm0
  403a84:	f3 0f 58 c1          	addss  %xmm1,%xmm0
  403a88:	f3 0f 11 85 64 f3 ff 	movss  %xmm0,-0xc9c(%rbp)
  403a8f:	ff 
  403a90:	f3 0f 10 8d 68 f3 ff 	movss  -0xc98(%rbp),%xmm1
  403a97:	ff 
  403a98:	8b 85 20 f3 ff ff    	mov    -0xce0(%rbp),%eax
  403a9e:	48 98                	cltq   
  403aa0:	48 c1 e0 04          	shl    $0x4,%rax
  403aa4:	48 01 e8             	add    %rbp,%rax
  403aa7:	48 2d 88 0c 00 00    	sub    $0xc88,%rax
  403aad:	f3 0f 10 00          	movss  (%rax),%xmm0
  403ab1:	f3 0f 58 c1          	addss  %xmm1,%xmm0
  403ab5:	f3 0f 11 85 68 f3 ff 	movss  %xmm0,-0xc98(%rbp)
  403abc:	ff 
  403abd:	f3 0f 10 8d 6c f3 ff 	movss  -0xc94(%rbp),%xmm1
  403ac4:	ff 
  403ac5:	8b 85 20 f3 ff ff    	mov    -0xce0(%rbp),%eax
  403acb:	48 98                	cltq   
  403acd:	48 c1 e0 04          	shl    $0x4,%rax
  403ad1:	48 01 e8             	add    %rbp,%rax
  403ad4:	48 2d 84 0c 00 00    	sub    $0xc84,%rax
  403ada:	f3 0f 10 00          	movss  (%rax),%xmm0
  403ade:	f3 0f 58 c1          	addss  %xmm1,%xmm0
  403ae2:	f3 0f 11 85 6c f3 ff 	movss  %xmm0,-0xc94(%rbp)
  403ae9:	ff 
  403aea:	83 85 20 f3 ff ff 01 	addl   $0x1,-0xce0(%rbp)
  403af1:	f3 0f 10 8d 60 f3 ff 	movss  -0xca0(%rbp),%xmm1
  403af8:	ff 
  403af9:	8b 85 20 f3 ff ff    	mov    -0xce0(%rbp),%eax
  403aff:	48 98                	cltq   
  403b01:	48 c1 e0 04          	shl    $0x4,%rax
  403b05:	48 01 e8             	add    %rbp,%rax
  403b08:	48 2d 90 0c 00 00    	sub    $0xc90,%rax
  403b0e:	f3 0f 10 00          	movss  (%rax),%xmm0
  403b12:	f3 0f 58 c1          	addss  %xmm1,%xmm0
  403b16:	f3 0f 11 85 60 f3 ff 	movss  %xmm0,-0xca0(%rbp)
  403b1d:	ff 
  403b1e:	f3 0f 10 8d 64 f3 ff 	movss  -0xc9c(%rbp),%xmm1
  403b25:	ff 
  403b26:	8b 85 20 f3 ff ff    	mov    -0xce0(%rbp),%eax
  403b2c:	48 98                	cltq   
  403b2e:	48 c1 e0 04          	shl    $0x4,%rax
  403b32:	48 01 e8             	add    %rbp,%rax
  403b35:	48 2d 8c 0c 00 00    	sub    $0xc8c,%rax
  403b3b:	f3 0f 10 00          	movss  (%rax),%xmm0
  403b3f:	f3 0f 58 c1          	addss  %xmm1,%xmm0
  403b43:	f3 0f 11 85 64 f3 ff 	movss  %xmm0,-0xc9c(%rbp)
  403b4a:	ff 
  403b4b:	f3 0f 10 8d 68 f3 ff 	movss  -0xc98(%rbp),%xmm1
  403b52:	ff 
  403b53:	8b 85 20 f3 ff ff    	mov    -0xce0(%rbp),%eax
  403b59:	48 98                	cltq   
  403b5b:	48 c1 e0 04          	shl    $0x4,%rax
  403b5f:	48 01 e8             	add    %rbp,%rax
  403b62:	48 2d 88 0c 00 00    	sub    $0xc88,%rax
  403b68:	f3 0f 10 00          	movss  (%rax),%xmm0
  403b6c:	f3 0f 58 c1          	addss  %xmm1,%xmm0
  403b70:	f3 0f 11 85 68 f3 ff 	movss  %xmm0,-0xc98(%rbp)
  403b77:	ff 
  403b78:	f3 0f 10 8d 6c f3 ff 	movss  -0xc94(%rbp),%xmm1
  403b7f:	ff 
  403b80:	8b 85 20 f3 ff ff    	mov    -0xce0(%rbp),%eax
  403b86:	48 98                	cltq   
  403b88:	48 c1 e0 04          	shl    $0x4,%rax
  403b8c:	48 01 e8             	add    %rbp,%rax
  403b8f:	48 2d 84 0c 00 00    	sub    $0xc84,%rax
  403b95:	f3 0f 10 00          	movss  (%rax),%xmm0
  403b99:	f3 0f 58 c1          	addss  %xmm1,%xmm0
  403b9d:	f3 0f 11 85 6c f3 ff 	movss  %xmm0,-0xc94(%rbp)
  403ba4:	ff 
  403ba5:	83 85 20 f3 ff ff 01 	addl   $0x1,-0xce0(%rbp)
  403bac:	f3 0f 10 8d 60 f3 ff 	movss  -0xca0(%rbp),%xmm1
  403bb3:	ff 
  403bb4:	8b 85 20 f3 ff ff    	mov    -0xce0(%rbp),%eax
  403bba:	48 98                	cltq   
  403bbc:	48 c1 e0 04          	shl    $0x4,%rax
  403bc0:	48 01 e8             	add    %rbp,%rax
  403bc3:	48 2d 90 0c 00 00    	sub    $0xc90,%rax
  403bc9:	f3 0f 10 00          	movss  (%rax),%xmm0
  403bcd:	f3 0f 58 c1          	addss  %xmm1,%xmm0
  403bd1:	f3 0f 11 85 60 f3 ff 	movss  %xmm0,-0xca0(%rbp)
  403bd8:	ff 
  403bd9:	f3 0f 10 8d 64 f3 ff 	movss  -0xc9c(%rbp),%xmm1
  403be0:	ff 
  403be1:	8b 85 20 f3 ff ff    	mov    -0xce0(%rbp),%eax
  403be7:	48 98                	cltq   
  403be9:	48 c1 e0 04          	shl    $0x4,%rax
  403bed:	48 01 e8             	add    %rbp,%rax
  403bf0:	48 2d 8c 0c 00 00    	sub    $0xc8c,%rax
  403bf6:	f3 0f 10 00          	movss  (%rax),%xmm0
  403bfa:	f3 0f 58 c1          	addss  %xmm1,%xmm0
  403bfe:	f3 0f 11 85 64 f3 ff 	movss  %xmm0,-0xc9c(%rbp)
  403c05:	ff 
  403c06:	f3 0f 10 8d 68 f3 ff 	movss  -0xc98(%rbp),%xmm1
  403c0d:	ff 
  403c0e:	8b 85 20 f3 ff ff    	mov    -0xce0(%rbp),%eax
  403c14:	48 98                	cltq   
  403c16:	48 c1 e0 04          	shl    $0x4,%rax
  403c1a:	48 01 e8             	add    %rbp,%rax
  403c1d:	48 2d 88 0c 00 00    	sub    $0xc88,%rax
  403c23:	f3 0f 10 00          	movss  (%rax),%xmm0
  403c27:	f3 0f 58 c1          	addss  %xmm1,%xmm0
  403c2b:	f3 0f 11 85 68 f3 ff 	movss  %xmm0,-0xc98(%rbp)
  403c32:	ff 
  403c33:	f3 0f 10 8d 6c f3 ff 	movss  -0xc94(%rbp),%xmm1
  403c3a:	ff 
  403c3b:	8b 85 20 f3 ff ff    	mov    -0xce0(%rbp),%eax
  403c41:	48 98                	cltq   
  403c43:	48 c1 e0 04          	shl    $0x4,%rax
  403c47:	48 01 e8             	add    %rbp,%rax
  403c4a:	48 2d 84 0c 00 00    	sub    $0xc84,%rax
  403c50:	f3 0f 10 00          	movss  (%rax),%xmm0
  403c54:	f3 0f 58 c1          	addss  %xmm1,%xmm0
  403c58:	f3 0f 11 85 6c f3 ff 	movss  %xmm0,-0xc94(%rbp)
  403c5f:	ff 
  403c60:	83 85 20 f3 ff ff 01 	addl   $0x1,-0xce0(%rbp)
  403c67:	f3 0f 10 8d 60 f3 ff 	movss  -0xca0(%rbp),%xmm1
  403c6e:	ff 
  403c6f:	8b 85 20 f3 ff ff    	mov    -0xce0(%rbp),%eax
  403c75:	48 98                	cltq   
  403c77:	48 c1 e0 04          	shl    $0x4,%rax
  403c7b:	48 01 e8             	add    %rbp,%rax
  403c7e:	48 2d 90 0c 00 00    	sub    $0xc90,%rax
  403c84:	f3 0f 10 00          	movss  (%rax),%xmm0
  403c88:	f3 0f 58 c1          	addss  %xmm1,%xmm0
  403c8c:	f3 0f 11 85 60 f3 ff 	movss  %xmm0,-0xca0(%rbp)
  403c93:	ff 
  403c94:	f3 0f 10 8d 64 f3 ff 	movss  -0xc9c(%rbp),%xmm1
  403c9b:	ff 
  403c9c:	8b 85 20 f3 ff ff    	mov    -0xce0(%rbp),%eax
  403ca2:	48 98                	cltq   
  403ca4:	48 c1 e0 04          	shl    $0x4,%rax
  403ca8:	48 01 e8             	add    %rbp,%rax
  403cab:	48 2d 8c 0c 00 00    	sub    $0xc8c,%rax
  403cb1:	f3 0f 10 00          	movss  (%rax),%xmm0
  403cb5:	f3 0f 58 c1          	addss  %xmm1,%xmm0
  403cb9:	f3 0f 11 85 64 f3 ff 	movss  %xmm0,-0xc9c(%rbp)
  403cc0:	ff 
  403cc1:	f3 0f 10 8d 68 f3 ff 	movss  -0xc98(%rbp),%xmm1
  403cc8:	ff 
  403cc9:	8b 85 20 f3 ff ff    	mov    -0xce0(%rbp),%eax
  403ccf:	48 98                	cltq   
  403cd1:	48 c1 e0 04          	shl    $0x4,%rax
  403cd5:	48 01 e8             	add    %rbp,%rax
  403cd8:	48 2d 88 0c 00 00    	sub    $0xc88,%rax
  403cde:	f3 0f 10 00          	movss  (%rax),%xmm0
  403ce2:	f3 0f 58 c1          	addss  %xmm1,%xmm0
  403ce6:	f3 0f 11 85 68 f3 ff 	movss  %xmm0,-0xc98(%rbp)
  403ced:	ff 
  403cee:	f3 0f 10 8d 6c f3 ff 	movss  -0xc94(%rbp),%xmm1
  403cf5:	ff 
  403cf6:	8b 85 20 f3 ff ff    	mov    -0xce0(%rbp),%eax
  403cfc:	48 98                	cltq   
  403cfe:	48 c1 e0 04          	shl    $0x4,%rax
  403d02:	48 01 e8             	add    %rbp,%rax
  403d05:	48 2d 84 0c 00 00    	sub    $0xc84,%rax
  403d0b:	f3 0f 10 00          	movss  (%rax),%xmm0
  403d0f:	f3 0f 58 c1          	addss  %xmm1,%xmm0
  403d13:	f3 0f 11 85 6c f3 ff 	movss  %xmm0,-0xc94(%rbp)
  403d1a:	ff 
  403d1b:	83 85 20 f3 ff ff 01 	addl   $0x1,-0xce0(%rbp)
  403d22:	f3 0f 10 8d 60 f3 ff 	movss  -0xca0(%rbp),%xmm1
  403d29:	ff 
  403d2a:	8b 85 20 f3 ff ff    	mov    -0xce0(%rbp),%eax
  403d30:	48 98                	cltq   
  403d32:	48 c1 e0 04          	shl    $0x4,%rax
  403d36:	48 01 e8             	add    %rbp,%rax
  403d39:	48 2d 90 0c 00 00    	sub    $0xc90,%rax
  403d3f:	f3 0f 10 00          	movss  (%rax),%xmm0
  403d43:	f3 0f 58 c1          	addss  %xmm1,%xmm0
  403d47:	f3 0f 11 85 60 f3 ff 	movss  %xmm0,-0xca0(%rbp)
  403d4e:	ff 
  403d4f:	f3 0f 10 8d 64 f3 ff 	movss  -0xc9c(%rbp),%xmm1
  403d56:	ff 
  403d57:	8b 85 20 f3 ff ff    	mov    -0xce0(%rbp),%eax
  403d5d:	48 98                	cltq   
  403d5f:	48 c1 e0 04          	shl    $0x4,%rax
  403d63:	48 01 e8             	add    %rbp,%rax
  403d66:	48 2d 8c 0c 00 00    	sub    $0xc8c,%rax
  403d6c:	f3 0f 10 00          	movss  (%rax),%xmm0
  403d70:	f3 0f 58 c1          	addss  %xmm1,%xmm0
  403d74:	f3 0f 11 85 64 f3 ff 	movss  %xmm0,-0xc9c(%rbp)
  403d7b:	ff 
  403d7c:	f3 0f 10 8d 68 f3 ff 	movss  -0xc98(%rbp),%xmm1
  403d83:	ff 
  403d84:	8b 85 20 f3 ff ff    	mov    -0xce0(%rbp),%eax
  403d8a:	48 98                	cltq   
  403d8c:	48 c1 e0 04          	shl    $0x4,%rax
  403d90:	48 01 e8             	add    %rbp,%rax
  403d93:	48 2d 88 0c 00 00    	sub    $0xc88,%rax
  403d99:	f3 0f 10 00          	movss  (%rax),%xmm0
  403d9d:	f3 0f 58 c1          	addss  %xmm1,%xmm0
  403da1:	f3 0f 11 85 68 f3 ff 	movss  %xmm0,-0xc98(%rbp)
  403da8:	ff 
  403da9:	f3 0f 10 8d 6c f3 ff 	movss  -0xc94(%rbp),%xmm1
  403db0:	ff 
  403db1:	8b 85 20 f3 ff ff    	mov    -0xce0(%rbp),%eax
  403db7:	48 98                	cltq   
  403db9:	48 c1 e0 04          	shl    $0x4,%rax
  403dbd:	48 01 e8             	add    %rbp,%rax
  403dc0:	48 2d 84 0c 00 00    	sub    $0xc84,%rax
  403dc6:	f3 0f 10 00          	movss  (%rax),%xmm0
  403dca:	f3 0f 58 c1          	addss  %xmm1,%xmm0
  403dce:	f3 0f 11 85 6c f3 ff 	movss  %xmm0,-0xc94(%rbp)
  403dd5:	ff 
  403dd6:	83 85 20 f3 ff ff 01 	addl   $0x1,-0xce0(%rbp)
  403ddd:	f3 0f 10 8d 60 f3 ff 	movss  -0xca0(%rbp),%xmm1
  403de4:	ff 
  403de5:	8b 85 20 f3 ff ff    	mov    -0xce0(%rbp),%eax
  403deb:	48 98                	cltq   
  403ded:	48 c1 e0 04          	shl    $0x4,%rax
  403df1:	48 01 e8             	add    %rbp,%rax
  403df4:	48 2d 90 0c 00 00    	sub    $0xc90,%rax
  403dfa:	f3 0f 10 00          	movss  (%rax),%xmm0
  403dfe:	f3 0f 58 c1          	addss  %xmm1,%xmm0
  403e02:	f3 0f 11 85 60 f3 ff 	movss  %xmm0,-0xca0(%rbp)
  403e09:	ff 
  403e0a:	f3 0f 10 8d 64 f3 ff 	movss  -0xc9c(%rbp),%xmm1
  403e11:	ff 
  403e12:	8b 85 20 f3 ff ff    	mov    -0xce0(%rbp),%eax
  403e18:	48 98                	cltq   
  403e1a:	48 c1 e0 04          	shl    $0x4,%rax
  403e1e:	48 01 e8             	add    %rbp,%rax
  403e21:	48 2d 8c 0c 00 00    	sub    $0xc8c,%rax
  403e27:	f3 0f 10 00          	movss  (%rax),%xmm0
  403e2b:	f3 0f 58 c1          	addss  %xmm1,%xmm0
  403e2f:	f3 0f 11 85 64 f3 ff 	movss  %xmm0,-0xc9c(%rbp)
  403e36:	ff 
  403e37:	f3 0f 10 8d 68 f3 ff 	movss  -0xc98(%rbp),%xmm1
  403e3e:	ff 
  403e3f:	8b 85 20 f3 ff ff    	mov    -0xce0(%rbp),%eax
  403e45:	48 98                	cltq   
  403e47:	48 c1 e0 04          	shl    $0x4,%rax
  403e4b:	48 01 e8             	add    %rbp,%rax
  403e4e:	48 2d 88 0c 00 00    	sub    $0xc88,%rax
  403e54:	f3 0f 10 00          	movss  (%rax),%xmm0
  403e58:	f3 0f 58 c1          	addss  %xmm1,%xmm0
  403e5c:	f3 0f 11 85 68 f3 ff 	movss  %xmm0,-0xc98(%rbp)
  403e63:	ff 
  403e64:	f3 0f 10 8d 6c f3 ff 	movss  -0xc94(%rbp),%xmm1
  403e6b:	ff 
  403e6c:	8b 85 20 f3 ff ff    	mov    -0xce0(%rbp),%eax
  403e72:	48 98                	cltq   
  403e74:	48 c1 e0 04          	shl    $0x4,%rax
  403e78:	48 01 e8             	add    %rbp,%rax
  403e7b:	48 2d 84 0c 00 00    	sub    $0xc84,%rax
  403e81:	f3 0f 10 00          	movss  (%rax),%xmm0
  403e85:	f3 0f 58 c1          	addss  %xmm1,%xmm0
  403e89:	f3 0f 11 85 6c f3 ff 	movss  %xmm0,-0xc94(%rbp)
  403e90:	ff 
  403e91:	83 85 20 f3 ff ff 01 	addl   $0x1,-0xce0(%rbp)
  403e98:	f3 0f 10 8d 60 f3 ff 	movss  -0xca0(%rbp),%xmm1
  403e9f:	ff 
  403ea0:	8b 85 20 f3 ff ff    	mov    -0xce0(%rbp),%eax
  403ea6:	48 98                	cltq   
  403ea8:	48 c1 e0 04          	shl    $0x4,%rax
  403eac:	48 01 e8             	add    %rbp,%rax
  403eaf:	48 2d 90 0c 00 00    	sub    $0xc90,%rax
  403eb5:	f3 0f 10 00          	movss  (%rax),%xmm0
  403eb9:	f3 0f 58 c1          	addss  %xmm1,%xmm0
  403ebd:	f3 0f 11 85 60 f3 ff 	movss  %xmm0,-0xca0(%rbp)
  403ec4:	ff 
  403ec5:	f3 0f 10 8d 64 f3 ff 	movss  -0xc9c(%rbp),%xmm1
  403ecc:	ff 
  403ecd:	8b 85 20 f3 ff ff    	mov    -0xce0(%rbp),%eax
  403ed3:	48 98                	cltq   
  403ed5:	48 c1 e0 04          	shl    $0x4,%rax
  403ed9:	48 01 e8             	add    %rbp,%rax
  403edc:	48 2d 8c 0c 00 00    	sub    $0xc8c,%rax
  403ee2:	f3 0f 10 00          	movss  (%rax),%xmm0
  403ee6:	f3 0f 58 c1          	addss  %xmm1,%xmm0
  403eea:	f3 0f 11 85 64 f3 ff 	movss  %xmm0,-0xc9c(%rbp)
  403ef1:	ff 
  403ef2:	f3 0f 10 8d 68 f3 ff 	movss  -0xc98(%rbp),%xmm1
  403ef9:	ff 
  403efa:	8b 85 20 f3 ff ff    	mov    -0xce0(%rbp),%eax
  403f00:	48 98                	cltq   
  403f02:	48 c1 e0 04          	shl    $0x4,%rax
  403f06:	48 01 e8             	add    %rbp,%rax
  403f09:	48 2d 88 0c 00 00    	sub    $0xc88,%rax
  403f0f:	f3 0f 10 00          	movss  (%rax),%xmm0
  403f13:	f3 0f 58 c1          	addss  %xmm1,%xmm0
  403f17:	f3 0f 11 85 68 f3 ff 	movss  %xmm0,-0xc98(%rbp)
  403f1e:	ff 
  403f1f:	f3 0f 10 8d 6c f3 ff 	movss  -0xc94(%rbp),%xmm1
  403f26:	ff 
  403f27:	8b 85 20 f3 ff ff    	mov    -0xce0(%rbp),%eax
  403f2d:	48 98                	cltq   
  403f2f:	48 c1 e0 04          	shl    $0x4,%rax
  403f33:	48 01 e8             	add    %rbp,%rax
  403f36:	48 2d 84 0c 00 00    	sub    $0xc84,%rax
  403f3c:	f3 0f 10 00          	movss  (%rax),%xmm0
  403f40:	f3 0f 58 c1          	addss  %xmm1,%xmm0
  403f44:	f3 0f 11 85 6c f3 ff 	movss  %xmm0,-0xc94(%rbp)
  403f4b:	ff 
  403f4c:	83 85 20 f3 ff ff 01 	addl   $0x1,-0xce0(%rbp)
  403f53:	f3 0f 10 8d 60 f3 ff 	movss  -0xca0(%rbp),%xmm1
  403f5a:	ff 
  403f5b:	8b 85 20 f3 ff ff    	mov    -0xce0(%rbp),%eax
  403f61:	48 98                	cltq   
  403f63:	48 c1 e0 04          	shl    $0x4,%rax
  403f67:	48 01 e8             	add    %rbp,%rax
  403f6a:	48 2d 90 0c 00 00    	sub    $0xc90,%rax
  403f70:	f3 0f 10 00          	movss  (%rax),%xmm0
  403f74:	f3 0f 58 c1          	addss  %xmm1,%xmm0
  403f78:	f3 0f 11 85 60 f3 ff 	movss  %xmm0,-0xca0(%rbp)
  403f7f:	ff 
  403f80:	f3 0f 10 8d 64 f3 ff 	movss  -0xc9c(%rbp),%xmm1
  403f87:	ff 
  403f88:	8b 85 20 f3 ff ff    	mov    -0xce0(%rbp),%eax
  403f8e:	48 98                	cltq   
  403f90:	48 c1 e0 04          	shl    $0x4,%rax
  403f94:	48 01 e8             	add    %rbp,%rax
  403f97:	48 2d 8c 0c 00 00    	sub    $0xc8c,%rax
  403f9d:	f3 0f 10 00          	movss  (%rax),%xmm0
  403fa1:	f3 0f 58 c1          	addss  %xmm1,%xmm0
  403fa5:	f3 0f 11 85 64 f3 ff 	movss  %xmm0,-0xc9c(%rbp)
  403fac:	ff 
  403fad:	f3 0f 10 8d 68 f3 ff 	movss  -0xc98(%rbp),%xmm1
  403fb4:	ff 
  403fb5:	8b 85 20 f3 ff ff    	mov    -0xce0(%rbp),%eax
  403fbb:	48 98                	cltq   
  403fbd:	48 c1 e0 04          	shl    $0x4,%rax
  403fc1:	48 01 e8             	add    %rbp,%rax
  403fc4:	48 2d 88 0c 00 00    	sub    $0xc88,%rax
  403fca:	f3 0f 10 00          	movss  (%rax),%xmm0
  403fce:	f3 0f 58 c1          	addss  %xmm1,%xmm0
  403fd2:	f3 0f 11 85 68 f3 ff 	movss  %xmm0,-0xc98(%rbp)
  403fd9:	ff 
  403fda:	f3 0f 10 8d 6c f3 ff 	movss  -0xc94(%rbp),%xmm1
  403fe1:	ff 
  403fe2:	8b 85 20 f3 ff ff    	mov    -0xce0(%rbp),%eax
  403fe8:	48 98                	cltq   
  403fea:	48 c1 e0 04          	shl    $0x4,%rax
  403fee:	48 01 e8             	add    %rbp,%rax
  403ff1:	48 2d 84 0c 00 00    	sub    $0xc84,%rax
  403ff7:	f3 0f 10 00          	movss  (%rax),%xmm0
  403ffb:	f3 0f 58 c1          	addss  %xmm1,%xmm0
  403fff:	f3 0f 11 85 6c f3 ff 	movss  %xmm0,-0xc94(%rbp)
  404006:	ff 
  404007:	83 85 20 f3 ff ff 01 	addl   $0x1,-0xce0(%rbp)
  40400e:	f3 0f 10 8d 60 f3 ff 	movss  -0xca0(%rbp),%xmm1
  404015:	ff 
  404016:	8b 85 20 f3 ff ff    	mov    -0xce0(%rbp),%eax
  40401c:	48 98                	cltq   
  40401e:	48 c1 e0 04          	shl    $0x4,%rax
  404022:	48 01 e8             	add    %rbp,%rax
  404025:	48 2d 90 0c 00 00    	sub    $0xc90,%rax
  40402b:	f3 0f 10 00          	movss  (%rax),%xmm0
  40402f:	f3 0f 58 c1          	addss  %xmm1,%xmm0
  404033:	f3 0f 11 85 60 f3 ff 	movss  %xmm0,-0xca0(%rbp)
  40403a:	ff 
  40403b:	f3 0f 10 8d 64 f3 ff 	movss  -0xc9c(%rbp),%xmm1
  404042:	ff 
  404043:	8b 85 20 f3 ff ff    	mov    -0xce0(%rbp),%eax
  404049:	48 98                	cltq   
  40404b:	48 c1 e0 04          	shl    $0x4,%rax
  40404f:	48 01 e8             	add    %rbp,%rax
  404052:	48 2d 8c 0c 00 00    	sub    $0xc8c,%rax
  404058:	f3 0f 10 00          	movss  (%rax),%xmm0
  40405c:	f3 0f 58 c1          	addss  %xmm1,%xmm0
  404060:	f3 0f 11 85 64 f3 ff 	movss  %xmm0,-0xc9c(%rbp)
  404067:	ff 
  404068:	f3 0f 10 8d 68 f3 ff 	movss  -0xc98(%rbp),%xmm1
  40406f:	ff 
  404070:	8b 85 20 f3 ff ff    	mov    -0xce0(%rbp),%eax
  404076:	48 98                	cltq   
  404078:	48 c1 e0 04          	shl    $0x4,%rax
  40407c:	48 01 e8             	add    %rbp,%rax
  40407f:	48 2d 88 0c 00 00    	sub    $0xc88,%rax
  404085:	f3 0f 10 00          	movss  (%rax),%xmm0
  404089:	f3 0f 58 c1          	addss  %xmm1,%xmm0
  40408d:	f3 0f 11 85 68 f3 ff 	movss  %xmm0,-0xc98(%rbp)
  404094:	ff 
  404095:	f3 0f 10 8d 6c f3 ff 	movss  -0xc94(%rbp),%xmm1
  40409c:	ff 
  40409d:	8b 85 20 f3 ff ff    	mov    -0xce0(%rbp),%eax
  4040a3:	48 98                	cltq   
  4040a5:	48 c1 e0 04          	shl    $0x4,%rax
  4040a9:	48 01 e8             	add    %rbp,%rax
  4040ac:	48 2d 84 0c 00 00    	sub    $0xc84,%rax
  4040b2:	f3 0f 10 00          	movss  (%rax),%xmm0
  4040b6:	f3 0f 58 c1          	addss  %xmm1,%xmm0
  4040ba:	f3 0f 11 85 6c f3 ff 	movss  %xmm0,-0xc94(%rbp)
  4040c1:	ff 
  4040c2:	83 85 20 f3 ff ff 01 	addl   $0x1,-0xce0(%rbp)
  4040c9:	f3 0f 10 8d 60 f3 ff 	movss  -0xca0(%rbp),%xmm1
  4040d0:	ff 
  4040d1:	8b 85 20 f3 ff ff    	mov    -0xce0(%rbp),%eax
  4040d7:	48 98                	cltq   
  4040d9:	48 c1 e0 04          	shl    $0x4,%rax
  4040dd:	48 01 e8             	add    %rbp,%rax
  4040e0:	48 2d 90 0c 00 00    	sub    $0xc90,%rax
  4040e6:	f3 0f 10 00          	movss  (%rax),%xmm0
  4040ea:	f3 0f 58 c1          	addss  %xmm1,%xmm0
  4040ee:	f3 0f 11 85 60 f3 ff 	movss  %xmm0,-0xca0(%rbp)
  4040f5:	ff 
  4040f6:	f3 0f 10 8d 64 f3 ff 	movss  -0xc9c(%rbp),%xmm1
  4040fd:	ff 
  4040fe:	8b 85 20 f3 ff ff    	mov    -0xce0(%rbp),%eax
  404104:	48 98                	cltq   
  404106:	48 c1 e0 04          	shl    $0x4,%rax
  40410a:	48 01 e8             	add    %rbp,%rax
  40410d:	48 2d 8c 0c 00 00    	sub    $0xc8c,%rax
  404113:	f3 0f 10 00          	movss  (%rax),%xmm0
  404117:	f3 0f 58 c1          	addss  %xmm1,%xmm0
  40411b:	f3 0f 11 85 64 f3 ff 	movss  %xmm0,-0xc9c(%rbp)
  404122:	ff 
  404123:	f3 0f 10 8d 68 f3 ff 	movss  -0xc98(%rbp),%xmm1
  40412a:	ff 
  40412b:	8b 85 20 f3 ff ff    	mov    -0xce0(%rbp),%eax
  404131:	48 98                	cltq   
  404133:	48 c1 e0 04          	shl    $0x4,%rax
  404137:	48 01 e8             	add    %rbp,%rax
  40413a:	48 2d 88 0c 00 00    	sub    $0xc88,%rax
  404140:	f3 0f 10 00          	movss  (%rax),%xmm0
  404144:	f3 0f 58 c1          	addss  %xmm1,%xmm0
  404148:	f3 0f 11 85 68 f3 ff 	movss  %xmm0,-0xc98(%rbp)
  40414f:	ff 
  404150:	f3 0f 10 8d 6c f3 ff 	movss  -0xc94(%rbp),%xmm1
  404157:	ff 
  404158:	8b 85 20 f3 ff ff    	mov    -0xce0(%rbp),%eax
  40415e:	48 98                	cltq   
  404160:	48 c1 e0 04          	shl    $0x4,%rax
  404164:	48 01 e8             	add    %rbp,%rax
  404167:	48 2d 84 0c 00 00    	sub    $0xc84,%rax
  40416d:	f3 0f 10 00          	movss  (%rax),%xmm0
  404171:	f3 0f 58 c1          	addss  %xmm1,%xmm0
  404175:	f3 0f 11 85 6c f3 ff 	movss  %xmm0,-0xc94(%rbp)
  40417c:	ff 
  40417d:	83 85 20 f3 ff ff 01 	addl   $0x1,-0xce0(%rbp)
  404184:	f3 0f 10 8d 60 f3 ff 	movss  -0xca0(%rbp),%xmm1
  40418b:	ff 
  40418c:	8b 85 20 f3 ff ff    	mov    -0xce0(%rbp),%eax
  404192:	48 98                	cltq   
  404194:	48 c1 e0 04          	shl    $0x4,%rax
  404198:	48 01 e8             	add    %rbp,%rax
  40419b:	48 2d 90 0c 00 00    	sub    $0xc90,%rax
  4041a1:	f3 0f 10 00          	movss  (%rax),%xmm0
  4041a5:	f3 0f 58 c1          	addss  %xmm1,%xmm0
  4041a9:	f3 0f 11 85 60 f3 ff 	movss  %xmm0,-0xca0(%rbp)
  4041b0:	ff 
  4041b1:	f3 0f 10 8d 64 f3 ff 	movss  -0xc9c(%rbp),%xmm1
  4041b8:	ff 
  4041b9:	8b 85 20 f3 ff ff    	mov    -0xce0(%rbp),%eax
  4041bf:	48 98                	cltq   
  4041c1:	48 c1 e0 04          	shl    $0x4,%rax
  4041c5:	48 01 e8             	add    %rbp,%rax
  4041c8:	48 2d 8c 0c 00 00    	sub    $0xc8c,%rax
  4041ce:	f3 0f 10 00          	movss  (%rax),%xmm0
  4041d2:	f3 0f 58 c1          	addss  %xmm1,%xmm0
  4041d6:	f3 0f 11 85 64 f3 ff 	movss  %xmm0,-0xc9c(%rbp)
  4041dd:	ff 
  4041de:	f3 0f 10 8d 68 f3 ff 	movss  -0xc98(%rbp),%xmm1
  4041e5:	ff 
  4041e6:	8b 85 20 f3 ff ff    	mov    -0xce0(%rbp),%eax
  4041ec:	48 98                	cltq   
  4041ee:	48 c1 e0 04          	shl    $0x4,%rax
  4041f2:	48 01 e8             	add    %rbp,%rax
  4041f5:	48 2d 88 0c 00 00    	sub    $0xc88,%rax
  4041fb:	f3 0f 10 00          	movss  (%rax),%xmm0
  4041ff:	f3 0f 58 c1          	addss  %xmm1,%xmm0
  404203:	f3 0f 11 85 68 f3 ff 	movss  %xmm0,-0xc98(%rbp)
  40420a:	ff 
  40420b:	f3 0f 10 8d 6c f3 ff 	movss  -0xc94(%rbp),%xmm1
  404212:	ff 
  404213:	8b 85 20 f3 ff ff    	mov    -0xce0(%rbp),%eax
  404219:	48 98                	cltq   
  40421b:	48 c1 e0 04          	shl    $0x4,%rax
  40421f:	48 01 e8             	add    %rbp,%rax
  404222:	48 2d 84 0c 00 00    	sub    $0xc84,%rax
  404228:	f3 0f 10 00          	movss  (%rax),%xmm0
  40422c:	f3 0f 58 c1          	addss  %xmm1,%xmm0
  404230:	f3 0f 11 85 6c f3 ff 	movss  %xmm0,-0xc94(%rbp)
  404237:	ff 
  404238:	83 85 20 f3 ff ff 01 	addl   $0x1,-0xce0(%rbp)
  40423f:	f3 0f 10 8d 60 f3 ff 	movss  -0xca0(%rbp),%xmm1
  404246:	ff 
  404247:	8b 85 20 f3 ff ff    	mov    -0xce0(%rbp),%eax
  40424d:	48 98                	cltq   
  40424f:	48 c1 e0 04          	shl    $0x4,%rax
  404253:	48 01 e8             	add    %rbp,%rax
  404256:	48 2d 90 0c 00 00    	sub    $0xc90,%rax
  40425c:	f3 0f 10 00          	movss  (%rax),%xmm0
  404260:	f3 0f 58 c1          	addss  %xmm1,%xmm0
  404264:	f3 0f 11 85 60 f3 ff 	movss  %xmm0,-0xca0(%rbp)
  40426b:	ff 
  40426c:	f3 0f 10 8d 64 f3 ff 	movss  -0xc9c(%rbp),%xmm1
  404273:	ff 
  404274:	8b 85 20 f3 ff ff    	mov    -0xce0(%rbp),%eax
  40427a:	48 98                	cltq   
  40427c:	48 c1 e0 04          	shl    $0x4,%rax
  404280:	48 01 e8             	add    %rbp,%rax
  404283:	48 2d 8c 0c 00 00    	sub    $0xc8c,%rax
  404289:	f3 0f 10 00          	movss  (%rax),%xmm0
  40428d:	f3 0f 58 c1          	addss  %xmm1,%xmm0
  404291:	f3 0f 11 85 64 f3 ff 	movss  %xmm0,-0xc9c(%rbp)
  404298:	ff 
  404299:	f3 0f 10 8d 68 f3 ff 	movss  -0xc98(%rbp),%xmm1
  4042a0:	ff 
  4042a1:	8b 85 20 f3 ff ff    	mov    -0xce0(%rbp),%eax
  4042a7:	48 98                	cltq   
  4042a9:	48 c1 e0 04          	shl    $0x4,%rax
  4042ad:	48 01 e8             	add    %rbp,%rax
  4042b0:	48 2d 88 0c 00 00    	sub    $0xc88,%rax
  4042b6:	f3 0f 10 00          	movss  (%rax),%xmm0
  4042ba:	f3 0f 58 c1          	addss  %xmm1,%xmm0
  4042be:	f3 0f 11 85 68 f3 ff 	movss  %xmm0,-0xc98(%rbp)
  4042c5:	ff 
  4042c6:	f3 0f 10 8d 6c f3 ff 	movss  -0xc94(%rbp),%xmm1
  4042cd:	ff 
  4042ce:	8b 85 20 f3 ff ff    	mov    -0xce0(%rbp),%eax
  4042d4:	48 98                	cltq   
  4042d6:	48 c1 e0 04          	shl    $0x4,%rax
  4042da:	48 01 e8             	add    %rbp,%rax
  4042dd:	48 2d 84 0c 00 00    	sub    $0xc84,%rax
  4042e3:	f3 0f 10 00          	movss  (%rax),%xmm0
  4042e7:	f3 0f 58 c1          	addss  %xmm1,%xmm0
  4042eb:	f3 0f 11 85 6c f3 ff 	movss  %xmm0,-0xc94(%rbp)
  4042f2:	ff 
  4042f3:	83 85 20 f3 ff ff 01 	addl   $0x1,-0xce0(%rbp)
  4042fa:	f3 0f 10 8d 60 f3 ff 	movss  -0xca0(%rbp),%xmm1
  404301:	ff 
  404302:	8b 85 20 f3 ff ff    	mov    -0xce0(%rbp),%eax
  404308:	48 98                	cltq   
  40430a:	48 c1 e0 04          	shl    $0x4,%rax
  40430e:	48 01 e8             	add    %rbp,%rax
  404311:	48 2d 90 0c 00 00    	sub    $0xc90,%rax
  404317:	f3 0f 10 00          	movss  (%rax),%xmm0
  40431b:	f3 0f 58 c1          	addss  %xmm1,%xmm0
  40431f:	f3 0f 11 85 60 f3 ff 	movss  %xmm0,-0xca0(%rbp)
  404326:	ff 
  404327:	f3 0f 10 8d 64 f3 ff 	movss  -0xc9c(%rbp),%xmm1
  40432e:	ff 
  40432f:	8b 85 20 f3 ff ff    	mov    -0xce0(%rbp),%eax
  404335:	48 98                	cltq   
  404337:	48 c1 e0 04          	shl    $0x4,%rax
  40433b:	48 01 e8             	add    %rbp,%rax
  40433e:	48 2d 8c 0c 00 00    	sub    $0xc8c,%rax
  404344:	f3 0f 10 00          	movss  (%rax),%xmm0
  404348:	f3 0f 58 c1          	addss  %xmm1,%xmm0
  40434c:	f3 0f 11 85 64 f3 ff 	movss  %xmm0,-0xc9c(%rbp)
  404353:	ff 
  404354:	f3 0f 10 8d 68 f3 ff 	movss  -0xc98(%rbp),%xmm1
  40435b:	ff 
  40435c:	8b 85 20 f3 ff ff    	mov    -0xce0(%rbp),%eax
  404362:	48 98                	cltq   
  404364:	48 c1 e0 04          	shl    $0x4,%rax
  404368:	48 01 e8             	add    %rbp,%rax
  40436b:	48 2d 88 0c 00 00    	sub    $0xc88,%rax
  404371:	f3 0f 10 00          	movss  (%rax),%xmm0
  404375:	f3 0f 58 c1          	addss  %xmm1,%xmm0
  404379:	f3 0f 11 85 68 f3 ff 	movss  %xmm0,-0xc98(%rbp)
  404380:	ff 
  404381:	f3 0f 10 8d 6c f3 ff 	movss  -0xc94(%rbp),%xmm1
  404388:	ff 
  404389:	8b 85 20 f3 ff ff    	mov    -0xce0(%rbp),%eax
  40438f:	48 98                	cltq   
  404391:	48 c1 e0 04          	shl    $0x4,%rax
  404395:	48 01 e8             	add    %rbp,%rax
  404398:	48 2d 84 0c 00 00    	sub    $0xc84,%rax
  40439e:	f3 0f 10 00          	movss  (%rax),%xmm0
  4043a2:	f3 0f 58 c1          	addss  %xmm1,%xmm0
  4043a6:	f3 0f 11 85 6c f3 ff 	movss  %xmm0,-0xc94(%rbp)
  4043ad:	ff 
  4043ae:	83 85 20 f3 ff ff 01 	addl   $0x1,-0xce0(%rbp)
  4043b5:	f3 0f 10 8d 60 f3 ff 	movss  -0xca0(%rbp),%xmm1
  4043bc:	ff 
  4043bd:	8b 85 20 f3 ff ff    	mov    -0xce0(%rbp),%eax
  4043c3:	48 98                	cltq   
  4043c5:	48 c1 e0 04          	shl    $0x4,%rax
  4043c9:	48 01 e8             	add    %rbp,%rax
  4043cc:	48 2d 90 0c 00 00    	sub    $0xc90,%rax
  4043d2:	f3 0f 10 00          	movss  (%rax),%xmm0
  4043d6:	f3 0f 58 c1          	addss  %xmm1,%xmm0
  4043da:	f3 0f 11 85 60 f3 ff 	movss  %xmm0,-0xca0(%rbp)
  4043e1:	ff 
  4043e2:	f3 0f 10 8d 64 f3 ff 	movss  -0xc9c(%rbp),%xmm1
  4043e9:	ff 
  4043ea:	8b 85 20 f3 ff ff    	mov    -0xce0(%rbp),%eax
  4043f0:	48 98                	cltq   
  4043f2:	48 c1 e0 04          	shl    $0x4,%rax
  4043f6:	48 01 e8             	add    %rbp,%rax
  4043f9:	48 2d 8c 0c 00 00    	sub    $0xc8c,%rax
  4043ff:	f3 0f 10 00          	movss  (%rax),%xmm0
  404403:	f3 0f 58 c1          	addss  %xmm1,%xmm0
  404407:	f3 0f 11 85 64 f3 ff 	movss  %xmm0,-0xc9c(%rbp)
  40440e:	ff 
  40440f:	f3 0f 10 8d 68 f3 ff 	movss  -0xc98(%rbp),%xmm1
  404416:	ff 
  404417:	8b 85 20 f3 ff ff    	mov    -0xce0(%rbp),%eax
  40441d:	48 98                	cltq   
  40441f:	48 c1 e0 04          	shl    $0x4,%rax
  404423:	48 01 e8             	add    %rbp,%rax
  404426:	48 2d 88 0c 00 00    	sub    $0xc88,%rax
  40442c:	f3 0f 10 00          	movss  (%rax),%xmm0
  404430:	f3 0f 58 c1          	addss  %xmm1,%xmm0
  404434:	f3 0f 11 85 68 f3 ff 	movss  %xmm0,-0xc98(%rbp)
  40443b:	ff 
  40443c:	f3 0f 10 8d 6c f3 ff 	movss  -0xc94(%rbp),%xmm1
  404443:	ff 
  404444:	8b 85 20 f3 ff ff    	mov    -0xce0(%rbp),%eax
  40444a:	48 98                	cltq   
  40444c:	48 c1 e0 04          	shl    $0x4,%rax
  404450:	48 01 e8             	add    %rbp,%rax
  404453:	48 2d 84 0c 00 00    	sub    $0xc84,%rax
  404459:	f3 0f 10 00          	movss  (%rax),%xmm0
  40445d:	f3 0f 58 c1          	addss  %xmm1,%xmm0
  404461:	f3 0f 11 85 6c f3 ff 	movss  %xmm0,-0xc94(%rbp)
  404468:	ff 
  404469:	83 85 20 f3 ff ff 01 	addl   $0x1,-0xce0(%rbp)
  404470:	f3 0f 10 8d 60 f3 ff 	movss  -0xca0(%rbp),%xmm1
  404477:	ff 
  404478:	8b 85 20 f3 ff ff    	mov    -0xce0(%rbp),%eax
  40447e:	48 98                	cltq   
  404480:	48 c1 e0 04          	shl    $0x4,%rax
  404484:	48 01 e8             	add    %rbp,%rax
  404487:	48 2d 90 0c 00 00    	sub    $0xc90,%rax
  40448d:	f3 0f 10 00          	movss  (%rax),%xmm0
  404491:	f3 0f 58 c1          	addss  %xmm1,%xmm0
  404495:	f3 0f 11 85 60 f3 ff 	movss  %xmm0,-0xca0(%rbp)
  40449c:	ff 
  40449d:	f3 0f 10 8d 64 f3 ff 	movss  -0xc9c(%rbp),%xmm1
  4044a4:	ff 
  4044a5:	8b 85 20 f3 ff ff    	mov    -0xce0(%rbp),%eax
  4044ab:	48 98                	cltq   
  4044ad:	48 c1 e0 04          	shl    $0x4,%rax
  4044b1:	48 01 e8             	add    %rbp,%rax
  4044b4:	48 2d 8c 0c 00 00    	sub    $0xc8c,%rax
  4044ba:	f3 0f 10 00          	movss  (%rax),%xmm0
  4044be:	f3 0f 58 c1          	addss  %xmm1,%xmm0
  4044c2:	f3 0f 11 85 64 f3 ff 	movss  %xmm0,-0xc9c(%rbp)
  4044c9:	ff 
  4044ca:	f3 0f 10 8d 68 f3 ff 	movss  -0xc98(%rbp),%xmm1
  4044d1:	ff 
  4044d2:	8b 85 20 f3 ff ff    	mov    -0xce0(%rbp),%eax
  4044d8:	48 98                	cltq   
  4044da:	48 c1 e0 04          	shl    $0x4,%rax
  4044de:	48 01 e8             	add    %rbp,%rax
  4044e1:	48 2d 88 0c 00 00    	sub    $0xc88,%rax
  4044e7:	f3 0f 10 00          	movss  (%rax),%xmm0
  4044eb:	f3 0f 58 c1          	addss  %xmm1,%xmm0
  4044ef:	f3 0f 11 85 68 f3 ff 	movss  %xmm0,-0xc98(%rbp)
  4044f6:	ff 
  4044f7:	f3 0f 10 8d 6c f3 ff 	movss  -0xc94(%rbp),%xmm1
  4044fe:	ff 
  4044ff:	8b 85 20 f3 ff ff    	mov    -0xce0(%rbp),%eax
  404505:	48 98                	cltq   
  404507:	48 c1 e0 04          	shl    $0x4,%rax
  40450b:	48 01 e8             	add    %rbp,%rax
  40450e:	48 2d 84 0c 00 00    	sub    $0xc84,%rax
  404514:	f3 0f 10 00          	movss  (%rax),%xmm0
  404518:	f3 0f 58 c1          	addss  %xmm1,%xmm0
  40451c:	f3 0f 11 85 6c f3 ff 	movss  %xmm0,-0xc94(%rbp)
  404523:	ff 
  404524:	83 85 20 f3 ff ff 01 	addl   $0x1,-0xce0(%rbp)
  40452b:	f3 0f 10 8d 60 f3 ff 	movss  -0xca0(%rbp),%xmm1
  404532:	ff 
  404533:	8b 85 20 f3 ff ff    	mov    -0xce0(%rbp),%eax
  404539:	48 98                	cltq   
  40453b:	48 c1 e0 04          	shl    $0x4,%rax
  40453f:	48 01 e8             	add    %rbp,%rax
  404542:	48 2d 90 0c 00 00    	sub    $0xc90,%rax
  404548:	f3 0f 10 00          	movss  (%rax),%xmm0
  40454c:	f3 0f 58 c1          	addss  %xmm1,%xmm0
  404550:	f3 0f 11 85 60 f3 ff 	movss  %xmm0,-0xca0(%rbp)
  404557:	ff 
  404558:	f3 0f 10 8d 64 f3 ff 	movss  -0xc9c(%rbp),%xmm1
  40455f:	ff 
  404560:	8b 85 20 f3 ff ff    	mov    -0xce0(%rbp),%eax
  404566:	48 98                	cltq   
  404568:	48 c1 e0 04          	shl    $0x4,%rax
  40456c:	48 01 e8             	add    %rbp,%rax
  40456f:	48 2d 8c 0c 00 00    	sub    $0xc8c,%rax
  404575:	f3 0f 10 00          	movss  (%rax),%xmm0
  404579:	f3 0f 58 c1          	addss  %xmm1,%xmm0
  40457d:	f3 0f 11 85 64 f3 ff 	movss  %xmm0,-0xc9c(%rbp)
  404584:	ff 
  404585:	f3 0f 10 8d 68 f3 ff 	movss  -0xc98(%rbp),%xmm1
  40458c:	ff 
  40458d:	8b 85 20 f3 ff ff    	mov    -0xce0(%rbp),%eax
  404593:	48 98                	cltq   
  404595:	48 c1 e0 04          	shl    $0x4,%rax
  404599:	48 01 e8             	add    %rbp,%rax
  40459c:	48 2d 88 0c 00 00    	sub    $0xc88,%rax
  4045a2:	f3 0f 10 00          	movss  (%rax),%xmm0
  4045a6:	f3 0f 58 c1          	addss  %xmm1,%xmm0
  4045aa:	f3 0f 11 85 68 f3 ff 	movss  %xmm0,-0xc98(%rbp)
  4045b1:	ff 
  4045b2:	f3 0f 10 8d 6c f3 ff 	movss  -0xc94(%rbp),%xmm1
  4045b9:	ff 
  4045ba:	8b 85 20 f3 ff ff    	mov    -0xce0(%rbp),%eax
  4045c0:	48 98                	cltq   
  4045c2:	48 c1 e0 04          	shl    $0x4,%rax
  4045c6:	48 01 e8             	add    %rbp,%rax
  4045c9:	48 2d 84 0c 00 00    	sub    $0xc84,%rax
  4045cf:	f3 0f 10 00          	movss  (%rax),%xmm0
  4045d3:	f3 0f 58 c1          	addss  %xmm1,%xmm0
  4045d7:	f3 0f 11 85 6c f3 ff 	movss  %xmm0,-0xc94(%rbp)
  4045de:	ff 
  4045df:	83 85 20 f3 ff ff 01 	addl   $0x1,-0xce0(%rbp)
  4045e6:	f3 0f 10 8d 60 f3 ff 	movss  -0xca0(%rbp),%xmm1
  4045ed:	ff 
  4045ee:	8b 85 20 f3 ff ff    	mov    -0xce0(%rbp),%eax
  4045f4:	48 98                	cltq   
  4045f6:	48 c1 e0 04          	shl    $0x4,%rax
  4045fa:	48 01 e8             	add    %rbp,%rax
  4045fd:	48 2d 90 0c 00 00    	sub    $0xc90,%rax
  404603:	f3 0f 10 00          	movss  (%rax),%xmm0
  404607:	f3 0f 58 c1          	addss  %xmm1,%xmm0
  40460b:	f3 0f 11 85 60 f3 ff 	movss  %xmm0,-0xca0(%rbp)
  404612:	ff 
  404613:	f3 0f 10 8d 64 f3 ff 	movss  -0xc9c(%rbp),%xmm1
  40461a:	ff 
  40461b:	8b 85 20 f3 ff ff    	mov    -0xce0(%rbp),%eax
  404621:	48 98                	cltq   
  404623:	48 c1 e0 04          	shl    $0x4,%rax
  404627:	48 01 e8             	add    %rbp,%rax
  40462a:	48 2d 8c 0c 00 00    	sub    $0xc8c,%rax
  404630:	f3 0f 10 00          	movss  (%rax),%xmm0
  404634:	f3 0f 58 c1          	addss  %xmm1,%xmm0
  404638:	f3 0f 11 85 64 f3 ff 	movss  %xmm0,-0xc9c(%rbp)
  40463f:	ff 
  404640:	f3 0f 10 8d 68 f3 ff 	movss  -0xc98(%rbp),%xmm1
  404647:	ff 
  404648:	8b 85 20 f3 ff ff    	mov    -0xce0(%rbp),%eax
  40464e:	48 98                	cltq   
  404650:	48 c1 e0 04          	shl    $0x4,%rax
  404654:	48 01 e8             	add    %rbp,%rax
  404657:	48 2d 88 0c 00 00    	sub    $0xc88,%rax
  40465d:	f3 0f 10 00          	movss  (%rax),%xmm0
  404661:	f3 0f 58 c1          	addss  %xmm1,%xmm0
  404665:	f3 0f 11 85 68 f3 ff 	movss  %xmm0,-0xc98(%rbp)
  40466c:	ff 
  40466d:	f3 0f 10 8d 6c f3 ff 	movss  -0xc94(%rbp),%xmm1
  404674:	ff 
  404675:	8b 85 20 f3 ff ff    	mov    -0xce0(%rbp),%eax
  40467b:	48 98                	cltq   
  40467d:	48 c1 e0 04          	shl    $0x4,%rax
  404681:	48 01 e8             	add    %rbp,%rax
  404684:	48 2d 84 0c 00 00    	sub    $0xc84,%rax
  40468a:	f3 0f 10 00          	movss  (%rax),%xmm0
  40468e:	f3 0f 58 c1          	addss  %xmm1,%xmm0
  404692:	f3 0f 11 85 6c f3 ff 	movss  %xmm0,-0xc94(%rbp)
  404699:	ff 
  40469a:	83 85 20 f3 ff ff 01 	addl   $0x1,-0xce0(%rbp)
  4046a1:	f3 0f 10 8d 60 f3 ff 	movss  -0xca0(%rbp),%xmm1
  4046a8:	ff 
  4046a9:	8b 85 20 f3 ff ff    	mov    -0xce0(%rbp),%eax
  4046af:	48 98                	cltq   
  4046b1:	48 c1 e0 04          	shl    $0x4,%rax
  4046b5:	48 01 e8             	add    %rbp,%rax
  4046b8:	48 2d 90 0c 00 00    	sub    $0xc90,%rax
  4046be:	f3 0f 10 00          	movss  (%rax),%xmm0
  4046c2:	f3 0f 58 c1          	addss  %xmm1,%xmm0
  4046c6:	f3 0f 11 85 60 f3 ff 	movss  %xmm0,-0xca0(%rbp)
  4046cd:	ff 
  4046ce:	f3 0f 10 8d 64 f3 ff 	movss  -0xc9c(%rbp),%xmm1
  4046d5:	ff 
  4046d6:	8b 85 20 f3 ff ff    	mov    -0xce0(%rbp),%eax
  4046dc:	48 98                	cltq   
  4046de:	48 c1 e0 04          	shl    $0x4,%rax
  4046e2:	48 01 e8             	add    %rbp,%rax
  4046e5:	48 2d 8c 0c 00 00    	sub    $0xc8c,%rax
  4046eb:	f3 0f 10 00          	movss  (%rax),%xmm0
  4046ef:	f3 0f 58 c1          	addss  %xmm1,%xmm0
  4046f3:	f3 0f 11 85 64 f3 ff 	movss  %xmm0,-0xc9c(%rbp)
  4046fa:	ff 
  4046fb:	f3 0f 10 8d 68 f3 ff 	movss  -0xc98(%rbp),%xmm1
  404702:	ff 
  404703:	8b 85 20 f3 ff ff    	mov    -0xce0(%rbp),%eax
  404709:	48 98                	cltq   
  40470b:	48 c1 e0 04          	shl    $0x4,%rax
  40470f:	48 01 e8             	add    %rbp,%rax
  404712:	48 2d 88 0c 00 00    	sub    $0xc88,%rax
  404718:	f3 0f 10 00          	movss  (%rax),%xmm0
  40471c:	f3 0f 58 c1          	addss  %xmm1,%xmm0
  404720:	f3 0f 11 85 68 f3 ff 	movss  %xmm0,-0xc98(%rbp)
  404727:	ff 
  404728:	f3 0f 10 8d 6c f3 ff 	movss  -0xc94(%rbp),%xmm1
  40472f:	ff 
  404730:	8b 85 20 f3 ff ff    	mov    -0xce0(%rbp),%eax
  404736:	48 98                	cltq   
  404738:	48 c1 e0 04          	shl    $0x4,%rax
  40473c:	48 01 e8             	add    %rbp,%rax
  40473f:	48 2d 84 0c 00 00    	sub    $0xc84,%rax
  404745:	f3 0f 10 00          	movss  (%rax),%xmm0
  404749:	f3 0f 58 c1          	addss  %xmm1,%xmm0
  40474d:	f3 0f 11 85 6c f3 ff 	movss  %xmm0,-0xc94(%rbp)
  404754:	ff 
  404755:	83 85 20 f3 ff ff 01 	addl   $0x1,-0xce0(%rbp)
  40475c:	f3 0f 10 8d 60 f3 ff 	movss  -0xca0(%rbp),%xmm1
  404763:	ff 
  404764:	8b 85 20 f3 ff ff    	mov    -0xce0(%rbp),%eax
  40476a:	48 98                	cltq   
  40476c:	48 c1 e0 04          	shl    $0x4,%rax
  404770:	48 01 e8             	add    %rbp,%rax
  404773:	48 2d 90 0c 00 00    	sub    $0xc90,%rax
  404779:	f3 0f 10 00          	movss  (%rax),%xmm0
  40477d:	f3 0f 58 c1          	addss  %xmm1,%xmm0
  404781:	f3 0f 11 85 60 f3 ff 	movss  %xmm0,-0xca0(%rbp)
  404788:	ff 
  404789:	f3 0f 10 8d 64 f3 ff 	movss  -0xc9c(%rbp),%xmm1
  404790:	ff 
  404791:	8b 85 20 f3 ff ff    	mov    -0xce0(%rbp),%eax
  404797:	48 98                	cltq   
  404799:	48 c1 e0 04          	shl    $0x4,%rax
  40479d:	48 01 e8             	add    %rbp,%rax
  4047a0:	48 2d 8c 0c 00 00    	sub    $0xc8c,%rax
  4047a6:	f3 0f 10 00          	movss  (%rax),%xmm0
  4047aa:	f3 0f 58 c1          	addss  %xmm1,%xmm0
  4047ae:	f3 0f 11 85 64 f3 ff 	movss  %xmm0,-0xc9c(%rbp)
  4047b5:	ff 
  4047b6:	f3 0f 10 8d 68 f3 ff 	movss  -0xc98(%rbp),%xmm1
  4047bd:	ff 
  4047be:	8b 85 20 f3 ff ff    	mov    -0xce0(%rbp),%eax
  4047c4:	48 98                	cltq   
  4047c6:	48 c1 e0 04          	shl    $0x4,%rax
  4047ca:	48 01 e8             	add    %rbp,%rax
  4047cd:	48 2d 88 0c 00 00    	sub    $0xc88,%rax
  4047d3:	f3 0f 10 00          	movss  (%rax),%xmm0
  4047d7:	f3 0f 58 c1          	addss  %xmm1,%xmm0
  4047db:	f3 0f 11 85 68 f3 ff 	movss  %xmm0,-0xc98(%rbp)
  4047e2:	ff 
  4047e3:	f3 0f 10 8d 6c f3 ff 	movss  -0xc94(%rbp),%xmm1
  4047ea:	ff 
  4047eb:	8b 85 20 f3 ff ff    	mov    -0xce0(%rbp),%eax
  4047f1:	48 98                	cltq   
  4047f3:	48 c1 e0 04          	shl    $0x4,%rax
  4047f7:	48 01 e8             	add    %rbp,%rax
  4047fa:	48 2d 84 0c 00 00    	sub    $0xc84,%rax
  404800:	f3 0f 10 00          	movss  (%rax),%xmm0
  404804:	f3 0f 58 c1          	addss  %xmm1,%xmm0
  404808:	f3 0f 11 85 6c f3 ff 	movss  %xmm0,-0xc94(%rbp)
  40480f:	ff 
  404810:	83 85 20 f3 ff ff 01 	addl   $0x1,-0xce0(%rbp)
  404817:	f3 0f 10 8d 60 f3 ff 	movss  -0xca0(%rbp),%xmm1
  40481e:	ff 
  40481f:	8b 85 20 f3 ff ff    	mov    -0xce0(%rbp),%eax
  404825:	48 98                	cltq   
  404827:	48 c1 e0 04          	shl    $0x4,%rax
  40482b:	48 01 e8             	add    %rbp,%rax
  40482e:	48 2d 90 0c 00 00    	sub    $0xc90,%rax
  404834:	f3 0f 10 00          	movss  (%rax),%xmm0
  404838:	f3 0f 58 c1          	addss  %xmm1,%xmm0
  40483c:	f3 0f 11 85 60 f3 ff 	movss  %xmm0,-0xca0(%rbp)
  404843:	ff 
  404844:	f3 0f 10 8d 64 f3 ff 	movss  -0xc9c(%rbp),%xmm1
  40484b:	ff 
  40484c:	8b 85 20 f3 ff ff    	mov    -0xce0(%rbp),%eax
  404852:	48 98                	cltq   
  404854:	48 c1 e0 04          	shl    $0x4,%rax
  404858:	48 01 e8             	add    %rbp,%rax
  40485b:	48 2d 8c 0c 00 00    	sub    $0xc8c,%rax
  404861:	f3 0f 10 00          	movss  (%rax),%xmm0
  404865:	f3 0f 58 c1          	addss  %xmm1,%xmm0
  404869:	f3 0f 11 85 64 f3 ff 	movss  %xmm0,-0xc9c(%rbp)
  404870:	ff 
  404871:	f3 0f 10 8d 68 f3 ff 	movss  -0xc98(%rbp),%xmm1
  404878:	ff 
  404879:	8b 85 20 f3 ff ff    	mov    -0xce0(%rbp),%eax
  40487f:	48 98                	cltq   
  404881:	48 c1 e0 04          	shl    $0x4,%rax
  404885:	48 01 e8             	add    %rbp,%rax
  404888:	48 2d 88 0c 00 00    	sub    $0xc88,%rax
  40488e:	f3 0f 10 00          	movss  (%rax),%xmm0
  404892:	f3 0f 58 c1          	addss  %xmm1,%xmm0
  404896:	f3 0f 11 85 68 f3 ff 	movss  %xmm0,-0xc98(%rbp)
  40489d:	ff 
  40489e:	f3 0f 10 8d 6c f3 ff 	movss  -0xc94(%rbp),%xmm1
  4048a5:	ff 
  4048a6:	8b 85 20 f3 ff ff    	mov    -0xce0(%rbp),%eax
  4048ac:	48 98                	cltq   
  4048ae:	48 c1 e0 04          	shl    $0x4,%rax
  4048b2:	48 01 e8             	add    %rbp,%rax
  4048b5:	48 2d 84 0c 00 00    	sub    $0xc84,%rax
  4048bb:	f3 0f 10 00          	movss  (%rax),%xmm0
  4048bf:	f3 0f 58 c1          	addss  %xmm1,%xmm0
  4048c3:	f3 0f 11 85 6c f3 ff 	movss  %xmm0,-0xc94(%rbp)
  4048ca:	ff 
  4048cb:	83 85 20 f3 ff ff 01 	addl   $0x1,-0xce0(%rbp)
  4048d2:	f3 0f 10 8d 60 f3 ff 	movss  -0xca0(%rbp),%xmm1
  4048d9:	ff 
  4048da:	8b 85 20 f3 ff ff    	mov    -0xce0(%rbp),%eax
  4048e0:	48 98                	cltq   
  4048e2:	48 c1 e0 04          	shl    $0x4,%rax
  4048e6:	48 01 e8             	add    %rbp,%rax
  4048e9:	48 2d 90 0c 00 00    	sub    $0xc90,%rax
  4048ef:	f3 0f 10 00          	movss  (%rax),%xmm0
  4048f3:	f3 0f 58 c1          	addss  %xmm1,%xmm0
  4048f7:	f3 0f 11 85 60 f3 ff 	movss  %xmm0,-0xca0(%rbp)
  4048fe:	ff 
  4048ff:	f3 0f 10 8d 64 f3 ff 	movss  -0xc9c(%rbp),%xmm1
  404906:	ff 
  404907:	8b 85 20 f3 ff ff    	mov    -0xce0(%rbp),%eax
  40490d:	48 98                	cltq   
  40490f:	48 c1 e0 04          	shl    $0x4,%rax
  404913:	48 01 e8             	add    %rbp,%rax
  404916:	48 2d 8c 0c 00 00    	sub    $0xc8c,%rax
  40491c:	f3 0f 10 00          	movss  (%rax),%xmm0
  404920:	f3 0f 58 c1          	addss  %xmm1,%xmm0
  404924:	f3 0f 11 85 64 f3 ff 	movss  %xmm0,-0xc9c(%rbp)
  40492b:	ff 
  40492c:	f3 0f 10 8d 68 f3 ff 	movss  -0xc98(%rbp),%xmm1
  404933:	ff 
  404934:	8b 85 20 f3 ff ff    	mov    -0xce0(%rbp),%eax
  40493a:	48 98                	cltq   
  40493c:	48 c1 e0 04          	shl    $0x4,%rax
  404940:	48 01 e8             	add    %rbp,%rax
  404943:	48 2d 88 0c 00 00    	sub    $0xc88,%rax
  404949:	f3 0f 10 00          	movss  (%rax),%xmm0
  40494d:	f3 0f 58 c1          	addss  %xmm1,%xmm0
  404951:	f3 0f 11 85 68 f3 ff 	movss  %xmm0,-0xc98(%rbp)
  404958:	ff 
  404959:	f3 0f 10 8d 6c f3 ff 	movss  -0xc94(%rbp),%xmm1
  404960:	ff 
  404961:	8b 85 20 f3 ff ff    	mov    -0xce0(%rbp),%eax
  404967:	48 98                	cltq   
  404969:	48 c1 e0 04          	shl    $0x4,%rax
  40496d:	48 01 e8             	add    %rbp,%rax
  404970:	48 2d 84 0c 00 00    	sub    $0xc84,%rax
  404976:	f3 0f 10 00          	movss  (%rax),%xmm0
  40497a:	f3 0f 58 c1          	addss  %xmm1,%xmm0
  40497e:	f3 0f 11 85 6c f3 ff 	movss  %xmm0,-0xc94(%rbp)
  404985:	ff 
  404986:	83 85 20 f3 ff ff 01 	addl   $0x1,-0xce0(%rbp)
  40498d:	f3 0f 10 8d 60 f3 ff 	movss  -0xca0(%rbp),%xmm1
  404994:	ff 
  404995:	8b 85 20 f3 ff ff    	mov    -0xce0(%rbp),%eax
  40499b:	48 98                	cltq   
  40499d:	48 c1 e0 04          	shl    $0x4,%rax
  4049a1:	48 01 e8             	add    %rbp,%rax
  4049a4:	48 2d 90 0c 00 00    	sub    $0xc90,%rax
  4049aa:	f3 0f 10 00          	movss  (%rax),%xmm0
  4049ae:	f3 0f 58 c1          	addss  %xmm1,%xmm0
  4049b2:	f3 0f 11 85 60 f3 ff 	movss  %xmm0,-0xca0(%rbp)
  4049b9:	ff 
  4049ba:	f3 0f 10 8d 64 f3 ff 	movss  -0xc9c(%rbp),%xmm1
  4049c1:	ff 
  4049c2:	8b 85 20 f3 ff ff    	mov    -0xce0(%rbp),%eax
  4049c8:	48 98                	cltq   
  4049ca:	48 c1 e0 04          	shl    $0x4,%rax
  4049ce:	48 01 e8             	add    %rbp,%rax
  4049d1:	48 2d 8c 0c 00 00    	sub    $0xc8c,%rax
  4049d7:	f3 0f 10 00          	movss  (%rax),%xmm0
  4049db:	f3 0f 58 c1          	addss  %xmm1,%xmm0
  4049df:	f3 0f 11 85 64 f3 ff 	movss  %xmm0,-0xc9c(%rbp)
  4049e6:	ff 
  4049e7:	f3 0f 10 8d 68 f3 ff 	movss  -0xc98(%rbp),%xmm1
  4049ee:	ff 
  4049ef:	8b 85 20 f3 ff ff    	mov    -0xce0(%rbp),%eax
  4049f5:	48 98                	cltq   
  4049f7:	48 c1 e0 04          	shl    $0x4,%rax
  4049fb:	48 01 e8             	add    %rbp,%rax
  4049fe:	48 2d 88 0c 00 00    	sub    $0xc88,%rax
  404a04:	f3 0f 10 00          	movss  (%rax),%xmm0
  404a08:	f3 0f 58 c1          	addss  %xmm1,%xmm0
  404a0c:	f3 0f 11 85 68 f3 ff 	movss  %xmm0,-0xc98(%rbp)
  404a13:	ff 
  404a14:	f3 0f 10 8d 6c f3 ff 	movss  -0xc94(%rbp),%xmm1
  404a1b:	ff 
  404a1c:	8b 85 20 f3 ff ff    	mov    -0xce0(%rbp),%eax
  404a22:	48 98                	cltq   
  404a24:	48 c1 e0 04          	shl    $0x4,%rax
  404a28:	48 01 e8             	add    %rbp,%rax
  404a2b:	48 2d 84 0c 00 00    	sub    $0xc84,%rax
  404a31:	f3 0f 10 00          	movss  (%rax),%xmm0
  404a35:	f3 0f 58 c1          	addss  %xmm1,%xmm0
  404a39:	f3 0f 11 85 6c f3 ff 	movss  %xmm0,-0xc94(%rbp)
  404a40:	ff 
  404a41:	83 85 20 f3 ff ff 01 	addl   $0x1,-0xce0(%rbp)
  404a48:	f3 0f 10 85 1c f3 ff 	movss  -0xce4(%rbp),%xmm0
  404a4f:	ff 
  404a50:	f3 0f 59 85 1c f3 ff 	mulss  -0xce4(%rbp),%xmm0
  404a57:	ff 
  404a58:	f3 0f 11 85 1c f3 ff 	movss  %xmm0,-0xce4(%rbp)
  404a5f:	ff 
  404a60:	83 85 38 f3 ff ff 01 	addl   $0x1,-0xcc8(%rbp)
  404a67:	83 85 20 f3 ff ff 01 	addl   $0x1,-0xce0(%rbp)
  404a6e:	f3 0f 10 8d 60 f3 ff 	movss  -0xca0(%rbp),%xmm1
  404a75:	ff 
  404a76:	8b 85 20 f3 ff ff    	mov    -0xce0(%rbp),%eax
  404a7c:	48 98                	cltq   
  404a7e:	48 c1 e0 04          	shl    $0x4,%rax
  404a82:	48 01 e8             	add    %rbp,%rax
  404a85:	48 2d 90 0c 00 00    	sub    $0xc90,%rax
  404a8b:	f3 0f 10 00          	movss  (%rax),%xmm0
  404a8f:	f3 0f 58 c1          	addss  %xmm1,%xmm0
  404a93:	f3 0f 11 85 60 f3 ff 	movss  %xmm0,-0xca0(%rbp)
  404a9a:	ff 
  404a9b:	f3 0f 10 8d 64 f3 ff 	movss  -0xc9c(%rbp),%xmm1
  404aa2:	ff 
  404aa3:	8b 85 20 f3 ff ff    	mov    -0xce0(%rbp),%eax
  404aa9:	48 98                	cltq   
  404aab:	48 c1 e0 04          	shl    $0x4,%rax
  404aaf:	48 01 e8             	add    %rbp,%rax
  404ab2:	48 2d 8c 0c 00 00    	sub    $0xc8c,%rax
  404ab8:	f3 0f 10 00          	movss  (%rax),%xmm0
  404abc:	f3 0f 58 c1          	addss  %xmm1,%xmm0
  404ac0:	f3 0f 11 85 64 f3 ff 	movss  %xmm0,-0xc9c(%rbp)
  404ac7:	ff 
  404ac8:	f3 0f 10 8d 68 f3 ff 	movss  -0xc98(%rbp),%xmm1
  404acf:	ff 
  404ad0:	8b 85 20 f3 ff ff    	mov    -0xce0(%rbp),%eax
  404ad6:	48 98                	cltq   
  404ad8:	48 c1 e0 04          	shl    $0x4,%rax
  404adc:	48 01 e8             	add    %rbp,%rax
  404adf:	48 2d 88 0c 00 00    	sub    $0xc88,%rax
  404ae5:	f3 0f 10 00          	movss  (%rax),%xmm0
  404ae9:	f3 0f 58 c1          	addss  %xmm1,%xmm0
  404aed:	f3 0f 11 85 68 f3 ff 	movss  %xmm0,-0xc98(%rbp)
  404af4:	ff 
  404af5:	f3 0f 10 8d 6c f3 ff 	movss  -0xc94(%rbp),%xmm1
  404afc:	ff 
  404afd:	8b 85 20 f3 ff ff    	mov    -0xce0(%rbp),%eax
  404b03:	48 98                	cltq   
  404b05:	48 c1 e0 04          	shl    $0x4,%rax
  404b09:	48 01 e8             	add    %rbp,%rax
  404b0c:	48 2d 84 0c 00 00    	sub    $0xc84,%rax
  404b12:	f3 0f 10 00          	movss  (%rax),%xmm0
  404b16:	f3 0f 58 c1          	addss  %xmm1,%xmm0
  404b1a:	f3 0f 11 85 6c f3 ff 	movss  %xmm0,-0xc94(%rbp)
  404b21:	ff 
  404b22:	83 85 20 f3 ff ff 01 	addl   $0x1,-0xce0(%rbp)
  404b29:	f3 0f 10 8d 60 f3 ff 	movss  -0xca0(%rbp),%xmm1
  404b30:	ff 
  404b31:	8b 85 20 f3 ff ff    	mov    -0xce0(%rbp),%eax
  404b37:	48 98                	cltq   
  404b39:	48 c1 e0 04          	shl    $0x4,%rax
  404b3d:	48 01 e8             	add    %rbp,%rax
  404b40:	48 2d 90 0c 00 00    	sub    $0xc90,%rax
  404b46:	f3 0f 10 00          	movss  (%rax),%xmm0
  404b4a:	f3 0f 58 c1          	addss  %xmm1,%xmm0
  404b4e:	f3 0f 11 85 60 f3 ff 	movss  %xmm0,-0xca0(%rbp)
  404b55:	ff 
  404b56:	f3 0f 10 8d 64 f3 ff 	movss  -0xc9c(%rbp),%xmm1
  404b5d:	ff 
  404b5e:	8b 85 20 f3 ff ff    	mov    -0xce0(%rbp),%eax
  404b64:	48 98                	cltq   
  404b66:	48 c1 e0 04          	shl    $0x4,%rax
  404b6a:	48 01 e8             	add    %rbp,%rax
  404b6d:	48 2d 8c 0c 00 00    	sub    $0xc8c,%rax
  404b73:	f3 0f 10 00          	movss  (%rax),%xmm0
  404b77:	f3 0f 58 c1          	addss  %xmm1,%xmm0
  404b7b:	f3 0f 11 85 64 f3 ff 	movss  %xmm0,-0xc9c(%rbp)
  404b82:	ff 
  404b83:	f3 0f 10 8d 68 f3 ff 	movss  -0xc98(%rbp),%xmm1
  404b8a:	ff 
  404b8b:	8b 85 20 f3 ff ff    	mov    -0xce0(%rbp),%eax
  404b91:	48 98                	cltq   
  404b93:	48 c1 e0 04          	shl    $0x4,%rax
  404b97:	48 01 e8             	add    %rbp,%rax
  404b9a:	48 2d 88 0c 00 00    	sub    $0xc88,%rax
  404ba0:	f3 0f 10 00          	movss  (%rax),%xmm0
  404ba4:	f3 0f 58 c1          	addss  %xmm1,%xmm0
  404ba8:	f3 0f 11 85 68 f3 ff 	movss  %xmm0,-0xc98(%rbp)
  404baf:	ff 
  404bb0:	f3 0f 10 8d 6c f3 ff 	movss  -0xc94(%rbp),%xmm1
  404bb7:	ff 
  404bb8:	8b 85 20 f3 ff ff    	mov    -0xce0(%rbp),%eax
  404bbe:	48 98                	cltq   
  404bc0:	48 c1 e0 04          	shl    $0x4,%rax
  404bc4:	48 01 e8             	add    %rbp,%rax
  404bc7:	48 2d 84 0c 00 00    	sub    $0xc84,%rax
  404bcd:	f3 0f 10 00          	movss  (%rax),%xmm0
  404bd1:	f3 0f 58 c1          	addss  %xmm1,%xmm0
  404bd5:	f3 0f 11 85 6c f3 ff 	movss  %xmm0,-0xc94(%rbp)
  404bdc:	ff 
  404bdd:	83 85 20 f3 ff ff 01 	addl   $0x1,-0xce0(%rbp)
  404be4:	f3 0f 10 8d 60 f3 ff 	movss  -0xca0(%rbp),%xmm1
  404beb:	ff 
  404bec:	8b 85 20 f3 ff ff    	mov    -0xce0(%rbp),%eax
  404bf2:	48 98                	cltq   
  404bf4:	48 c1 e0 04          	shl    $0x4,%rax
  404bf8:	48 01 e8             	add    %rbp,%rax
  404bfb:	48 2d 90 0c 00 00    	sub    $0xc90,%rax
  404c01:	f3 0f 10 00          	movss  (%rax),%xmm0
  404c05:	f3 0f 58 c1          	addss  %xmm1,%xmm0
  404c09:	f3 0f 11 85 60 f3 ff 	movss  %xmm0,-0xca0(%rbp)
  404c10:	ff 
  404c11:	f3 0f 10 8d 64 f3 ff 	movss  -0xc9c(%rbp),%xmm1
  404c18:	ff 
  404c19:	8b 85 20 f3 ff ff    	mov    -0xce0(%rbp),%eax
  404c1f:	48 98                	cltq   
  404c21:	48 c1 e0 04          	shl    $0x4,%rax
  404c25:	48 01 e8             	add    %rbp,%rax
  404c28:	48 2d 8c 0c 00 00    	sub    $0xc8c,%rax
  404c2e:	f3 0f 10 00          	movss  (%rax),%xmm0
  404c32:	f3 0f 58 c1          	addss  %xmm1,%xmm0
  404c36:	f3 0f 11 85 64 f3 ff 	movss  %xmm0,-0xc9c(%rbp)
  404c3d:	ff 
  404c3e:	f3 0f 10 8d 68 f3 ff 	movss  -0xc98(%rbp),%xmm1
  404c45:	ff 
  404c46:	8b 85 20 f3 ff ff    	mov    -0xce0(%rbp),%eax
  404c4c:	48 98                	cltq   
  404c4e:	48 c1 e0 04          	shl    $0x4,%rax
  404c52:	48 01 e8             	add    %rbp,%rax
  404c55:	48 2d 88 0c 00 00    	sub    $0xc88,%rax
  404c5b:	f3 0f 10 00          	movss  (%rax),%xmm0
  404c5f:	f3 0f 58 c1          	addss  %xmm1,%xmm0
  404c63:	f3 0f 11 85 68 f3 ff 	movss  %xmm0,-0xc98(%rbp)
  404c6a:	ff 
  404c6b:	f3 0f 10 8d 6c f3 ff 	movss  -0xc94(%rbp),%xmm1
  404c72:	ff 
  404c73:	8b 85 20 f3 ff ff    	mov    -0xce0(%rbp),%eax
  404c79:	48 98                	cltq   
  404c7b:	48 c1 e0 04          	shl    $0x4,%rax
  404c7f:	48 01 e8             	add    %rbp,%rax
  404c82:	48 2d 84 0c 00 00    	sub    $0xc84,%rax
  404c88:	f3 0f 10 00          	movss  (%rax),%xmm0
  404c8c:	f3 0f 58 c1          	addss  %xmm1,%xmm0
  404c90:	f3 0f 11 85 6c f3 ff 	movss  %xmm0,-0xc94(%rbp)
  404c97:	ff 
  404c98:	83 85 20 f3 ff ff 01 	addl   $0x1,-0xce0(%rbp)
  404c9f:	f3 0f 10 8d 60 f3 ff 	movss  -0xca0(%rbp),%xmm1
  404ca6:	ff 
  404ca7:	8b 85 20 f3 ff ff    	mov    -0xce0(%rbp),%eax
  404cad:	48 98                	cltq   
  404caf:	48 c1 e0 04          	shl    $0x4,%rax
  404cb3:	48 01 e8             	add    %rbp,%rax
  404cb6:	48 2d 90 0c 00 00    	sub    $0xc90,%rax
  404cbc:	f3 0f 10 00          	movss  (%rax),%xmm0
  404cc0:	f3 0f 58 c1          	addss  %xmm1,%xmm0
  404cc4:	f3 0f 11 85 60 f3 ff 	movss  %xmm0,-0xca0(%rbp)
  404ccb:	ff 
  404ccc:	f3 0f 10 8d 64 f3 ff 	movss  -0xc9c(%rbp),%xmm1
  404cd3:	ff 
  404cd4:	8b 85 20 f3 ff ff    	mov    -0xce0(%rbp),%eax
  404cda:	48 98                	cltq   
  404cdc:	48 c1 e0 04          	shl    $0x4,%rax
  404ce0:	48 01 e8             	add    %rbp,%rax
  404ce3:	48 2d 8c 0c 00 00    	sub    $0xc8c,%rax
  404ce9:	f3 0f 10 00          	movss  (%rax),%xmm0
  404ced:	f3 0f 58 c1          	addss  %xmm1,%xmm0
  404cf1:	f3 0f 11 85 64 f3 ff 	movss  %xmm0,-0xc9c(%rbp)
  404cf8:	ff 
  404cf9:	f3 0f 10 8d 68 f3 ff 	movss  -0xc98(%rbp),%xmm1
  404d00:	ff 
  404d01:	8b 85 20 f3 ff ff    	mov    -0xce0(%rbp),%eax
  404d07:	48 98                	cltq   
  404d09:	48 c1 e0 04          	shl    $0x4,%rax
  404d0d:	48 01 e8             	add    %rbp,%rax
  404d10:	48 2d 88 0c 00 00    	sub    $0xc88,%rax
  404d16:	f3 0f 10 00          	movss  (%rax),%xmm0
  404d1a:	f3 0f 58 c1          	addss  %xmm1,%xmm0
  404d1e:	f3 0f 11 85 68 f3 ff 	movss  %xmm0,-0xc98(%rbp)
  404d25:	ff 
  404d26:	f3 0f 10 8d 6c f3 ff 	movss  -0xc94(%rbp),%xmm1
  404d2d:	ff 
  404d2e:	8b 85 20 f3 ff ff    	mov    -0xce0(%rbp),%eax
  404d34:	48 98                	cltq   
  404d36:	48 c1 e0 04          	shl    $0x4,%rax
  404d3a:	48 01 e8             	add    %rbp,%rax
  404d3d:	48 2d 84 0c 00 00    	sub    $0xc84,%rax
  404d43:	f3 0f 10 00          	movss  (%rax),%xmm0
  404d47:	f3 0f 58 c1          	addss  %xmm1,%xmm0
  404d4b:	f3 0f 11 85 6c f3 ff 	movss  %xmm0,-0xc94(%rbp)
  404d52:	ff 
  404d53:	83 85 20 f3 ff ff 01 	addl   $0x1,-0xce0(%rbp)
  404d5a:	f3 0f 10 8d 60 f3 ff 	movss  -0xca0(%rbp),%xmm1
  404d61:	ff 
  404d62:	8b 85 20 f3 ff ff    	mov    -0xce0(%rbp),%eax
  404d68:	48 98                	cltq   
  404d6a:	48 c1 e0 04          	shl    $0x4,%rax
  404d6e:	48 01 e8             	add    %rbp,%rax
  404d71:	48 2d 90 0c 00 00    	sub    $0xc90,%rax
  404d77:	f3 0f 10 00          	movss  (%rax),%xmm0
  404d7b:	f3 0f 58 c1          	addss  %xmm1,%xmm0
  404d7f:	f3 0f 11 85 60 f3 ff 	movss  %xmm0,-0xca0(%rbp)
  404d86:	ff 
  404d87:	f3 0f 10 8d 64 f3 ff 	movss  -0xc9c(%rbp),%xmm1
  404d8e:	ff 
  404d8f:	8b 85 20 f3 ff ff    	mov    -0xce0(%rbp),%eax
  404d95:	48 98                	cltq   
  404d97:	48 c1 e0 04          	shl    $0x4,%rax
  404d9b:	48 01 e8             	add    %rbp,%rax
  404d9e:	48 2d 8c 0c 00 00    	sub    $0xc8c,%rax
  404da4:	f3 0f 10 00          	movss  (%rax),%xmm0
  404da8:	f3 0f 58 c1          	addss  %xmm1,%xmm0
  404dac:	f3 0f 11 85 64 f3 ff 	movss  %xmm0,-0xc9c(%rbp)
  404db3:	ff 
  404db4:	f3 0f 10 8d 68 f3 ff 	movss  -0xc98(%rbp),%xmm1
  404dbb:	ff 
  404dbc:	8b 85 20 f3 ff ff    	mov    -0xce0(%rbp),%eax
  404dc2:	48 98                	cltq   
  404dc4:	48 c1 e0 04          	shl    $0x4,%rax
  404dc8:	48 01 e8             	add    %rbp,%rax
  404dcb:	48 2d 88 0c 00 00    	sub    $0xc88,%rax
  404dd1:	f3 0f 10 00          	movss  (%rax),%xmm0
  404dd5:	f3 0f 58 c1          	addss  %xmm1,%xmm0
  404dd9:	f3 0f 11 85 68 f3 ff 	movss  %xmm0,-0xc98(%rbp)
  404de0:	ff 
  404de1:	f3 0f 10 8d 6c f3 ff 	movss  -0xc94(%rbp),%xmm1
  404de8:	ff 
  404de9:	8b 85 20 f3 ff ff    	mov    -0xce0(%rbp),%eax
  404def:	48 98                	cltq   
  404df1:	48 c1 e0 04          	shl    $0x4,%rax
  404df5:	48 01 e8             	add    %rbp,%rax
  404df8:	48 2d 84 0c 00 00    	sub    $0xc84,%rax
  404dfe:	f3 0f 10 00          	movss  (%rax),%xmm0
  404e02:	f3 0f 58 c1          	addss  %xmm1,%xmm0
  404e06:	f3 0f 11 85 6c f3 ff 	movss  %xmm0,-0xc94(%rbp)
  404e0d:	ff 
  404e0e:	83 85 20 f3 ff ff 01 	addl   $0x1,-0xce0(%rbp)
  404e15:	f3 0f 10 8d 60 f3 ff 	movss  -0xca0(%rbp),%xmm1
  404e1c:	ff 
  404e1d:	8b 85 20 f3 ff ff    	mov    -0xce0(%rbp),%eax
  404e23:	48 98                	cltq   
  404e25:	48 c1 e0 04          	shl    $0x4,%rax
  404e29:	48 01 e8             	add    %rbp,%rax
  404e2c:	48 2d 90 0c 00 00    	sub    $0xc90,%rax
  404e32:	f3 0f 10 00          	movss  (%rax),%xmm0
  404e36:	f3 0f 58 c1          	addss  %xmm1,%xmm0
  404e3a:	f3 0f 11 85 60 f3 ff 	movss  %xmm0,-0xca0(%rbp)
  404e41:	ff 
  404e42:	f3 0f 10 8d 64 f3 ff 	movss  -0xc9c(%rbp),%xmm1
  404e49:	ff 
  404e4a:	8b 85 20 f3 ff ff    	mov    -0xce0(%rbp),%eax
  404e50:	48 98                	cltq   
  404e52:	48 c1 e0 04          	shl    $0x4,%rax
  404e56:	48 01 e8             	add    %rbp,%rax
  404e59:	48 2d 8c 0c 00 00    	sub    $0xc8c,%rax
  404e5f:	f3 0f 10 00          	movss  (%rax),%xmm0
  404e63:	f3 0f 58 c1          	addss  %xmm1,%xmm0
  404e67:	f3 0f 11 85 64 f3 ff 	movss  %xmm0,-0xc9c(%rbp)
  404e6e:	ff 
  404e6f:	f3 0f 10 8d 68 f3 ff 	movss  -0xc98(%rbp),%xmm1
  404e76:	ff 
  404e77:	8b 85 20 f3 ff ff    	mov    -0xce0(%rbp),%eax
  404e7d:	48 98                	cltq   
  404e7f:	48 c1 e0 04          	shl    $0x4,%rax
  404e83:	48 01 e8             	add    %rbp,%rax
  404e86:	48 2d 88 0c 00 00    	sub    $0xc88,%rax
  404e8c:	f3 0f 10 00          	movss  (%rax),%xmm0
  404e90:	f3 0f 58 c1          	addss  %xmm1,%xmm0
  404e94:	f3 0f 11 85 68 f3 ff 	movss  %xmm0,-0xc98(%rbp)
  404e9b:	ff 
  404e9c:	f3 0f 10 8d 6c f3 ff 	movss  -0xc94(%rbp),%xmm1
  404ea3:	ff 
  404ea4:	8b 85 20 f3 ff ff    	mov    -0xce0(%rbp),%eax
  404eaa:	48 98                	cltq   
  404eac:	48 c1 e0 04          	shl    $0x4,%rax
  404eb0:	48 01 e8             	add    %rbp,%rax
  404eb3:	48 2d 84 0c 00 00    	sub    $0xc84,%rax
  404eb9:	f3 0f 10 00          	movss  (%rax),%xmm0
  404ebd:	f3 0f 58 c1          	addss  %xmm1,%xmm0
  404ec1:	f3 0f 11 85 6c f3 ff 	movss  %xmm0,-0xc94(%rbp)
  404ec8:	ff 
  404ec9:	83 85 20 f3 ff ff 01 	addl   $0x1,-0xce0(%rbp)
  404ed0:	f3 0f 10 8d 60 f3 ff 	movss  -0xca0(%rbp),%xmm1
  404ed7:	ff 
  404ed8:	8b 85 20 f3 ff ff    	mov    -0xce0(%rbp),%eax
  404ede:	48 98                	cltq   
  404ee0:	48 c1 e0 04          	shl    $0x4,%rax
  404ee4:	48 01 e8             	add    %rbp,%rax
  404ee7:	48 2d 90 0c 00 00    	sub    $0xc90,%rax
  404eed:	f3 0f 10 00          	movss  (%rax),%xmm0
  404ef1:	f3 0f 58 c1          	addss  %xmm1,%xmm0
  404ef5:	f3 0f 11 85 60 f3 ff 	movss  %xmm0,-0xca0(%rbp)
  404efc:	ff 
  404efd:	f3 0f 10 8d 64 f3 ff 	movss  -0xc9c(%rbp),%xmm1
  404f04:	ff 
  404f05:	8b 85 20 f3 ff ff    	mov    -0xce0(%rbp),%eax
  404f0b:	48 98                	cltq   
  404f0d:	48 c1 e0 04          	shl    $0x4,%rax
  404f11:	48 01 e8             	add    %rbp,%rax
  404f14:	48 2d 8c 0c 00 00    	sub    $0xc8c,%rax
  404f1a:	f3 0f 10 00          	movss  (%rax),%xmm0
  404f1e:	f3 0f 58 c1          	addss  %xmm1,%xmm0
  404f22:	f3 0f 11 85 64 f3 ff 	movss  %xmm0,-0xc9c(%rbp)
  404f29:	ff 
  404f2a:	f3 0f 10 8d 68 f3 ff 	movss  -0xc98(%rbp),%xmm1
  404f31:	ff 
  404f32:	8b 85 20 f3 ff ff    	mov    -0xce0(%rbp),%eax
  404f38:	48 98                	cltq   
  404f3a:	48 c1 e0 04          	shl    $0x4,%rax
  404f3e:	48 01 e8             	add    %rbp,%rax
  404f41:	48 2d 88 0c 00 00    	sub    $0xc88,%rax
  404f47:	f3 0f 10 00          	movss  (%rax),%xmm0
  404f4b:	f3 0f 58 c1          	addss  %xmm1,%xmm0
  404f4f:	f3 0f 11 85 68 f3 ff 	movss  %xmm0,-0xc98(%rbp)
  404f56:	ff 
  404f57:	f3 0f 10 8d 6c f3 ff 	movss  -0xc94(%rbp),%xmm1
  404f5e:	ff 
  404f5f:	8b 85 20 f3 ff ff    	mov    -0xce0(%rbp),%eax
  404f65:	48 98                	cltq   
  404f67:	48 c1 e0 04          	shl    $0x4,%rax
  404f6b:	48 01 e8             	add    %rbp,%rax
  404f6e:	48 2d 84 0c 00 00    	sub    $0xc84,%rax
  404f74:	f3 0f 10 00          	movss  (%rax),%xmm0
  404f78:	f3 0f 58 c1          	addss  %xmm1,%xmm0
  404f7c:	f3 0f 11 85 6c f3 ff 	movss  %xmm0,-0xc94(%rbp)
  404f83:	ff 
  404f84:	83 85 20 f3 ff ff 01 	addl   $0x1,-0xce0(%rbp)
  404f8b:	f3 0f 10 8d 60 f3 ff 	movss  -0xca0(%rbp),%xmm1
  404f92:	ff 
  404f93:	8b 85 20 f3 ff ff    	mov    -0xce0(%rbp),%eax
  404f99:	48 98                	cltq   
  404f9b:	48 c1 e0 04          	shl    $0x4,%rax
  404f9f:	48 01 e8             	add    %rbp,%rax
  404fa2:	48 2d 90 0c 00 00    	sub    $0xc90,%rax
  404fa8:	f3 0f 10 00          	movss  (%rax),%xmm0
  404fac:	f3 0f 58 c1          	addss  %xmm1,%xmm0
  404fb0:	f3 0f 11 85 60 f3 ff 	movss  %xmm0,-0xca0(%rbp)
  404fb7:	ff 
  404fb8:	f3 0f 10 8d 64 f3 ff 	movss  -0xc9c(%rbp),%xmm1
  404fbf:	ff 
  404fc0:	8b 85 20 f3 ff ff    	mov    -0xce0(%rbp),%eax
  404fc6:	48 98                	cltq   
  404fc8:	48 c1 e0 04          	shl    $0x4,%rax
  404fcc:	48 01 e8             	add    %rbp,%rax
  404fcf:	48 2d 8c 0c 00 00    	sub    $0xc8c,%rax
  404fd5:	f3 0f 10 00          	movss  (%rax),%xmm0
  404fd9:	f3 0f 58 c1          	addss  %xmm1,%xmm0
  404fdd:	f3 0f 11 85 64 f3 ff 	movss  %xmm0,-0xc9c(%rbp)
  404fe4:	ff 
  404fe5:	f3 0f 10 8d 68 f3 ff 	movss  -0xc98(%rbp),%xmm1
  404fec:	ff 
  404fed:	8b 85 20 f3 ff ff    	mov    -0xce0(%rbp),%eax
  404ff3:	48 98                	cltq   
  404ff5:	48 c1 e0 04          	shl    $0x4,%rax
  404ff9:	48 01 e8             	add    %rbp,%rax
  404ffc:	48 2d 88 0c 00 00    	sub    $0xc88,%rax
  405002:	f3 0f 10 00          	movss  (%rax),%xmm0
  405006:	f3 0f 58 c1          	addss  %xmm1,%xmm0
  40500a:	f3 0f 11 85 68 f3 ff 	movss  %xmm0,-0xc98(%rbp)
  405011:	ff 
  405012:	f3 0f 10 8d 6c f3 ff 	movss  -0xc94(%rbp),%xmm1
  405019:	ff 
  40501a:	8b 85 20 f3 ff ff    	mov    -0xce0(%rbp),%eax
  405020:	48 98                	cltq   
  405022:	48 c1 e0 04          	shl    $0x4,%rax
  405026:	48 01 e8             	add    %rbp,%rax
  405029:	48 2d 84 0c 00 00    	sub    $0xc84,%rax
  40502f:	f3 0f 10 00          	movss  (%rax),%xmm0
  405033:	f3 0f 58 c1          	addss  %xmm1,%xmm0
  405037:	f3 0f 11 85 6c f3 ff 	movss  %xmm0,-0xc94(%rbp)
  40503e:	ff 
  40503f:	83 85 20 f3 ff ff 01 	addl   $0x1,-0xce0(%rbp)
  405046:	f3 0f 10 8d 60 f3 ff 	movss  -0xca0(%rbp),%xmm1
  40504d:	ff 
  40504e:	8b 85 20 f3 ff ff    	mov    -0xce0(%rbp),%eax
  405054:	48 98                	cltq   
  405056:	48 c1 e0 04          	shl    $0x4,%rax
  40505a:	48 01 e8             	add    %rbp,%rax
  40505d:	48 2d 90 0c 00 00    	sub    $0xc90,%rax
  405063:	f3 0f 10 00          	movss  (%rax),%xmm0
  405067:	f3 0f 58 c1          	addss  %xmm1,%xmm0
  40506b:	f3 0f 11 85 60 f3 ff 	movss  %xmm0,-0xca0(%rbp)
  405072:	ff 
  405073:	f3 0f 10 8d 64 f3 ff 	movss  -0xc9c(%rbp),%xmm1
  40507a:	ff 
  40507b:	8b 85 20 f3 ff ff    	mov    -0xce0(%rbp),%eax
  405081:	48 98                	cltq   
  405083:	48 c1 e0 04          	shl    $0x4,%rax
  405087:	48 01 e8             	add    %rbp,%rax
  40508a:	48 2d 8c 0c 00 00    	sub    $0xc8c,%rax
  405090:	f3 0f 10 00          	movss  (%rax),%xmm0
  405094:	f3 0f 58 c1          	addss  %xmm1,%xmm0
  405098:	f3 0f 11 85 64 f3 ff 	movss  %xmm0,-0xc9c(%rbp)
  40509f:	ff 
  4050a0:	f3 0f 10 8d 68 f3 ff 	movss  -0xc98(%rbp),%xmm1
  4050a7:	ff 
  4050a8:	8b 85 20 f3 ff ff    	mov    -0xce0(%rbp),%eax
  4050ae:	48 98                	cltq   
  4050b0:	48 c1 e0 04          	shl    $0x4,%rax
  4050b4:	48 01 e8             	add    %rbp,%rax
  4050b7:	48 2d 88 0c 00 00    	sub    $0xc88,%rax
  4050bd:	f3 0f 10 00          	movss  (%rax),%xmm0
  4050c1:	f3 0f 58 c1          	addss  %xmm1,%xmm0
  4050c5:	f3 0f 11 85 68 f3 ff 	movss  %xmm0,-0xc98(%rbp)
  4050cc:	ff 
  4050cd:	f3 0f 10 8d 6c f3 ff 	movss  -0xc94(%rbp),%xmm1
  4050d4:	ff 
  4050d5:	8b 85 20 f3 ff ff    	mov    -0xce0(%rbp),%eax
  4050db:	48 98                	cltq   
  4050dd:	48 c1 e0 04          	shl    $0x4,%rax
  4050e1:	48 01 e8             	add    %rbp,%rax
  4050e4:	48 2d 84 0c 00 00    	sub    $0xc84,%rax
  4050ea:	f3 0f 10 00          	movss  (%rax),%xmm0
  4050ee:	f3 0f 58 c1          	addss  %xmm1,%xmm0
  4050f2:	f3 0f 11 85 6c f3 ff 	movss  %xmm0,-0xc94(%rbp)
  4050f9:	ff 
  4050fa:	83 85 20 f3 ff ff 01 	addl   $0x1,-0xce0(%rbp)
  405101:	f3 0f 10 8d 60 f3 ff 	movss  -0xca0(%rbp),%xmm1
  405108:	ff 
  405109:	8b 85 20 f3 ff ff    	mov    -0xce0(%rbp),%eax
  40510f:	48 98                	cltq   
  405111:	48 c1 e0 04          	shl    $0x4,%rax
  405115:	48 01 e8             	add    %rbp,%rax
  405118:	48 2d 90 0c 00 00    	sub    $0xc90,%rax
  40511e:	f3 0f 10 00          	movss  (%rax),%xmm0
  405122:	f3 0f 58 c1          	addss  %xmm1,%xmm0
  405126:	f3 0f 11 85 60 f3 ff 	movss  %xmm0,-0xca0(%rbp)
  40512d:	ff 
  40512e:	f3 0f 10 8d 64 f3 ff 	movss  -0xc9c(%rbp),%xmm1
  405135:	ff 
  405136:	8b 85 20 f3 ff ff    	mov    -0xce0(%rbp),%eax
  40513c:	48 98                	cltq   
  40513e:	48 c1 e0 04          	shl    $0x4,%rax
  405142:	48 01 e8             	add    %rbp,%rax
  405145:	48 2d 8c 0c 00 00    	sub    $0xc8c,%rax
  40514b:	f3 0f 10 00          	movss  (%rax),%xmm0
  40514f:	f3 0f 58 c1          	addss  %xmm1,%xmm0
  405153:	f3 0f 11 85 64 f3 ff 	movss  %xmm0,-0xc9c(%rbp)
  40515a:	ff 
  40515b:	f3 0f 10 8d 68 f3 ff 	movss  -0xc98(%rbp),%xmm1
  405162:	ff 
  405163:	8b 85 20 f3 ff ff    	mov    -0xce0(%rbp),%eax
  405169:	48 98                	cltq   
  40516b:	48 c1 e0 04          	shl    $0x4,%rax
  40516f:	48 01 e8             	add    %rbp,%rax
  405172:	48 2d 88 0c 00 00    	sub    $0xc88,%rax
  405178:	f3 0f 10 00          	movss  (%rax),%xmm0
  40517c:	f3 0f 58 c1          	addss  %xmm1,%xmm0
  405180:	f3 0f 11 85 68 f3 ff 	movss  %xmm0,-0xc98(%rbp)
  405187:	ff 
  405188:	f3 0f 10 8d 6c f3 ff 	movss  -0xc94(%rbp),%xmm1
  40518f:	ff 
  405190:	8b 85 20 f3 ff ff    	mov    -0xce0(%rbp),%eax
  405196:	48 98                	cltq   
  405198:	48 c1 e0 04          	shl    $0x4,%rax
  40519c:	48 01 e8             	add    %rbp,%rax
  40519f:	48 2d 84 0c 00 00    	sub    $0xc84,%rax
  4051a5:	f3 0f 10 00          	movss  (%rax),%xmm0
  4051a9:	f3 0f 58 c1          	addss  %xmm1,%xmm0
  4051ad:	f3 0f 11 85 6c f3 ff 	movss  %xmm0,-0xc94(%rbp)
  4051b4:	ff 
  4051b5:	83 85 20 f3 ff ff 01 	addl   $0x1,-0xce0(%rbp)
  4051bc:	f3 0f 10 8d 60 f3 ff 	movss  -0xca0(%rbp),%xmm1
  4051c3:	ff 
  4051c4:	8b 85 20 f3 ff ff    	mov    -0xce0(%rbp),%eax
  4051ca:	48 98                	cltq   
  4051cc:	48 c1 e0 04          	shl    $0x4,%rax
  4051d0:	48 01 e8             	add    %rbp,%rax
  4051d3:	48 2d 90 0c 00 00    	sub    $0xc90,%rax
  4051d9:	f3 0f 10 00          	movss  (%rax),%xmm0
  4051dd:	f3 0f 58 c1          	addss  %xmm1,%xmm0
  4051e1:	f3 0f 11 85 60 f3 ff 	movss  %xmm0,-0xca0(%rbp)
  4051e8:	ff 
  4051e9:	f3 0f 10 8d 64 f3 ff 	movss  -0xc9c(%rbp),%xmm1
  4051f0:	ff 
  4051f1:	8b 85 20 f3 ff ff    	mov    -0xce0(%rbp),%eax
  4051f7:	48 98                	cltq   
  4051f9:	48 c1 e0 04          	shl    $0x4,%rax
  4051fd:	48 01 e8             	add    %rbp,%rax
  405200:	48 2d 8c 0c 00 00    	sub    $0xc8c,%rax
  405206:	f3 0f 10 00          	movss  (%rax),%xmm0
  40520a:	f3 0f 58 c1          	addss  %xmm1,%xmm0
  40520e:	f3 0f 11 85 64 f3 ff 	movss  %xmm0,-0xc9c(%rbp)
  405215:	ff 
  405216:	f3 0f 10 8d 68 f3 ff 	movss  -0xc98(%rbp),%xmm1
  40521d:	ff 
  40521e:	8b 85 20 f3 ff ff    	mov    -0xce0(%rbp),%eax
  405224:	48 98                	cltq   
  405226:	48 c1 e0 04          	shl    $0x4,%rax
  40522a:	48 01 e8             	add    %rbp,%rax
  40522d:	48 2d 88 0c 00 00    	sub    $0xc88,%rax
  405233:	f3 0f 10 00          	movss  (%rax),%xmm0
  405237:	f3 0f 58 c1          	addss  %xmm1,%xmm0
  40523b:	f3 0f 11 85 68 f3 ff 	movss  %xmm0,-0xc98(%rbp)
  405242:	ff 
  405243:	f3 0f 10 8d 6c f3 ff 	movss  -0xc94(%rbp),%xmm1
  40524a:	ff 
  40524b:	8b 85 20 f3 ff ff    	mov    -0xce0(%rbp),%eax
  405251:	48 98                	cltq   
  405253:	48 c1 e0 04          	shl    $0x4,%rax
  405257:	48 01 e8             	add    %rbp,%rax
  40525a:	48 2d 84 0c 00 00    	sub    $0xc84,%rax
  405260:	f3 0f 10 00          	movss  (%rax),%xmm0
  405264:	f3 0f 58 c1          	addss  %xmm1,%xmm0
  405268:	f3 0f 11 85 6c f3 ff 	movss  %xmm0,-0xc94(%rbp)
  40526f:	ff 
  405270:	83 85 20 f3 ff ff 01 	addl   $0x1,-0xce0(%rbp)
  405277:	c7 85 20 f3 ff ff 00 	movl   $0x0,-0xce0(%rbp)
  40527e:	00 00 00 
  405281:	c7 85 38 f3 ff ff 00 	movl   $0x0,-0xcc8(%rbp)
  405288:	00 00 00 
  40528b:	f3 0f 10 8d 60 f3 ff 	movss  -0xca0(%rbp),%xmm1
  405292:	ff 
  405293:	8b 85 20 f3 ff ff    	mov    -0xce0(%rbp),%eax
  405299:	48 98                	cltq   
  40529b:	48 c1 e0 04          	shl    $0x4,%rax
  40529f:	48 01 e8             	add    %rbp,%rax
  4052a2:	48 2d 90 0c 00 00    	sub    $0xc90,%rax
  4052a8:	f3 0f 10 00          	movss  (%rax),%xmm0
  4052ac:	f3 0f 58 c1          	addss  %xmm1,%xmm0
  4052b0:	f3 0f 11 85 60 f3 ff 	movss  %xmm0,-0xca0(%rbp)
  4052b7:	ff 
  4052b8:	f3 0f 10 8d 64 f3 ff 	movss  -0xc9c(%rbp),%xmm1
  4052bf:	ff 
  4052c0:	8b 85 20 f3 ff ff    	mov    -0xce0(%rbp),%eax
  4052c6:	48 98                	cltq   
  4052c8:	48 c1 e0 04          	shl    $0x4,%rax
  4052cc:	48 01 e8             	add    %rbp,%rax
  4052cf:	48 2d 8c 0c 00 00    	sub    $0xc8c,%rax
  4052d5:	f3 0f 10 00          	movss  (%rax),%xmm0
  4052d9:	f3 0f 58 c1          	addss  %xmm1,%xmm0
  4052dd:	f3 0f 11 85 64 f3 ff 	movss  %xmm0,-0xc9c(%rbp)
  4052e4:	ff 
  4052e5:	f3 0f 10 8d 68 f3 ff 	movss  -0xc98(%rbp),%xmm1
  4052ec:	ff 
  4052ed:	8b 85 20 f3 ff ff    	mov    -0xce0(%rbp),%eax
  4052f3:	48 98                	cltq   
  4052f5:	48 c1 e0 04          	shl    $0x4,%rax
  4052f9:	48 01 e8             	add    %rbp,%rax
  4052fc:	48 2d 88 0c 00 00    	sub    $0xc88,%rax
  405302:	f3 0f 10 00          	movss  (%rax),%xmm0
  405306:	f3 0f 58 c1          	addss  %xmm1,%xmm0
  40530a:	f3 0f 11 85 68 f3 ff 	movss  %xmm0,-0xc98(%rbp)
  405311:	ff 
  405312:	f3 0f 10 8d 6c f3 ff 	movss  -0xc94(%rbp),%xmm1
  405319:	ff 
  40531a:	8b 85 20 f3 ff ff    	mov    -0xce0(%rbp),%eax
  405320:	48 98                	cltq   
  405322:	48 c1 e0 04          	shl    $0x4,%rax
  405326:	48 01 e8             	add    %rbp,%rax
  405329:	48 2d 84 0c 00 00    	sub    $0xc84,%rax
  40532f:	f3 0f 10 00          	movss  (%rax),%xmm0
  405333:	f3 0f 58 c1          	addss  %xmm1,%xmm0
  405337:	f3 0f 11 85 6c f3 ff 	movss  %xmm0,-0xc94(%rbp)
  40533e:	ff 
  40533f:	83 85 20 f3 ff ff 01 	addl   $0x1,-0xce0(%rbp)
  405346:	f3 0f 10 8d 60 f3 ff 	movss  -0xca0(%rbp),%xmm1
  40534d:	ff 
  40534e:	8b 85 20 f3 ff ff    	mov    -0xce0(%rbp),%eax
  405354:	48 98                	cltq   
  405356:	48 c1 e0 04          	shl    $0x4,%rax
  40535a:	48 01 e8             	add    %rbp,%rax
  40535d:	48 2d 90 0c 00 00    	sub    $0xc90,%rax
  405363:	f3 0f 10 00          	movss  (%rax),%xmm0
  405367:	f3 0f 58 c1          	addss  %xmm1,%xmm0
  40536b:	f3 0f 11 85 60 f3 ff 	movss  %xmm0,-0xca0(%rbp)
  405372:	ff 
  405373:	f3 0f 10 8d 64 f3 ff 	movss  -0xc9c(%rbp),%xmm1
  40537a:	ff 
  40537b:	8b 85 20 f3 ff ff    	mov    -0xce0(%rbp),%eax
  405381:	48 98                	cltq   
  405383:	48 c1 e0 04          	shl    $0x4,%rax
  405387:	48 01 e8             	add    %rbp,%rax
  40538a:	48 2d 8c 0c 00 00    	sub    $0xc8c,%rax
  405390:	f3 0f 10 00          	movss  (%rax),%xmm0
  405394:	f3 0f 58 c1          	addss  %xmm1,%xmm0
  405398:	f3 0f 11 85 64 f3 ff 	movss  %xmm0,-0xc9c(%rbp)
  40539f:	ff 
  4053a0:	f3 0f 10 8d 68 f3 ff 	movss  -0xc98(%rbp),%xmm1
  4053a7:	ff 
  4053a8:	8b 85 20 f3 ff ff    	mov    -0xce0(%rbp),%eax
  4053ae:	48 98                	cltq   
  4053b0:	48 c1 e0 04          	shl    $0x4,%rax
  4053b4:	48 01 e8             	add    %rbp,%rax
  4053b7:	48 2d 88 0c 00 00    	sub    $0xc88,%rax
  4053bd:	f3 0f 10 00          	movss  (%rax),%xmm0
  4053c1:	f3 0f 58 c1          	addss  %xmm1,%xmm0
  4053c5:	f3 0f 11 85 68 f3 ff 	movss  %xmm0,-0xc98(%rbp)
  4053cc:	ff 
  4053cd:	f3 0f 10 8d 6c f3 ff 	movss  -0xc94(%rbp),%xmm1
  4053d4:	ff 
  4053d5:	8b 85 20 f3 ff ff    	mov    -0xce0(%rbp),%eax
  4053db:	48 98                	cltq   
  4053dd:	48 c1 e0 04          	shl    $0x4,%rax
  4053e1:	48 01 e8             	add    %rbp,%rax
  4053e4:	48 2d 84 0c 00 00    	sub    $0xc84,%rax
  4053ea:	f3 0f 10 00          	movss  (%rax),%xmm0
  4053ee:	f3 0f 58 c1          	addss  %xmm1,%xmm0
  4053f2:	f3 0f 11 85 6c f3 ff 	movss  %xmm0,-0xc94(%rbp)
  4053f9:	ff 
  4053fa:	83 85 20 f3 ff ff 01 	addl   $0x1,-0xce0(%rbp)
  405401:	f3 0f 10 8d 60 f3 ff 	movss  -0xca0(%rbp),%xmm1
  405408:	ff 
  405409:	8b 85 20 f3 ff ff    	mov    -0xce0(%rbp),%eax
  40540f:	48 98                	cltq   
  405411:	48 c1 e0 04          	shl    $0x4,%rax
  405415:	48 01 e8             	add    %rbp,%rax
  405418:	48 2d 90 0c 00 00    	sub    $0xc90,%rax
  40541e:	f3 0f 10 00          	movss  (%rax),%xmm0
  405422:	f3 0f 58 c1          	addss  %xmm1,%xmm0
  405426:	f3 0f 11 85 60 f3 ff 	movss  %xmm0,-0xca0(%rbp)
  40542d:	ff 
  40542e:	f3 0f 10 8d 64 f3 ff 	movss  -0xc9c(%rbp),%xmm1
  405435:	ff 
  405436:	8b 85 20 f3 ff ff    	mov    -0xce0(%rbp),%eax
  40543c:	48 98                	cltq   
  40543e:	48 c1 e0 04          	shl    $0x4,%rax
  405442:	48 01 e8             	add    %rbp,%rax
  405445:	48 2d 8c 0c 00 00    	sub    $0xc8c,%rax
  40544b:	f3 0f 10 00          	movss  (%rax),%xmm0
  40544f:	f3 0f 58 c1          	addss  %xmm1,%xmm0
  405453:	f3 0f 11 85 64 f3 ff 	movss  %xmm0,-0xc9c(%rbp)
  40545a:	ff 
  40545b:	f3 0f 10 8d 68 f3 ff 	movss  -0xc98(%rbp),%xmm1
  405462:	ff 
  405463:	8b 85 20 f3 ff ff    	mov    -0xce0(%rbp),%eax
  405469:	48 98                	cltq   
  40546b:	48 c1 e0 04          	shl    $0x4,%rax
  40546f:	48 01 e8             	add    %rbp,%rax
  405472:	48 2d 88 0c 00 00    	sub    $0xc88,%rax
  405478:	f3 0f 10 00          	movss  (%rax),%xmm0
  40547c:	f3 0f 58 c1          	addss  %xmm1,%xmm0
  405480:	f3 0f 11 85 68 f3 ff 	movss  %xmm0,-0xc98(%rbp)
  405487:	ff 
  405488:	f3 0f 10 8d 6c f3 ff 	movss  -0xc94(%rbp),%xmm1
  40548f:	ff 
  405490:	8b 85 20 f3 ff ff    	mov    -0xce0(%rbp),%eax
  405496:	48 98                	cltq   
  405498:	48 c1 e0 04          	shl    $0x4,%rax
  40549c:	48 01 e8             	add    %rbp,%rax
  40549f:	48 2d 84 0c 00 00    	sub    $0xc84,%rax
  4054a5:	f3 0f 10 00          	movss  (%rax),%xmm0
  4054a9:	f3 0f 58 c1          	addss  %xmm1,%xmm0
  4054ad:	f3 0f 11 85 6c f3 ff 	movss  %xmm0,-0xc94(%rbp)
  4054b4:	ff 
  4054b5:	83 85 20 f3 ff ff 01 	addl   $0x1,-0xce0(%rbp)
  4054bc:	f3 0f 10 8d 60 f3 ff 	movss  -0xca0(%rbp),%xmm1
  4054c3:	ff 
  4054c4:	8b 85 20 f3 ff ff    	mov    -0xce0(%rbp),%eax
  4054ca:	48 98                	cltq   
  4054cc:	48 c1 e0 04          	shl    $0x4,%rax
  4054d0:	48 01 e8             	add    %rbp,%rax
  4054d3:	48 2d 90 0c 00 00    	sub    $0xc90,%rax
  4054d9:	f3 0f 10 00          	movss  (%rax),%xmm0
  4054dd:	f3 0f 58 c1          	addss  %xmm1,%xmm0
  4054e1:	f3 0f 11 85 60 f3 ff 	movss  %xmm0,-0xca0(%rbp)
  4054e8:	ff 
  4054e9:	f3 0f 10 8d 64 f3 ff 	movss  -0xc9c(%rbp),%xmm1
  4054f0:	ff 
  4054f1:	8b 85 20 f3 ff ff    	mov    -0xce0(%rbp),%eax
  4054f7:	48 98                	cltq   
  4054f9:	48 c1 e0 04          	shl    $0x4,%rax
  4054fd:	48 01 e8             	add    %rbp,%rax
  405500:	48 2d 8c 0c 00 00    	sub    $0xc8c,%rax
  405506:	f3 0f 10 00          	movss  (%rax),%xmm0
  40550a:	f3 0f 58 c1          	addss  %xmm1,%xmm0
  40550e:	f3 0f 11 85 64 f3 ff 	movss  %xmm0,-0xc9c(%rbp)
  405515:	ff 
  405516:	f3 0f 10 8d 68 f3 ff 	movss  -0xc98(%rbp),%xmm1
  40551d:	ff 
  40551e:	8b 85 20 f3 ff ff    	mov    -0xce0(%rbp),%eax
  405524:	48 98                	cltq   
  405526:	48 c1 e0 04          	shl    $0x4,%rax
  40552a:	48 01 e8             	add    %rbp,%rax
  40552d:	48 2d 88 0c 00 00    	sub    $0xc88,%rax
  405533:	f3 0f 10 00          	movss  (%rax),%xmm0
  405537:	f3 0f 58 c1          	addss  %xmm1,%xmm0
  40553b:	f3 0f 11 85 68 f3 ff 	movss  %xmm0,-0xc98(%rbp)
  405542:	ff 
  405543:	f3 0f 10 8d 6c f3 ff 	movss  -0xc94(%rbp),%xmm1
  40554a:	ff 
  40554b:	8b 85 20 f3 ff ff    	mov    -0xce0(%rbp),%eax
  405551:	48 98                	cltq   
  405553:	48 c1 e0 04          	shl    $0x4,%rax
  405557:	48 01 e8             	add    %rbp,%rax
  40555a:	48 2d 84 0c 00 00    	sub    $0xc84,%rax
  405560:	f3 0f 10 00          	movss  (%rax),%xmm0
  405564:	f3 0f 58 c1          	addss  %xmm1,%xmm0
  405568:	f3 0f 11 85 6c f3 ff 	movss  %xmm0,-0xc94(%rbp)
  40556f:	ff 
  405570:	83 85 20 f3 ff ff 01 	addl   $0x1,-0xce0(%rbp)
  405577:	f3 0f 10 8d 60 f3 ff 	movss  -0xca0(%rbp),%xmm1
  40557e:	ff 
  40557f:	8b 85 20 f3 ff ff    	mov    -0xce0(%rbp),%eax
  405585:	48 98                	cltq   
  405587:	48 c1 e0 04          	shl    $0x4,%rax
  40558b:	48 01 e8             	add    %rbp,%rax
  40558e:	48 2d 90 0c 00 00    	sub    $0xc90,%rax
  405594:	f3 0f 10 00          	movss  (%rax),%xmm0
  405598:	f3 0f 58 c1          	addss  %xmm1,%xmm0
  40559c:	f3 0f 11 85 60 f3 ff 	movss  %xmm0,-0xca0(%rbp)
  4055a3:	ff 
  4055a4:	f3 0f 10 8d 64 f3 ff 	movss  -0xc9c(%rbp),%xmm1
  4055ab:	ff 
  4055ac:	8b 85 20 f3 ff ff    	mov    -0xce0(%rbp),%eax
  4055b2:	48 98                	cltq   
  4055b4:	48 c1 e0 04          	shl    $0x4,%rax
  4055b8:	48 01 e8             	add    %rbp,%rax
  4055bb:	48 2d 8c 0c 00 00    	sub    $0xc8c,%rax
  4055c1:	f3 0f 10 00          	movss  (%rax),%xmm0
  4055c5:	f3 0f 58 c1          	addss  %xmm1,%xmm0
  4055c9:	f3 0f 11 85 64 f3 ff 	movss  %xmm0,-0xc9c(%rbp)
  4055d0:	ff 
  4055d1:	f3 0f 10 8d 68 f3 ff 	movss  -0xc98(%rbp),%xmm1
  4055d8:	ff 
  4055d9:	8b 85 20 f3 ff ff    	mov    -0xce0(%rbp),%eax
  4055df:	48 98                	cltq   
  4055e1:	48 c1 e0 04          	shl    $0x4,%rax
  4055e5:	48 01 e8             	add    %rbp,%rax
  4055e8:	48 2d 88 0c 00 00    	sub    $0xc88,%rax
  4055ee:	f3 0f 10 00          	movss  (%rax),%xmm0
  4055f2:	f3 0f 58 c1          	addss  %xmm1,%xmm0
  4055f6:	f3 0f 11 85 68 f3 ff 	movss  %xmm0,-0xc98(%rbp)
  4055fd:	ff 
  4055fe:	f3 0f 10 8d 6c f3 ff 	movss  -0xc94(%rbp),%xmm1
  405605:	ff 
  405606:	8b 85 20 f3 ff ff    	mov    -0xce0(%rbp),%eax
  40560c:	48 98                	cltq   
  40560e:	48 c1 e0 04          	shl    $0x4,%rax
  405612:	48 01 e8             	add    %rbp,%rax
  405615:	48 2d 84 0c 00 00    	sub    $0xc84,%rax
  40561b:	f3 0f 10 00          	movss  (%rax),%xmm0
  40561f:	f3 0f 58 c1          	addss  %xmm1,%xmm0
  405623:	f3 0f 11 85 6c f3 ff 	movss  %xmm0,-0xc94(%rbp)
  40562a:	ff 
  40562b:	83 85 20 f3 ff ff 01 	addl   $0x1,-0xce0(%rbp)
  405632:	f3 0f 10 8d 60 f3 ff 	movss  -0xca0(%rbp),%xmm1
  405639:	ff 
  40563a:	8b 85 20 f3 ff ff    	mov    -0xce0(%rbp),%eax
  405640:	48 98                	cltq   
  405642:	48 c1 e0 04          	shl    $0x4,%rax
  405646:	48 01 e8             	add    %rbp,%rax
  405649:	48 2d 90 0c 00 00    	sub    $0xc90,%rax
  40564f:	f3 0f 10 00          	movss  (%rax),%xmm0
  405653:	f3 0f 58 c1          	addss  %xmm1,%xmm0
  405657:	f3 0f 11 85 60 f3 ff 	movss  %xmm0,-0xca0(%rbp)
  40565e:	ff 
  40565f:	f3 0f 10 8d 64 f3 ff 	movss  -0xc9c(%rbp),%xmm1
  405666:	ff 
  405667:	8b 85 20 f3 ff ff    	mov    -0xce0(%rbp),%eax
  40566d:	48 98                	cltq   
  40566f:	48 c1 e0 04          	shl    $0x4,%rax
  405673:	48 01 e8             	add    %rbp,%rax
  405676:	48 2d 8c 0c 00 00    	sub    $0xc8c,%rax
  40567c:	f3 0f 10 00          	movss  (%rax),%xmm0
  405680:	f3 0f 58 c1          	addss  %xmm1,%xmm0
  405684:	f3 0f 11 85 64 f3 ff 	movss  %xmm0,-0xc9c(%rbp)
  40568b:	ff 
  40568c:	f3 0f 10 8d 68 f3 ff 	movss  -0xc98(%rbp),%xmm1
  405693:	ff 
  405694:	8b 85 20 f3 ff ff    	mov    -0xce0(%rbp),%eax
  40569a:	48 98                	cltq   
  40569c:	48 c1 e0 04          	shl    $0x4,%rax
  4056a0:	48 01 e8             	add    %rbp,%rax
  4056a3:	48 2d 88 0c 00 00    	sub    $0xc88,%rax
  4056a9:	f3 0f 10 00          	movss  (%rax),%xmm0
  4056ad:	f3 0f 58 c1          	addss  %xmm1,%xmm0
  4056b1:	f3 0f 11 85 68 f3 ff 	movss  %xmm0,-0xc98(%rbp)
  4056b8:	ff 
  4056b9:	f3 0f 10 8d 6c f3 ff 	movss  -0xc94(%rbp),%xmm1
  4056c0:	ff 
  4056c1:	8b 85 20 f3 ff ff    	mov    -0xce0(%rbp),%eax
  4056c7:	48 98                	cltq   
  4056c9:	48 c1 e0 04          	shl    $0x4,%rax
  4056cd:	48 01 e8             	add    %rbp,%rax
  4056d0:	48 2d 84 0c 00 00    	sub    $0xc84,%rax
  4056d6:	f3 0f 10 00          	movss  (%rax),%xmm0
  4056da:	f3 0f 58 c1          	addss  %xmm1,%xmm0
  4056de:	f3 0f 11 85 6c f3 ff 	movss  %xmm0,-0xc94(%rbp)
  4056e5:	ff 
  4056e6:	83 85 20 f3 ff ff 01 	addl   $0x1,-0xce0(%rbp)
  4056ed:	f3 0f 10 8d 60 f3 ff 	movss  -0xca0(%rbp),%xmm1
  4056f4:	ff 
  4056f5:	8b 85 20 f3 ff ff    	mov    -0xce0(%rbp),%eax
  4056fb:	48 98                	cltq   
  4056fd:	48 c1 e0 04          	shl    $0x4,%rax
  405701:	48 01 e8             	add    %rbp,%rax
  405704:	48 2d 90 0c 00 00    	sub    $0xc90,%rax
  40570a:	f3 0f 10 00          	movss  (%rax),%xmm0
  40570e:	f3 0f 58 c1          	addss  %xmm1,%xmm0
  405712:	f3 0f 11 85 60 f3 ff 	movss  %xmm0,-0xca0(%rbp)
  405719:	ff 
  40571a:	f3 0f 10 8d 64 f3 ff 	movss  -0xc9c(%rbp),%xmm1
  405721:	ff 
  405722:	8b 85 20 f3 ff ff    	mov    -0xce0(%rbp),%eax
  405728:	48 98                	cltq   
  40572a:	48 c1 e0 04          	shl    $0x4,%rax
  40572e:	48 01 e8             	add    %rbp,%rax
  405731:	48 2d 8c 0c 00 00    	sub    $0xc8c,%rax
  405737:	f3 0f 10 00          	movss  (%rax),%xmm0
  40573b:	f3 0f 58 c1          	addss  %xmm1,%xmm0
  40573f:	f3 0f 11 85 64 f3 ff 	movss  %xmm0,-0xc9c(%rbp)
  405746:	ff 
  405747:	f3 0f 10 8d 68 f3 ff 	movss  -0xc98(%rbp),%xmm1
  40574e:	ff 
  40574f:	8b 85 20 f3 ff ff    	mov    -0xce0(%rbp),%eax
  405755:	48 98                	cltq   
  405757:	48 c1 e0 04          	shl    $0x4,%rax
  40575b:	48 01 e8             	add    %rbp,%rax
  40575e:	48 2d 88 0c 00 00    	sub    $0xc88,%rax
  405764:	f3 0f 10 00          	movss  (%rax),%xmm0
  405768:	f3 0f 58 c1          	addss  %xmm1,%xmm0
  40576c:	f3 0f 11 85 68 f3 ff 	movss  %xmm0,-0xc98(%rbp)
  405773:	ff 
  405774:	f3 0f 10 8d 6c f3 ff 	movss  -0xc94(%rbp),%xmm1
  40577b:	ff 
  40577c:	8b 85 20 f3 ff ff    	mov    -0xce0(%rbp),%eax
  405782:	48 98                	cltq   
  405784:	48 c1 e0 04          	shl    $0x4,%rax
  405788:	48 01 e8             	add    %rbp,%rax
  40578b:	48 2d 84 0c 00 00    	sub    $0xc84,%rax
  405791:	f3 0f 10 00          	movss  (%rax),%xmm0
  405795:	f3 0f 58 c1          	addss  %xmm1,%xmm0
  405799:	f3 0f 11 85 6c f3 ff 	movss  %xmm0,-0xc94(%rbp)
  4057a0:	ff 
  4057a1:	83 85 20 f3 ff ff 01 	addl   $0x1,-0xce0(%rbp)
  4057a8:	f3 0f 10 8d 60 f3 ff 	movss  -0xca0(%rbp),%xmm1
  4057af:	ff 
  4057b0:	8b 85 20 f3 ff ff    	mov    -0xce0(%rbp),%eax
  4057b6:	48 98                	cltq   
  4057b8:	48 c1 e0 04          	shl    $0x4,%rax
  4057bc:	48 01 e8             	add    %rbp,%rax
  4057bf:	48 2d 90 0c 00 00    	sub    $0xc90,%rax
  4057c5:	f3 0f 10 00          	movss  (%rax),%xmm0
  4057c9:	f3 0f 58 c1          	addss  %xmm1,%xmm0
  4057cd:	f3 0f 11 85 60 f3 ff 	movss  %xmm0,-0xca0(%rbp)
  4057d4:	ff 
  4057d5:	f3 0f 10 8d 64 f3 ff 	movss  -0xc9c(%rbp),%xmm1
  4057dc:	ff 
  4057dd:	8b 85 20 f3 ff ff    	mov    -0xce0(%rbp),%eax
  4057e3:	48 98                	cltq   
  4057e5:	48 c1 e0 04          	shl    $0x4,%rax
  4057e9:	48 01 e8             	add    %rbp,%rax
  4057ec:	48 2d 8c 0c 00 00    	sub    $0xc8c,%rax
  4057f2:	f3 0f 10 00          	movss  (%rax),%xmm0
  4057f6:	f3 0f 58 c1          	addss  %xmm1,%xmm0
  4057fa:	f3 0f 11 85 64 f3 ff 	movss  %xmm0,-0xc9c(%rbp)
  405801:	ff 
  405802:	f3 0f 10 8d 68 f3 ff 	movss  -0xc98(%rbp),%xmm1
  405809:	ff 
  40580a:	8b 85 20 f3 ff ff    	mov    -0xce0(%rbp),%eax
  405810:	48 98                	cltq   
  405812:	48 c1 e0 04          	shl    $0x4,%rax
  405816:	48 01 e8             	add    %rbp,%rax
  405819:	48 2d 88 0c 00 00    	sub    $0xc88,%rax
  40581f:	f3 0f 10 00          	movss  (%rax),%xmm0
  405823:	f3 0f 58 c1          	addss  %xmm1,%xmm0
  405827:	f3 0f 11 85 68 f3 ff 	movss  %xmm0,-0xc98(%rbp)
  40582e:	ff 
  40582f:	f3 0f 10 8d 6c f3 ff 	movss  -0xc94(%rbp),%xmm1
  405836:	ff 
  405837:	8b 85 20 f3 ff ff    	mov    -0xce0(%rbp),%eax
  40583d:	48 98                	cltq   
  40583f:	48 c1 e0 04          	shl    $0x4,%rax
  405843:	48 01 e8             	add    %rbp,%rax
  405846:	48 2d 84 0c 00 00    	sub    $0xc84,%rax
  40584c:	f3 0f 10 00          	movss  (%rax),%xmm0
  405850:	f3 0f 58 c1          	addss  %xmm1,%xmm0
  405854:	f3 0f 11 85 6c f3 ff 	movss  %xmm0,-0xc94(%rbp)
  40585b:	ff 
  40585c:	83 85 20 f3 ff ff 01 	addl   $0x1,-0xce0(%rbp)
  405863:	f3 0f 10 8d 60 f3 ff 	movss  -0xca0(%rbp),%xmm1
  40586a:	ff 
  40586b:	8b 85 20 f3 ff ff    	mov    -0xce0(%rbp),%eax
  405871:	48 98                	cltq   
  405873:	48 c1 e0 04          	shl    $0x4,%rax
  405877:	48 01 e8             	add    %rbp,%rax
  40587a:	48 2d 90 0c 00 00    	sub    $0xc90,%rax
  405880:	f3 0f 10 00          	movss  (%rax),%xmm0
  405884:	f3 0f 58 c1          	addss  %xmm1,%xmm0
  405888:	f3 0f 11 85 60 f3 ff 	movss  %xmm0,-0xca0(%rbp)
  40588f:	ff 
  405890:	f3 0f 10 8d 64 f3 ff 	movss  -0xc9c(%rbp),%xmm1
  405897:	ff 
  405898:	8b 85 20 f3 ff ff    	mov    -0xce0(%rbp),%eax
  40589e:	48 98                	cltq   
  4058a0:	48 c1 e0 04          	shl    $0x4,%rax
  4058a4:	48 01 e8             	add    %rbp,%rax
  4058a7:	48 2d 8c 0c 00 00    	sub    $0xc8c,%rax
  4058ad:	f3 0f 10 00          	movss  (%rax),%xmm0
  4058b1:	f3 0f 58 c1          	addss  %xmm1,%xmm0
  4058b5:	f3 0f 11 85 64 f3 ff 	movss  %xmm0,-0xc9c(%rbp)
  4058bc:	ff 
  4058bd:	f3 0f 10 8d 68 f3 ff 	movss  -0xc98(%rbp),%xmm1
  4058c4:	ff 
  4058c5:	8b 85 20 f3 ff ff    	mov    -0xce0(%rbp),%eax
  4058cb:	48 98                	cltq   
  4058cd:	48 c1 e0 04          	shl    $0x4,%rax
  4058d1:	48 01 e8             	add    %rbp,%rax
  4058d4:	48 2d 88 0c 00 00    	sub    $0xc88,%rax
  4058da:	f3 0f 10 00          	movss  (%rax),%xmm0
  4058de:	f3 0f 58 c1          	addss  %xmm1,%xmm0
  4058e2:	f3 0f 11 85 68 f3 ff 	movss  %xmm0,-0xc98(%rbp)
  4058e9:	ff 
  4058ea:	f3 0f 10 8d 6c f3 ff 	movss  -0xc94(%rbp),%xmm1
  4058f1:	ff 
  4058f2:	8b 85 20 f3 ff ff    	mov    -0xce0(%rbp),%eax
  4058f8:	48 98                	cltq   
  4058fa:	48 c1 e0 04          	shl    $0x4,%rax
  4058fe:	48 01 e8             	add    %rbp,%rax
  405901:	48 2d 84 0c 00 00    	sub    $0xc84,%rax
  405907:	f3 0f 10 00          	movss  (%rax),%xmm0
  40590b:	f3 0f 58 c1          	addss  %xmm1,%xmm0
  40590f:	f3 0f 11 85 6c f3 ff 	movss  %xmm0,-0xc94(%rbp)
  405916:	ff 
  405917:	83 85 20 f3 ff ff 01 	addl   $0x1,-0xce0(%rbp)
  40591e:	f3 0f 10 8d 60 f3 ff 	movss  -0xca0(%rbp),%xmm1
  405925:	ff 
  405926:	8b 85 20 f3 ff ff    	mov    -0xce0(%rbp),%eax
  40592c:	48 98                	cltq   
  40592e:	48 c1 e0 04          	shl    $0x4,%rax
  405932:	48 01 e8             	add    %rbp,%rax
  405935:	48 2d 90 0c 00 00    	sub    $0xc90,%rax
  40593b:	f3 0f 10 00          	movss  (%rax),%xmm0
  40593f:	f3 0f 58 c1          	addss  %xmm1,%xmm0
  405943:	f3 0f 11 85 60 f3 ff 	movss  %xmm0,-0xca0(%rbp)
  40594a:	ff 
  40594b:	f3 0f 10 8d 64 f3 ff 	movss  -0xc9c(%rbp),%xmm1
  405952:	ff 
  405953:	8b 85 20 f3 ff ff    	mov    -0xce0(%rbp),%eax
  405959:	48 98                	cltq   
  40595b:	48 c1 e0 04          	shl    $0x4,%rax
  40595f:	48 01 e8             	add    %rbp,%rax
  405962:	48 2d 8c 0c 00 00    	sub    $0xc8c,%rax
  405968:	f3 0f 10 00          	movss  (%rax),%xmm0
  40596c:	f3 0f 58 c1          	addss  %xmm1,%xmm0
  405970:	f3 0f 11 85 64 f3 ff 	movss  %xmm0,-0xc9c(%rbp)
  405977:	ff 
  405978:	f3 0f 10 8d 68 f3 ff 	movss  -0xc98(%rbp),%xmm1
  40597f:	ff 
  405980:	8b 85 20 f3 ff ff    	mov    -0xce0(%rbp),%eax
  405986:	48 98                	cltq   
  405988:	48 c1 e0 04          	shl    $0x4,%rax
  40598c:	48 01 e8             	add    %rbp,%rax
  40598f:	48 2d 88 0c 00 00    	sub    $0xc88,%rax
  405995:	f3 0f 10 00          	movss  (%rax),%xmm0
  405999:	f3 0f 58 c1          	addss  %xmm1,%xmm0
  40599d:	f3 0f 11 85 68 f3 ff 	movss  %xmm0,-0xc98(%rbp)
  4059a4:	ff 
  4059a5:	f3 0f 10 8d 6c f3 ff 	movss  -0xc94(%rbp),%xmm1
  4059ac:	ff 
  4059ad:	8b 85 20 f3 ff ff    	mov    -0xce0(%rbp),%eax
  4059b3:	48 98                	cltq   
  4059b5:	48 c1 e0 04          	shl    $0x4,%rax
  4059b9:	48 01 e8             	add    %rbp,%rax
  4059bc:	48 2d 84 0c 00 00    	sub    $0xc84,%rax
  4059c2:	f3 0f 10 00          	movss  (%rax),%xmm0
  4059c6:	f3 0f 58 c1          	addss  %xmm1,%xmm0
  4059ca:	f3 0f 11 85 6c f3 ff 	movss  %xmm0,-0xc94(%rbp)
  4059d1:	ff 
  4059d2:	83 85 20 f3 ff ff 01 	addl   $0x1,-0xce0(%rbp)
  4059d9:	f3 0f 10 8d 60 f3 ff 	movss  -0xca0(%rbp),%xmm1
  4059e0:	ff 
  4059e1:	8b 85 20 f3 ff ff    	mov    -0xce0(%rbp),%eax
  4059e7:	48 98                	cltq   
  4059e9:	48 c1 e0 04          	shl    $0x4,%rax
  4059ed:	48 01 e8             	add    %rbp,%rax
  4059f0:	48 2d 90 0c 00 00    	sub    $0xc90,%rax
  4059f6:	f3 0f 10 00          	movss  (%rax),%xmm0
  4059fa:	f3 0f 58 c1          	addss  %xmm1,%xmm0
  4059fe:	f3 0f 11 85 60 f3 ff 	movss  %xmm0,-0xca0(%rbp)
  405a05:	ff 
  405a06:	f3 0f 10 8d 64 f3 ff 	movss  -0xc9c(%rbp),%xmm1
  405a0d:	ff 
  405a0e:	8b 85 20 f3 ff ff    	mov    -0xce0(%rbp),%eax
  405a14:	48 98                	cltq   
  405a16:	48 c1 e0 04          	shl    $0x4,%rax
  405a1a:	48 01 e8             	add    %rbp,%rax
  405a1d:	48 2d 8c 0c 00 00    	sub    $0xc8c,%rax
  405a23:	f3 0f 10 00          	movss  (%rax),%xmm0
  405a27:	f3 0f 58 c1          	addss  %xmm1,%xmm0
  405a2b:	f3 0f 11 85 64 f3 ff 	movss  %xmm0,-0xc9c(%rbp)
  405a32:	ff 
  405a33:	f3 0f 10 8d 68 f3 ff 	movss  -0xc98(%rbp),%xmm1
  405a3a:	ff 
  405a3b:	8b 85 20 f3 ff ff    	mov    -0xce0(%rbp),%eax
  405a41:	48 98                	cltq   
  405a43:	48 c1 e0 04          	shl    $0x4,%rax
  405a47:	48 01 e8             	add    %rbp,%rax
  405a4a:	48 2d 88 0c 00 00    	sub    $0xc88,%rax
  405a50:	f3 0f 10 00          	movss  (%rax),%xmm0
  405a54:	f3 0f 58 c1          	addss  %xmm1,%xmm0
  405a58:	f3 0f 11 85 68 f3 ff 	movss  %xmm0,-0xc98(%rbp)
  405a5f:	ff 
  405a60:	f3 0f 10 8d 6c f3 ff 	movss  -0xc94(%rbp),%xmm1
  405a67:	ff 
  405a68:	8b 85 20 f3 ff ff    	mov    -0xce0(%rbp),%eax
  405a6e:	48 98                	cltq   
  405a70:	48 c1 e0 04          	shl    $0x4,%rax
  405a74:	48 01 e8             	add    %rbp,%rax
  405a77:	48 2d 84 0c 00 00    	sub    $0xc84,%rax
  405a7d:	f3 0f 10 00          	movss  (%rax),%xmm0
  405a81:	f3 0f 58 c1          	addss  %xmm1,%xmm0
  405a85:	f3 0f 11 85 6c f3 ff 	movss  %xmm0,-0xc94(%rbp)
  405a8c:	ff 
  405a8d:	83 85 20 f3 ff ff 01 	addl   $0x1,-0xce0(%rbp)
  405a94:	f3 0f 10 8d 60 f3 ff 	movss  -0xca0(%rbp),%xmm1
  405a9b:	ff 
  405a9c:	8b 85 20 f3 ff ff    	mov    -0xce0(%rbp),%eax
  405aa2:	48 98                	cltq   
  405aa4:	48 c1 e0 04          	shl    $0x4,%rax
  405aa8:	48 01 e8             	add    %rbp,%rax
  405aab:	48 2d 90 0c 00 00    	sub    $0xc90,%rax
  405ab1:	f3 0f 10 00          	movss  (%rax),%xmm0
  405ab5:	f3 0f 58 c1          	addss  %xmm1,%xmm0
  405ab9:	f3 0f 11 85 60 f3 ff 	movss  %xmm0,-0xca0(%rbp)
  405ac0:	ff 
  405ac1:	f3 0f 10 8d 64 f3 ff 	movss  -0xc9c(%rbp),%xmm1
  405ac8:	ff 
  405ac9:	8b 85 20 f3 ff ff    	mov    -0xce0(%rbp),%eax
  405acf:	48 98                	cltq   
  405ad1:	48 c1 e0 04          	shl    $0x4,%rax
  405ad5:	48 01 e8             	add    %rbp,%rax
  405ad8:	48 2d 8c 0c 00 00    	sub    $0xc8c,%rax
  405ade:	f3 0f 10 00          	movss  (%rax),%xmm0
  405ae2:	f3 0f 58 c1          	addss  %xmm1,%xmm0
  405ae6:	f3 0f 11 85 64 f3 ff 	movss  %xmm0,-0xc9c(%rbp)
  405aed:	ff 
  405aee:	f3 0f 10 8d 68 f3 ff 	movss  -0xc98(%rbp),%xmm1
  405af5:	ff 
  405af6:	8b 85 20 f3 ff ff    	mov    -0xce0(%rbp),%eax
  405afc:	48 98                	cltq   
  405afe:	48 c1 e0 04          	shl    $0x4,%rax
  405b02:	48 01 e8             	add    %rbp,%rax
  405b05:	48 2d 88 0c 00 00    	sub    $0xc88,%rax
  405b0b:	f3 0f 10 00          	movss  (%rax),%xmm0
  405b0f:	f3 0f 58 c1          	addss  %xmm1,%xmm0
  405b13:	f3 0f 11 85 68 f3 ff 	movss  %xmm0,-0xc98(%rbp)
  405b1a:	ff 
  405b1b:	f3 0f 10 8d 6c f3 ff 	movss  -0xc94(%rbp),%xmm1
  405b22:	ff 
  405b23:	8b 85 20 f3 ff ff    	mov    -0xce0(%rbp),%eax
  405b29:	48 98                	cltq   
  405b2b:	48 c1 e0 04          	shl    $0x4,%rax
  405b2f:	48 01 e8             	add    %rbp,%rax
  405b32:	48 2d 84 0c 00 00    	sub    $0xc84,%rax
  405b38:	f3 0f 10 00          	movss  (%rax),%xmm0
  405b3c:	f3 0f 58 c1          	addss  %xmm1,%xmm0
  405b40:	f3 0f 11 85 6c f3 ff 	movss  %xmm0,-0xc94(%rbp)
  405b47:	ff 
  405b48:	83 85 20 f3 ff ff 01 	addl   $0x1,-0xce0(%rbp)
  405b4f:	f3 0f 10 8d 60 f3 ff 	movss  -0xca0(%rbp),%xmm1
  405b56:	ff 
  405b57:	8b 85 20 f3 ff ff    	mov    -0xce0(%rbp),%eax
  405b5d:	48 98                	cltq   
  405b5f:	48 c1 e0 04          	shl    $0x4,%rax
  405b63:	48 01 e8             	add    %rbp,%rax
  405b66:	48 2d 90 0c 00 00    	sub    $0xc90,%rax
  405b6c:	f3 0f 10 00          	movss  (%rax),%xmm0
  405b70:	f3 0f 58 c1          	addss  %xmm1,%xmm0
  405b74:	f3 0f 11 85 60 f3 ff 	movss  %xmm0,-0xca0(%rbp)
  405b7b:	ff 
  405b7c:	f3 0f 10 8d 64 f3 ff 	movss  -0xc9c(%rbp),%xmm1
  405b83:	ff 
  405b84:	8b 85 20 f3 ff ff    	mov    -0xce0(%rbp),%eax
  405b8a:	48 98                	cltq   
  405b8c:	48 c1 e0 04          	shl    $0x4,%rax
  405b90:	48 01 e8             	add    %rbp,%rax
  405b93:	48 2d 8c 0c 00 00    	sub    $0xc8c,%rax
  405b99:	f3 0f 10 00          	movss  (%rax),%xmm0
  405b9d:	f3 0f 58 c1          	addss  %xmm1,%xmm0
  405ba1:	f3 0f 11 85 64 f3 ff 	movss  %xmm0,-0xc9c(%rbp)
  405ba8:	ff 
  405ba9:	f3 0f 10 8d 68 f3 ff 	movss  -0xc98(%rbp),%xmm1
  405bb0:	ff 
  405bb1:	8b 85 20 f3 ff ff    	mov    -0xce0(%rbp),%eax
  405bb7:	48 98                	cltq   
  405bb9:	48 c1 e0 04          	shl    $0x4,%rax
  405bbd:	48 01 e8             	add    %rbp,%rax
  405bc0:	48 2d 88 0c 00 00    	sub    $0xc88,%rax
  405bc6:	f3 0f 10 00          	movss  (%rax),%xmm0
  405bca:	f3 0f 58 c1          	addss  %xmm1,%xmm0
  405bce:	f3 0f 11 85 68 f3 ff 	movss  %xmm0,-0xc98(%rbp)
  405bd5:	ff 
  405bd6:	f3 0f 10 8d 6c f3 ff 	movss  -0xc94(%rbp),%xmm1
  405bdd:	ff 
  405bde:	8b 85 20 f3 ff ff    	mov    -0xce0(%rbp),%eax
  405be4:	48 98                	cltq   
  405be6:	48 c1 e0 04          	shl    $0x4,%rax
  405bea:	48 01 e8             	add    %rbp,%rax
  405bed:	48 2d 84 0c 00 00    	sub    $0xc84,%rax
  405bf3:	f3 0f 10 00          	movss  (%rax),%xmm0
  405bf7:	f3 0f 58 c1          	addss  %xmm1,%xmm0
  405bfb:	f3 0f 11 85 6c f3 ff 	movss  %xmm0,-0xc94(%rbp)
  405c02:	ff 
  405c03:	83 85 20 f3 ff ff 01 	addl   $0x1,-0xce0(%rbp)
  405c0a:	f3 0f 10 8d 60 f3 ff 	movss  -0xca0(%rbp),%xmm1
  405c11:	ff 
  405c12:	8b 85 20 f3 ff ff    	mov    -0xce0(%rbp),%eax
  405c18:	48 98                	cltq   
  405c1a:	48 c1 e0 04          	shl    $0x4,%rax
  405c1e:	48 01 e8             	add    %rbp,%rax
  405c21:	48 2d 90 0c 00 00    	sub    $0xc90,%rax
  405c27:	f3 0f 10 00          	movss  (%rax),%xmm0
  405c2b:	f3 0f 58 c1          	addss  %xmm1,%xmm0
  405c2f:	f3 0f 11 85 60 f3 ff 	movss  %xmm0,-0xca0(%rbp)
  405c36:	ff 
  405c37:	f3 0f 10 8d 64 f3 ff 	movss  -0xc9c(%rbp),%xmm1
  405c3e:	ff 
  405c3f:	8b 85 20 f3 ff ff    	mov    -0xce0(%rbp),%eax
  405c45:	48 98                	cltq   
  405c47:	48 c1 e0 04          	shl    $0x4,%rax
  405c4b:	48 01 e8             	add    %rbp,%rax
  405c4e:	48 2d 8c 0c 00 00    	sub    $0xc8c,%rax
  405c54:	f3 0f 10 00          	movss  (%rax),%xmm0
  405c58:	f3 0f 58 c1          	addss  %xmm1,%xmm0
  405c5c:	f3 0f 11 85 64 f3 ff 	movss  %xmm0,-0xc9c(%rbp)
  405c63:	ff 
  405c64:	f3 0f 10 8d 68 f3 ff 	movss  -0xc98(%rbp),%xmm1
  405c6b:	ff 
  405c6c:	8b 85 20 f3 ff ff    	mov    -0xce0(%rbp),%eax
  405c72:	48 98                	cltq   
  405c74:	48 c1 e0 04          	shl    $0x4,%rax
  405c78:	48 01 e8             	add    %rbp,%rax
  405c7b:	48 2d 88 0c 00 00    	sub    $0xc88,%rax
  405c81:	f3 0f 10 00          	movss  (%rax),%xmm0
  405c85:	f3 0f 58 c1          	addss  %xmm1,%xmm0
  405c89:	f3 0f 11 85 68 f3 ff 	movss  %xmm0,-0xc98(%rbp)
  405c90:	ff 
  405c91:	f3 0f 10 8d 6c f3 ff 	movss  -0xc94(%rbp),%xmm1
  405c98:	ff 
  405c99:	8b 85 20 f3 ff ff    	mov    -0xce0(%rbp),%eax
  405c9f:	48 98                	cltq   
  405ca1:	48 c1 e0 04          	shl    $0x4,%rax
  405ca5:	48 01 e8             	add    %rbp,%rax
  405ca8:	48 2d 84 0c 00 00    	sub    $0xc84,%rax
  405cae:	f3 0f 10 00          	movss  (%rax),%xmm0
  405cb2:	f3 0f 58 c1          	addss  %xmm1,%xmm0
  405cb6:	f3 0f 11 85 6c f3 ff 	movss  %xmm0,-0xc94(%rbp)
  405cbd:	ff 
  405cbe:	83 85 20 f3 ff ff 01 	addl   $0x1,-0xce0(%rbp)
  405cc5:	f3 0f 10 8d 60 f3 ff 	movss  -0xca0(%rbp),%xmm1
  405ccc:	ff 
  405ccd:	8b 85 20 f3 ff ff    	mov    -0xce0(%rbp),%eax
  405cd3:	48 98                	cltq   
  405cd5:	48 c1 e0 04          	shl    $0x4,%rax
  405cd9:	48 01 e8             	add    %rbp,%rax
  405cdc:	48 2d 90 0c 00 00    	sub    $0xc90,%rax
  405ce2:	f3 0f 10 00          	movss  (%rax),%xmm0
  405ce6:	f3 0f 58 c1          	addss  %xmm1,%xmm0
  405cea:	f3 0f 11 85 60 f3 ff 	movss  %xmm0,-0xca0(%rbp)
  405cf1:	ff 
  405cf2:	f3 0f 10 8d 64 f3 ff 	movss  -0xc9c(%rbp),%xmm1
  405cf9:	ff 
  405cfa:	8b 85 20 f3 ff ff    	mov    -0xce0(%rbp),%eax
  405d00:	48 98                	cltq   
  405d02:	48 c1 e0 04          	shl    $0x4,%rax
  405d06:	48 01 e8             	add    %rbp,%rax
  405d09:	48 2d 8c 0c 00 00    	sub    $0xc8c,%rax
  405d0f:	f3 0f 10 00          	movss  (%rax),%xmm0
  405d13:	f3 0f 58 c1          	addss  %xmm1,%xmm0
  405d17:	f3 0f 11 85 64 f3 ff 	movss  %xmm0,-0xc9c(%rbp)
  405d1e:	ff 
  405d1f:	f3 0f 10 8d 68 f3 ff 	movss  -0xc98(%rbp),%xmm1
  405d26:	ff 
  405d27:	8b 85 20 f3 ff ff    	mov    -0xce0(%rbp),%eax
  405d2d:	48 98                	cltq   
  405d2f:	48 c1 e0 04          	shl    $0x4,%rax
  405d33:	48 01 e8             	add    %rbp,%rax
  405d36:	48 2d 88 0c 00 00    	sub    $0xc88,%rax
  405d3c:	f3 0f 10 00          	movss  (%rax),%xmm0
  405d40:	f3 0f 58 c1          	addss  %xmm1,%xmm0
  405d44:	f3 0f 11 85 68 f3 ff 	movss  %xmm0,-0xc98(%rbp)
  405d4b:	ff 
  405d4c:	f3 0f 10 8d 6c f3 ff 	movss  -0xc94(%rbp),%xmm1
  405d53:	ff 
  405d54:	8b 85 20 f3 ff ff    	mov    -0xce0(%rbp),%eax
  405d5a:	48 98                	cltq   
  405d5c:	48 c1 e0 04          	shl    $0x4,%rax
  405d60:	48 01 e8             	add    %rbp,%rax
  405d63:	48 2d 84 0c 00 00    	sub    $0xc84,%rax
  405d69:	f3 0f 10 00          	movss  (%rax),%xmm0
  405d6d:	f3 0f 58 c1          	addss  %xmm1,%xmm0
  405d71:	f3 0f 11 85 6c f3 ff 	movss  %xmm0,-0xc94(%rbp)
  405d78:	ff 
  405d79:	83 85 20 f3 ff ff 01 	addl   $0x1,-0xce0(%rbp)
  405d80:	f3 0f 10 8d 60 f3 ff 	movss  -0xca0(%rbp),%xmm1
  405d87:	ff 
  405d88:	8b 85 20 f3 ff ff    	mov    -0xce0(%rbp),%eax
  405d8e:	48 98                	cltq   
  405d90:	48 c1 e0 04          	shl    $0x4,%rax
  405d94:	48 01 e8             	add    %rbp,%rax
  405d97:	48 2d 90 0c 00 00    	sub    $0xc90,%rax
  405d9d:	f3 0f 10 00          	movss  (%rax),%xmm0
  405da1:	f3 0f 58 c1          	addss  %xmm1,%xmm0
  405da5:	f3 0f 11 85 60 f3 ff 	movss  %xmm0,-0xca0(%rbp)
  405dac:	ff 
  405dad:	f3 0f 10 8d 64 f3 ff 	movss  -0xc9c(%rbp),%xmm1
  405db4:	ff 
  405db5:	8b 85 20 f3 ff ff    	mov    -0xce0(%rbp),%eax
  405dbb:	48 98                	cltq   
  405dbd:	48 c1 e0 04          	shl    $0x4,%rax
  405dc1:	48 01 e8             	add    %rbp,%rax
  405dc4:	48 2d 8c 0c 00 00    	sub    $0xc8c,%rax
  405dca:	f3 0f 10 00          	movss  (%rax),%xmm0
  405dce:	f3 0f 58 c1          	addss  %xmm1,%xmm0
  405dd2:	f3 0f 11 85 64 f3 ff 	movss  %xmm0,-0xc9c(%rbp)
  405dd9:	ff 
  405dda:	f3 0f 10 8d 68 f3 ff 	movss  -0xc98(%rbp),%xmm1
  405de1:	ff 
  405de2:	8b 85 20 f3 ff ff    	mov    -0xce0(%rbp),%eax
  405de8:	48 98                	cltq   
  405dea:	48 c1 e0 04          	shl    $0x4,%rax
  405dee:	48 01 e8             	add    %rbp,%rax
  405df1:	48 2d 88 0c 00 00    	sub    $0xc88,%rax
  405df7:	f3 0f 10 00          	movss  (%rax),%xmm0
  405dfb:	f3 0f 58 c1          	addss  %xmm1,%xmm0
  405dff:	f3 0f 11 85 68 f3 ff 	movss  %xmm0,-0xc98(%rbp)
  405e06:	ff 
  405e07:	f3 0f 10 8d 6c f3 ff 	movss  -0xc94(%rbp),%xmm1
  405e0e:	ff 
  405e0f:	8b 85 20 f3 ff ff    	mov    -0xce0(%rbp),%eax
  405e15:	48 98                	cltq   
  405e17:	48 c1 e0 04          	shl    $0x4,%rax
  405e1b:	48 01 e8             	add    %rbp,%rax
  405e1e:	48 2d 84 0c 00 00    	sub    $0xc84,%rax
  405e24:	f3 0f 10 00          	movss  (%rax),%xmm0
  405e28:	f3 0f 58 c1          	addss  %xmm1,%xmm0
  405e2c:	f3 0f 11 85 6c f3 ff 	movss  %xmm0,-0xc94(%rbp)
  405e33:	ff 
  405e34:	83 85 20 f3 ff ff 01 	addl   $0x1,-0xce0(%rbp)
  405e3b:	f3 0f 10 8d 60 f3 ff 	movss  -0xca0(%rbp),%xmm1
  405e42:	ff 
  405e43:	8b 85 20 f3 ff ff    	mov    -0xce0(%rbp),%eax
  405e49:	48 98                	cltq   
  405e4b:	48 c1 e0 04          	shl    $0x4,%rax
  405e4f:	48 01 e8             	add    %rbp,%rax
  405e52:	48 2d 90 0c 00 00    	sub    $0xc90,%rax
  405e58:	f3 0f 10 00          	movss  (%rax),%xmm0
  405e5c:	f3 0f 58 c1          	addss  %xmm1,%xmm0
  405e60:	f3 0f 11 85 60 f3 ff 	movss  %xmm0,-0xca0(%rbp)
  405e67:	ff 
  405e68:	f3 0f 10 8d 64 f3 ff 	movss  -0xc9c(%rbp),%xmm1
  405e6f:	ff 
  405e70:	8b 85 20 f3 ff ff    	mov    -0xce0(%rbp),%eax
  405e76:	48 98                	cltq   
  405e78:	48 c1 e0 04          	shl    $0x4,%rax
  405e7c:	48 01 e8             	add    %rbp,%rax
  405e7f:	48 2d 8c 0c 00 00    	sub    $0xc8c,%rax
  405e85:	f3 0f 10 00          	movss  (%rax),%xmm0
  405e89:	f3 0f 58 c1          	addss  %xmm1,%xmm0
  405e8d:	f3 0f 11 85 64 f3 ff 	movss  %xmm0,-0xc9c(%rbp)
  405e94:	ff 
  405e95:	f3 0f 10 8d 68 f3 ff 	movss  -0xc98(%rbp),%xmm1
  405e9c:	ff 
  405e9d:	8b 85 20 f3 ff ff    	mov    -0xce0(%rbp),%eax
  405ea3:	48 98                	cltq   
  405ea5:	48 c1 e0 04          	shl    $0x4,%rax
  405ea9:	48 01 e8             	add    %rbp,%rax
  405eac:	48 2d 88 0c 00 00    	sub    $0xc88,%rax
  405eb2:	f3 0f 10 00          	movss  (%rax),%xmm0
  405eb6:	f3 0f 58 c1          	addss  %xmm1,%xmm0
  405eba:	f3 0f 11 85 68 f3 ff 	movss  %xmm0,-0xc98(%rbp)
  405ec1:	ff 
  405ec2:	f3 0f 10 8d 6c f3 ff 	movss  -0xc94(%rbp),%xmm1
  405ec9:	ff 
  405eca:	8b 85 20 f3 ff ff    	mov    -0xce0(%rbp),%eax
  405ed0:	48 98                	cltq   
  405ed2:	48 c1 e0 04          	shl    $0x4,%rax
  405ed6:	48 01 e8             	add    %rbp,%rax
  405ed9:	48 2d 84 0c 00 00    	sub    $0xc84,%rax
  405edf:	f3 0f 10 00          	movss  (%rax),%xmm0
  405ee3:	f3 0f 58 c1          	addss  %xmm1,%xmm0
  405ee7:	f3 0f 11 85 6c f3 ff 	movss  %xmm0,-0xc94(%rbp)
  405eee:	ff 
  405eef:	83 85 20 f3 ff ff 01 	addl   $0x1,-0xce0(%rbp)
  405ef6:	f3 0f 10 8d 60 f3 ff 	movss  -0xca0(%rbp),%xmm1
  405efd:	ff 
  405efe:	8b 85 20 f3 ff ff    	mov    -0xce0(%rbp),%eax
  405f04:	48 98                	cltq   
  405f06:	48 c1 e0 04          	shl    $0x4,%rax
  405f0a:	48 01 e8             	add    %rbp,%rax
  405f0d:	48 2d 90 0c 00 00    	sub    $0xc90,%rax
  405f13:	f3 0f 10 00          	movss  (%rax),%xmm0
  405f17:	f3 0f 58 c1          	addss  %xmm1,%xmm0
  405f1b:	f3 0f 11 85 60 f3 ff 	movss  %xmm0,-0xca0(%rbp)
  405f22:	ff 
  405f23:	f3 0f 10 8d 64 f3 ff 	movss  -0xc9c(%rbp),%xmm1
  405f2a:	ff 
  405f2b:	8b 85 20 f3 ff ff    	mov    -0xce0(%rbp),%eax
  405f31:	48 98                	cltq   
  405f33:	48 c1 e0 04          	shl    $0x4,%rax
  405f37:	48 01 e8             	add    %rbp,%rax
  405f3a:	48 2d 8c 0c 00 00    	sub    $0xc8c,%rax
  405f40:	f3 0f 10 00          	movss  (%rax),%xmm0
  405f44:	f3 0f 58 c1          	addss  %xmm1,%xmm0
  405f48:	f3 0f 11 85 64 f3 ff 	movss  %xmm0,-0xc9c(%rbp)
  405f4f:	ff 
  405f50:	f3 0f 10 8d 68 f3 ff 	movss  -0xc98(%rbp),%xmm1
  405f57:	ff 
  405f58:	8b 85 20 f3 ff ff    	mov    -0xce0(%rbp),%eax
  405f5e:	48 98                	cltq   
  405f60:	48 c1 e0 04          	shl    $0x4,%rax
  405f64:	48 01 e8             	add    %rbp,%rax
  405f67:	48 2d 88 0c 00 00    	sub    $0xc88,%rax
  405f6d:	f3 0f 10 00          	movss  (%rax),%xmm0
  405f71:	f3 0f 58 c1          	addss  %xmm1,%xmm0
  405f75:	f3 0f 11 85 68 f3 ff 	movss  %xmm0,-0xc98(%rbp)
  405f7c:	ff 
  405f7d:	f3 0f 10 8d 6c f3 ff 	movss  -0xc94(%rbp),%xmm1
  405f84:	ff 
  405f85:	8b 85 20 f3 ff ff    	mov    -0xce0(%rbp),%eax
  405f8b:	48 98                	cltq   
  405f8d:	48 c1 e0 04          	shl    $0x4,%rax
  405f91:	48 01 e8             	add    %rbp,%rax
  405f94:	48 2d 84 0c 00 00    	sub    $0xc84,%rax
  405f9a:	f3 0f 10 00          	movss  (%rax),%xmm0
  405f9e:	f3 0f 58 c1          	addss  %xmm1,%xmm0
  405fa2:	f3 0f 11 85 6c f3 ff 	movss  %xmm0,-0xc94(%rbp)
  405fa9:	ff 
  405faa:	83 85 20 f3 ff ff 01 	addl   $0x1,-0xce0(%rbp)
  405fb1:	f3 0f 10 8d 60 f3 ff 	movss  -0xca0(%rbp),%xmm1
  405fb8:	ff 
  405fb9:	8b 85 20 f3 ff ff    	mov    -0xce0(%rbp),%eax
  405fbf:	48 98                	cltq   
  405fc1:	48 c1 e0 04          	shl    $0x4,%rax
  405fc5:	48 01 e8             	add    %rbp,%rax
  405fc8:	48 2d 90 0c 00 00    	sub    $0xc90,%rax
  405fce:	f3 0f 10 00          	movss  (%rax),%xmm0
  405fd2:	f3 0f 58 c1          	addss  %xmm1,%xmm0
  405fd6:	f3 0f 11 85 60 f3 ff 	movss  %xmm0,-0xca0(%rbp)
  405fdd:	ff 
  405fde:	f3 0f 10 8d 64 f3 ff 	movss  -0xc9c(%rbp),%xmm1
  405fe5:	ff 
  405fe6:	8b 85 20 f3 ff ff    	mov    -0xce0(%rbp),%eax
  405fec:	48 98                	cltq   
  405fee:	48 c1 e0 04          	shl    $0x4,%rax
  405ff2:	48 01 e8             	add    %rbp,%rax
  405ff5:	48 2d 8c 0c 00 00    	sub    $0xc8c,%rax
  405ffb:	f3 0f 10 00          	movss  (%rax),%xmm0
  405fff:	f3 0f 58 c1          	addss  %xmm1,%xmm0
  406003:	f3 0f 11 85 64 f3 ff 	movss  %xmm0,-0xc9c(%rbp)
  40600a:	ff 
  40600b:	f3 0f 10 8d 68 f3 ff 	movss  -0xc98(%rbp),%xmm1
  406012:	ff 
  406013:	8b 85 20 f3 ff ff    	mov    -0xce0(%rbp),%eax
  406019:	48 98                	cltq   
  40601b:	48 c1 e0 04          	shl    $0x4,%rax
  40601f:	48 01 e8             	add    %rbp,%rax
  406022:	48 2d 88 0c 00 00    	sub    $0xc88,%rax
  406028:	f3 0f 10 00          	movss  (%rax),%xmm0
  40602c:	f3 0f 58 c1          	addss  %xmm1,%xmm0
  406030:	f3 0f 11 85 68 f3 ff 	movss  %xmm0,-0xc98(%rbp)
  406037:	ff 
  406038:	f3 0f 10 8d 6c f3 ff 	movss  -0xc94(%rbp),%xmm1
  40603f:	ff 
  406040:	8b 85 20 f3 ff ff    	mov    -0xce0(%rbp),%eax
  406046:	48 98                	cltq   
  406048:	48 c1 e0 04          	shl    $0x4,%rax
  40604c:	48 01 e8             	add    %rbp,%rax
  40604f:	48 2d 84 0c 00 00    	sub    $0xc84,%rax
  406055:	f3 0f 10 00          	movss  (%rax),%xmm0
  406059:	f3 0f 58 c1          	addss  %xmm1,%xmm0
  40605d:	f3 0f 11 85 6c f3 ff 	movss  %xmm0,-0xc94(%rbp)
  406064:	ff 
  406065:	83 85 20 f3 ff ff 01 	addl   $0x1,-0xce0(%rbp)
  40606c:	f3 0f 10 8d 60 f3 ff 	movss  -0xca0(%rbp),%xmm1
  406073:	ff 
  406074:	8b 85 20 f3 ff ff    	mov    -0xce0(%rbp),%eax
  40607a:	48 98                	cltq   
  40607c:	48 c1 e0 04          	shl    $0x4,%rax
  406080:	48 01 e8             	add    %rbp,%rax
  406083:	48 2d 90 0c 00 00    	sub    $0xc90,%rax
  406089:	f3 0f 10 00          	movss  (%rax),%xmm0
  40608d:	f3 0f 58 c1          	addss  %xmm1,%xmm0
  406091:	f3 0f 11 85 60 f3 ff 	movss  %xmm0,-0xca0(%rbp)
  406098:	ff 
  406099:	f3 0f 10 8d 64 f3 ff 	movss  -0xc9c(%rbp),%xmm1
  4060a0:	ff 
  4060a1:	8b 85 20 f3 ff ff    	mov    -0xce0(%rbp),%eax
  4060a7:	48 98                	cltq   
  4060a9:	48 c1 e0 04          	shl    $0x4,%rax
  4060ad:	48 01 e8             	add    %rbp,%rax
  4060b0:	48 2d 8c 0c 00 00    	sub    $0xc8c,%rax
  4060b6:	f3 0f 10 00          	movss  (%rax),%xmm0
  4060ba:	f3 0f 58 c1          	addss  %xmm1,%xmm0
  4060be:	f3 0f 11 85 64 f3 ff 	movss  %xmm0,-0xc9c(%rbp)
  4060c5:	ff 
  4060c6:	f3 0f 10 8d 68 f3 ff 	movss  -0xc98(%rbp),%xmm1
  4060cd:	ff 
  4060ce:	8b 85 20 f3 ff ff    	mov    -0xce0(%rbp),%eax
  4060d4:	48 98                	cltq   
  4060d6:	48 c1 e0 04          	shl    $0x4,%rax
  4060da:	48 01 e8             	add    %rbp,%rax
  4060dd:	48 2d 88 0c 00 00    	sub    $0xc88,%rax
  4060e3:	f3 0f 10 00          	movss  (%rax),%xmm0
  4060e7:	f3 0f 58 c1          	addss  %xmm1,%xmm0
  4060eb:	f3 0f 11 85 68 f3 ff 	movss  %xmm0,-0xc98(%rbp)
  4060f2:	ff 
  4060f3:	f3 0f 10 8d 6c f3 ff 	movss  -0xc94(%rbp),%xmm1
  4060fa:	ff 
  4060fb:	8b 85 20 f3 ff ff    	mov    -0xce0(%rbp),%eax
  406101:	48 98                	cltq   
  406103:	48 c1 e0 04          	shl    $0x4,%rax
  406107:	48 01 e8             	add    %rbp,%rax
  40610a:	48 2d 84 0c 00 00    	sub    $0xc84,%rax
  406110:	f3 0f 10 00          	movss  (%rax),%xmm0
  406114:	f3 0f 58 c1          	addss  %xmm1,%xmm0
  406118:	f3 0f 11 85 6c f3 ff 	movss  %xmm0,-0xc94(%rbp)
  40611f:	ff 
  406120:	83 85 20 f3 ff ff 01 	addl   $0x1,-0xce0(%rbp)
  406127:	f3 0f 10 8d 60 f3 ff 	movss  -0xca0(%rbp),%xmm1
  40612e:	ff 
  40612f:	8b 85 20 f3 ff ff    	mov    -0xce0(%rbp),%eax
  406135:	48 98                	cltq   
  406137:	48 c1 e0 04          	shl    $0x4,%rax
  40613b:	48 01 e8             	add    %rbp,%rax
  40613e:	48 2d 90 0c 00 00    	sub    $0xc90,%rax
  406144:	f3 0f 10 00          	movss  (%rax),%xmm0
  406148:	f3 0f 58 c1          	addss  %xmm1,%xmm0
  40614c:	f3 0f 11 85 60 f3 ff 	movss  %xmm0,-0xca0(%rbp)
  406153:	ff 
  406154:	f3 0f 10 8d 64 f3 ff 	movss  -0xc9c(%rbp),%xmm1
  40615b:	ff 
  40615c:	8b 85 20 f3 ff ff    	mov    -0xce0(%rbp),%eax
  406162:	48 98                	cltq   
  406164:	48 c1 e0 04          	shl    $0x4,%rax
  406168:	48 01 e8             	add    %rbp,%rax
  40616b:	48 2d 8c 0c 00 00    	sub    $0xc8c,%rax
  406171:	f3 0f 10 00          	movss  (%rax),%xmm0
  406175:	f3 0f 58 c1          	addss  %xmm1,%xmm0
  406179:	f3 0f 11 85 64 f3 ff 	movss  %xmm0,-0xc9c(%rbp)
  406180:	ff 
  406181:	f3 0f 10 8d 68 f3 ff 	movss  -0xc98(%rbp),%xmm1
  406188:	ff 
  406189:	8b 85 20 f3 ff ff    	mov    -0xce0(%rbp),%eax
  40618f:	48 98                	cltq   
  406191:	48 c1 e0 04          	shl    $0x4,%rax
  406195:	48 01 e8             	add    %rbp,%rax
  406198:	48 2d 88 0c 00 00    	sub    $0xc88,%rax
  40619e:	f3 0f 10 00          	movss  (%rax),%xmm0
  4061a2:	f3 0f 58 c1          	addss  %xmm1,%xmm0
  4061a6:	f3 0f 11 85 68 f3 ff 	movss  %xmm0,-0xc98(%rbp)
  4061ad:	ff 
  4061ae:	f3 0f 10 8d 6c f3 ff 	movss  -0xc94(%rbp),%xmm1
  4061b5:	ff 
  4061b6:	8b 85 20 f3 ff ff    	mov    -0xce0(%rbp),%eax
  4061bc:	48 98                	cltq   
  4061be:	48 c1 e0 04          	shl    $0x4,%rax
  4061c2:	48 01 e8             	add    %rbp,%rax
  4061c5:	48 2d 84 0c 00 00    	sub    $0xc84,%rax
  4061cb:	f3 0f 10 00          	movss  (%rax),%xmm0
  4061cf:	f3 0f 58 c1          	addss  %xmm1,%xmm0
  4061d3:	f3 0f 11 85 6c f3 ff 	movss  %xmm0,-0xc94(%rbp)
  4061da:	ff 
  4061db:	83 85 20 f3 ff ff 01 	addl   $0x1,-0xce0(%rbp)
  4061e2:	f3 0f 10 8d 60 f3 ff 	movss  -0xca0(%rbp),%xmm1
  4061e9:	ff 
  4061ea:	8b 85 20 f3 ff ff    	mov    -0xce0(%rbp),%eax
  4061f0:	48 98                	cltq   
  4061f2:	48 c1 e0 04          	shl    $0x4,%rax
  4061f6:	48 01 e8             	add    %rbp,%rax
  4061f9:	48 2d 90 0c 00 00    	sub    $0xc90,%rax
  4061ff:	f3 0f 10 00          	movss  (%rax),%xmm0
  406203:	f3 0f 58 c1          	addss  %xmm1,%xmm0
  406207:	f3 0f 11 85 60 f3 ff 	movss  %xmm0,-0xca0(%rbp)
  40620e:	ff 
  40620f:	f3 0f 10 8d 64 f3 ff 	movss  -0xc9c(%rbp),%xmm1
  406216:	ff 
  406217:	8b 85 20 f3 ff ff    	mov    -0xce0(%rbp),%eax
  40621d:	48 98                	cltq   
  40621f:	48 c1 e0 04          	shl    $0x4,%rax
  406223:	48 01 e8             	add    %rbp,%rax
  406226:	48 2d 8c 0c 00 00    	sub    $0xc8c,%rax
  40622c:	f3 0f 10 00          	movss  (%rax),%xmm0
  406230:	f3 0f 58 c1          	addss  %xmm1,%xmm0
  406234:	f3 0f 11 85 64 f3 ff 	movss  %xmm0,-0xc9c(%rbp)
  40623b:	ff 
  40623c:	f3 0f 10 8d 68 f3 ff 	movss  -0xc98(%rbp),%xmm1
  406243:	ff 
  406244:	8b 85 20 f3 ff ff    	mov    -0xce0(%rbp),%eax
  40624a:	48 98                	cltq   
  40624c:	48 c1 e0 04          	shl    $0x4,%rax
  406250:	48 01 e8             	add    %rbp,%rax
  406253:	48 2d 88 0c 00 00    	sub    $0xc88,%rax
  406259:	f3 0f 10 00          	movss  (%rax),%xmm0
  40625d:	f3 0f 58 c1          	addss  %xmm1,%xmm0
  406261:	f3 0f 11 85 68 f3 ff 	movss  %xmm0,-0xc98(%rbp)
  406268:	ff 
  406269:	f3 0f 10 8d 6c f3 ff 	movss  -0xc94(%rbp),%xmm1
  406270:	ff 
  406271:	8b 85 20 f3 ff ff    	mov    -0xce0(%rbp),%eax
  406277:	48 98                	cltq   
  406279:	48 c1 e0 04          	shl    $0x4,%rax
  40627d:	48 01 e8             	add    %rbp,%rax
  406280:	48 2d 84 0c 00 00    	sub    $0xc84,%rax
  406286:	f3 0f 10 00          	movss  (%rax),%xmm0
  40628a:	f3 0f 58 c1          	addss  %xmm1,%xmm0
  40628e:	f3 0f 11 85 6c f3 ff 	movss  %xmm0,-0xc94(%rbp)
  406295:	ff 
  406296:	83 85 20 f3 ff ff 01 	addl   $0x1,-0xce0(%rbp)
  40629d:	f3 0f 10 8d 60 f3 ff 	movss  -0xca0(%rbp),%xmm1
  4062a4:	ff 
  4062a5:	8b 85 20 f3 ff ff    	mov    -0xce0(%rbp),%eax
  4062ab:	48 98                	cltq   
  4062ad:	48 c1 e0 04          	shl    $0x4,%rax
  4062b1:	48 01 e8             	add    %rbp,%rax
  4062b4:	48 2d 90 0c 00 00    	sub    $0xc90,%rax
  4062ba:	f3 0f 10 00          	movss  (%rax),%xmm0
  4062be:	f3 0f 58 c1          	addss  %xmm1,%xmm0
  4062c2:	f3 0f 11 85 60 f3 ff 	movss  %xmm0,-0xca0(%rbp)
  4062c9:	ff 
  4062ca:	f3 0f 10 8d 64 f3 ff 	movss  -0xc9c(%rbp),%xmm1
  4062d1:	ff 
  4062d2:	8b 85 20 f3 ff ff    	mov    -0xce0(%rbp),%eax
  4062d8:	48 98                	cltq   
  4062da:	48 c1 e0 04          	shl    $0x4,%rax
  4062de:	48 01 e8             	add    %rbp,%rax
  4062e1:	48 2d 8c 0c 00 00    	sub    $0xc8c,%rax
  4062e7:	f3 0f 10 00          	movss  (%rax),%xmm0
  4062eb:	f3 0f 58 c1          	addss  %xmm1,%xmm0
  4062ef:	f3 0f 11 85 64 f3 ff 	movss  %xmm0,-0xc9c(%rbp)
  4062f6:	ff 
  4062f7:	f3 0f 10 8d 68 f3 ff 	movss  -0xc98(%rbp),%xmm1
  4062fe:	ff 
  4062ff:	8b 85 20 f3 ff ff    	mov    -0xce0(%rbp),%eax
  406305:	48 98                	cltq   
  406307:	48 c1 e0 04          	shl    $0x4,%rax
  40630b:	48 01 e8             	add    %rbp,%rax
  40630e:	48 2d 88 0c 00 00    	sub    $0xc88,%rax
  406314:	f3 0f 10 00          	movss  (%rax),%xmm0
  406318:	f3 0f 58 c1          	addss  %xmm1,%xmm0
  40631c:	f3 0f 11 85 68 f3 ff 	movss  %xmm0,-0xc98(%rbp)
  406323:	ff 
  406324:	f3 0f 10 8d 6c f3 ff 	movss  -0xc94(%rbp),%xmm1
  40632b:	ff 
  40632c:	8b 85 20 f3 ff ff    	mov    -0xce0(%rbp),%eax
  406332:	48 98                	cltq   
  406334:	48 c1 e0 04          	shl    $0x4,%rax
  406338:	48 01 e8             	add    %rbp,%rax
  40633b:	48 2d 84 0c 00 00    	sub    $0xc84,%rax
  406341:	f3 0f 10 00          	movss  (%rax),%xmm0
  406345:	f3 0f 58 c1          	addss  %xmm1,%xmm0
  406349:	f3 0f 11 85 6c f3 ff 	movss  %xmm0,-0xc94(%rbp)
  406350:	ff 
  406351:	83 85 20 f3 ff ff 01 	addl   $0x1,-0xce0(%rbp)
  406358:	f3 0f 10 8d 60 f3 ff 	movss  -0xca0(%rbp),%xmm1
  40635f:	ff 
  406360:	8b 85 20 f3 ff ff    	mov    -0xce0(%rbp),%eax
  406366:	48 98                	cltq   
  406368:	48 c1 e0 04          	shl    $0x4,%rax
  40636c:	48 01 e8             	add    %rbp,%rax
  40636f:	48 2d 90 0c 00 00    	sub    $0xc90,%rax
  406375:	f3 0f 10 00          	movss  (%rax),%xmm0
  406379:	f3 0f 58 c1          	addss  %xmm1,%xmm0
  40637d:	f3 0f 11 85 60 f3 ff 	movss  %xmm0,-0xca0(%rbp)
  406384:	ff 
  406385:	f3 0f 10 8d 64 f3 ff 	movss  -0xc9c(%rbp),%xmm1
  40638c:	ff 
  40638d:	8b 85 20 f3 ff ff    	mov    -0xce0(%rbp),%eax
  406393:	48 98                	cltq   
  406395:	48 c1 e0 04          	shl    $0x4,%rax
  406399:	48 01 e8             	add    %rbp,%rax
  40639c:	48 2d 8c 0c 00 00    	sub    $0xc8c,%rax
  4063a2:	f3 0f 10 00          	movss  (%rax),%xmm0
  4063a6:	f3 0f 58 c1          	addss  %xmm1,%xmm0
  4063aa:	f3 0f 11 85 64 f3 ff 	movss  %xmm0,-0xc9c(%rbp)
  4063b1:	ff 
  4063b2:	f3 0f 10 8d 68 f3 ff 	movss  -0xc98(%rbp),%xmm1
  4063b9:	ff 
  4063ba:	8b 85 20 f3 ff ff    	mov    -0xce0(%rbp),%eax
  4063c0:	48 98                	cltq   
  4063c2:	48 c1 e0 04          	shl    $0x4,%rax
  4063c6:	48 01 e8             	add    %rbp,%rax
  4063c9:	48 2d 88 0c 00 00    	sub    $0xc88,%rax
  4063cf:	f3 0f 10 00          	movss  (%rax),%xmm0
  4063d3:	f3 0f 58 c1          	addss  %xmm1,%xmm0
  4063d7:	f3 0f 11 85 68 f3 ff 	movss  %xmm0,-0xc98(%rbp)
  4063de:	ff 
  4063df:	f3 0f 10 8d 6c f3 ff 	movss  -0xc94(%rbp),%xmm1
  4063e6:	ff 
  4063e7:	8b 85 20 f3 ff ff    	mov    -0xce0(%rbp),%eax
  4063ed:	48 98                	cltq   
  4063ef:	48 c1 e0 04          	shl    $0x4,%rax
  4063f3:	48 01 e8             	add    %rbp,%rax
  4063f6:	48 2d 84 0c 00 00    	sub    $0xc84,%rax
  4063fc:	f3 0f 10 00          	movss  (%rax),%xmm0
  406400:	f3 0f 58 c1          	addss  %xmm1,%xmm0
  406404:	f3 0f 11 85 6c f3 ff 	movss  %xmm0,-0xc94(%rbp)
  40640b:	ff 
  40640c:	83 85 20 f3 ff ff 01 	addl   $0x1,-0xce0(%rbp)
  406413:	f3 0f 10 8d 60 f3 ff 	movss  -0xca0(%rbp),%xmm1
  40641a:	ff 
  40641b:	8b 85 20 f3 ff ff    	mov    -0xce0(%rbp),%eax
  406421:	48 98                	cltq   
  406423:	48 c1 e0 04          	shl    $0x4,%rax
  406427:	48 01 e8             	add    %rbp,%rax
  40642a:	48 2d 90 0c 00 00    	sub    $0xc90,%rax
  406430:	f3 0f 10 00          	movss  (%rax),%xmm0
  406434:	f3 0f 58 c1          	addss  %xmm1,%xmm0
  406438:	f3 0f 11 85 60 f3 ff 	movss  %xmm0,-0xca0(%rbp)
  40643f:	ff 
  406440:	f3 0f 10 8d 64 f3 ff 	movss  -0xc9c(%rbp),%xmm1
  406447:	ff 
  406448:	8b 85 20 f3 ff ff    	mov    -0xce0(%rbp),%eax
  40644e:	48 98                	cltq   
  406450:	48 c1 e0 04          	shl    $0x4,%rax
  406454:	48 01 e8             	add    %rbp,%rax
  406457:	48 2d 8c 0c 00 00    	sub    $0xc8c,%rax
  40645d:	f3 0f 10 00          	movss  (%rax),%xmm0
  406461:	f3 0f 58 c1          	addss  %xmm1,%xmm0
  406465:	f3 0f 11 85 64 f3 ff 	movss  %xmm0,-0xc9c(%rbp)
  40646c:	ff 
  40646d:	f3 0f 10 8d 68 f3 ff 	movss  -0xc98(%rbp),%xmm1
  406474:	ff 
  406475:	8b 85 20 f3 ff ff    	mov    -0xce0(%rbp),%eax
  40647b:	48 98                	cltq   
  40647d:	48 c1 e0 04          	shl    $0x4,%rax
  406481:	48 01 e8             	add    %rbp,%rax
  406484:	48 2d 88 0c 00 00    	sub    $0xc88,%rax
  40648a:	f3 0f 10 00          	movss  (%rax),%xmm0
  40648e:	f3 0f 58 c1          	addss  %xmm1,%xmm0
  406492:	f3 0f 11 85 68 f3 ff 	movss  %xmm0,-0xc98(%rbp)
  406499:	ff 
  40649a:	f3 0f 10 8d 6c f3 ff 	movss  -0xc94(%rbp),%xmm1
  4064a1:	ff 
  4064a2:	8b 85 20 f3 ff ff    	mov    -0xce0(%rbp),%eax
  4064a8:	48 98                	cltq   
  4064aa:	48 c1 e0 04          	shl    $0x4,%rax
  4064ae:	48 01 e8             	add    %rbp,%rax
  4064b1:	48 2d 84 0c 00 00    	sub    $0xc84,%rax
  4064b7:	f3 0f 10 00          	movss  (%rax),%xmm0
  4064bb:	f3 0f 58 c1          	addss  %xmm1,%xmm0
  4064bf:	f3 0f 11 85 6c f3 ff 	movss  %xmm0,-0xc94(%rbp)
  4064c6:	ff 
  4064c7:	83 85 20 f3 ff ff 01 	addl   $0x1,-0xce0(%rbp)
  4064ce:	f3 0f 10 85 1c f3 ff 	movss  -0xce4(%rbp),%xmm0
  4064d5:	ff 
  4064d6:	f3 0f 59 85 1c f3 ff 	mulss  -0xce4(%rbp),%xmm0
  4064dd:	ff 
  4064de:	f3 0f 11 85 1c f3 ff 	movss  %xmm0,-0xce4(%rbp)
  4064e5:	ff 
  4064e6:	83 85 38 f3 ff ff 01 	addl   $0x1,-0xcc8(%rbp)
  4064ed:	83 85 20 f3 ff ff 01 	addl   $0x1,-0xce0(%rbp)
  4064f4:	f3 0f 10 8d 60 f3 ff 	movss  -0xca0(%rbp),%xmm1
  4064fb:	ff 
  4064fc:	8b 85 20 f3 ff ff    	mov    -0xce0(%rbp),%eax
  406502:	48 98                	cltq   
  406504:	48 c1 e0 04          	shl    $0x4,%rax
  406508:	48 01 e8             	add    %rbp,%rax
  40650b:	48 2d 90 0c 00 00    	sub    $0xc90,%rax
  406511:	f3 0f 10 00          	movss  (%rax),%xmm0
  406515:	f3 0f 58 c1          	addss  %xmm1,%xmm0
  406519:	f3 0f 11 85 60 f3 ff 	movss  %xmm0,-0xca0(%rbp)
  406520:	ff 
  406521:	f3 0f 10 8d 64 f3 ff 	movss  -0xc9c(%rbp),%xmm1
  406528:	ff 
  406529:	8b 85 20 f3 ff ff    	mov    -0xce0(%rbp),%eax
  40652f:	48 98                	cltq   
  406531:	48 c1 e0 04          	shl    $0x4,%rax
  406535:	48 01 e8             	add    %rbp,%rax
  406538:	48 2d 8c 0c 00 00    	sub    $0xc8c,%rax
  40653e:	f3 0f 10 00          	movss  (%rax),%xmm0
  406542:	f3 0f 58 c1          	addss  %xmm1,%xmm0
  406546:	f3 0f 11 85 64 f3 ff 	movss  %xmm0,-0xc9c(%rbp)
  40654d:	ff 
  40654e:	f3 0f 10 8d 68 f3 ff 	movss  -0xc98(%rbp),%xmm1
  406555:	ff 
  406556:	8b 85 20 f3 ff ff    	mov    -0xce0(%rbp),%eax
  40655c:	48 98                	cltq   
  40655e:	48 c1 e0 04          	shl    $0x4,%rax
  406562:	48 01 e8             	add    %rbp,%rax
  406565:	48 2d 88 0c 00 00    	sub    $0xc88,%rax
  40656b:	f3 0f 10 00          	movss  (%rax),%xmm0
  40656f:	f3 0f 58 c1          	addss  %xmm1,%xmm0
  406573:	f3 0f 11 85 68 f3 ff 	movss  %xmm0,-0xc98(%rbp)
  40657a:	ff 
  40657b:	f3 0f 10 8d 6c f3 ff 	movss  -0xc94(%rbp),%xmm1
  406582:	ff 
  406583:	8b 85 20 f3 ff ff    	mov    -0xce0(%rbp),%eax
  406589:	48 98                	cltq   
  40658b:	48 c1 e0 04          	shl    $0x4,%rax
  40658f:	48 01 e8             	add    %rbp,%rax
  406592:	48 2d 84 0c 00 00    	sub    $0xc84,%rax
  406598:	f3 0f 10 00          	movss  (%rax),%xmm0
  40659c:	f3 0f 58 c1          	addss  %xmm1,%xmm0
  4065a0:	f3 0f 11 85 6c f3 ff 	movss  %xmm0,-0xc94(%rbp)
  4065a7:	ff 
  4065a8:	83 85 20 f3 ff ff 01 	addl   $0x1,-0xce0(%rbp)
  4065af:	f3 0f 10 8d 60 f3 ff 	movss  -0xca0(%rbp),%xmm1
  4065b6:	ff 
  4065b7:	8b 85 20 f3 ff ff    	mov    -0xce0(%rbp),%eax
  4065bd:	48 98                	cltq   
  4065bf:	48 c1 e0 04          	shl    $0x4,%rax
  4065c3:	48 01 e8             	add    %rbp,%rax
  4065c6:	48 2d 90 0c 00 00    	sub    $0xc90,%rax
  4065cc:	f3 0f 10 00          	movss  (%rax),%xmm0
  4065d0:	f3 0f 58 c1          	addss  %xmm1,%xmm0
  4065d4:	f3 0f 11 85 60 f3 ff 	movss  %xmm0,-0xca0(%rbp)
  4065db:	ff 
  4065dc:	f3 0f 10 8d 64 f3 ff 	movss  -0xc9c(%rbp),%xmm1
  4065e3:	ff 
  4065e4:	8b 85 20 f3 ff ff    	mov    -0xce0(%rbp),%eax
  4065ea:	48 98                	cltq   
  4065ec:	48 c1 e0 04          	shl    $0x4,%rax
  4065f0:	48 01 e8             	add    %rbp,%rax
  4065f3:	48 2d 8c 0c 00 00    	sub    $0xc8c,%rax
  4065f9:	f3 0f 10 00          	movss  (%rax),%xmm0
  4065fd:	f3 0f 58 c1          	addss  %xmm1,%xmm0
  406601:	f3 0f 11 85 64 f3 ff 	movss  %xmm0,-0xc9c(%rbp)
  406608:	ff 
  406609:	f3 0f 10 8d 68 f3 ff 	movss  -0xc98(%rbp),%xmm1
  406610:	ff 
  406611:	8b 85 20 f3 ff ff    	mov    -0xce0(%rbp),%eax
  406617:	48 98                	cltq   
  406619:	48 c1 e0 04          	shl    $0x4,%rax
  40661d:	48 01 e8             	add    %rbp,%rax
  406620:	48 2d 88 0c 00 00    	sub    $0xc88,%rax
  406626:	f3 0f 10 00          	movss  (%rax),%xmm0
  40662a:	f3 0f 58 c1          	addss  %xmm1,%xmm0
  40662e:	f3 0f 11 85 68 f3 ff 	movss  %xmm0,-0xc98(%rbp)
  406635:	ff 
  406636:	f3 0f 10 8d 6c f3 ff 	movss  -0xc94(%rbp),%xmm1
  40663d:	ff 
  40663e:	8b 85 20 f3 ff ff    	mov    -0xce0(%rbp),%eax
  406644:	48 98                	cltq   
  406646:	48 c1 e0 04          	shl    $0x4,%rax
  40664a:	48 01 e8             	add    %rbp,%rax
  40664d:	48 2d 84 0c 00 00    	sub    $0xc84,%rax
  406653:	f3 0f 10 00          	movss  (%rax),%xmm0
  406657:	f3 0f 58 c1          	addss  %xmm1,%xmm0
  40665b:	f3 0f 11 85 6c f3 ff 	movss  %xmm0,-0xc94(%rbp)
  406662:	ff 
  406663:	83 85 20 f3 ff ff 01 	addl   $0x1,-0xce0(%rbp)
  40666a:	f3 0f 10 8d 60 f3 ff 	movss  -0xca0(%rbp),%xmm1
  406671:	ff 
  406672:	8b 85 20 f3 ff ff    	mov    -0xce0(%rbp),%eax
  406678:	48 98                	cltq   
  40667a:	48 c1 e0 04          	shl    $0x4,%rax
  40667e:	48 01 e8             	add    %rbp,%rax
  406681:	48 2d 90 0c 00 00    	sub    $0xc90,%rax
  406687:	f3 0f 10 00          	movss  (%rax),%xmm0
  40668b:	f3 0f 58 c1          	addss  %xmm1,%xmm0
  40668f:	f3 0f 11 85 60 f3 ff 	movss  %xmm0,-0xca0(%rbp)
  406696:	ff 
  406697:	f3 0f 10 8d 64 f3 ff 	movss  -0xc9c(%rbp),%xmm1
  40669e:	ff 
  40669f:	8b 85 20 f3 ff ff    	mov    -0xce0(%rbp),%eax
  4066a5:	48 98                	cltq   
  4066a7:	48 c1 e0 04          	shl    $0x4,%rax
  4066ab:	48 01 e8             	add    %rbp,%rax
  4066ae:	48 2d 8c 0c 00 00    	sub    $0xc8c,%rax
  4066b4:	f3 0f 10 00          	movss  (%rax),%xmm0
  4066b8:	f3 0f 58 c1          	addss  %xmm1,%xmm0
  4066bc:	f3 0f 11 85 64 f3 ff 	movss  %xmm0,-0xc9c(%rbp)
  4066c3:	ff 
  4066c4:	f3 0f 10 8d 68 f3 ff 	movss  -0xc98(%rbp),%xmm1
  4066cb:	ff 
  4066cc:	8b 85 20 f3 ff ff    	mov    -0xce0(%rbp),%eax
  4066d2:	48 98                	cltq   
  4066d4:	48 c1 e0 04          	shl    $0x4,%rax
  4066d8:	48 01 e8             	add    %rbp,%rax
  4066db:	48 2d 88 0c 00 00    	sub    $0xc88,%rax
  4066e1:	f3 0f 10 00          	movss  (%rax),%xmm0
  4066e5:	f3 0f 58 c1          	addss  %xmm1,%xmm0
  4066e9:	f3 0f 11 85 68 f3 ff 	movss  %xmm0,-0xc98(%rbp)
  4066f0:	ff 
  4066f1:	f3 0f 10 8d 6c f3 ff 	movss  -0xc94(%rbp),%xmm1
  4066f8:	ff 
  4066f9:	8b 85 20 f3 ff ff    	mov    -0xce0(%rbp),%eax
  4066ff:	48 98                	cltq   
  406701:	48 c1 e0 04          	shl    $0x4,%rax
  406705:	48 01 e8             	add    %rbp,%rax
  406708:	48 2d 84 0c 00 00    	sub    $0xc84,%rax
  40670e:	f3 0f 10 00          	movss  (%rax),%xmm0
  406712:	f3 0f 58 c1          	addss  %xmm1,%xmm0
  406716:	f3 0f 11 85 6c f3 ff 	movss  %xmm0,-0xc94(%rbp)
  40671d:	ff 
  40671e:	83 85 20 f3 ff ff 01 	addl   $0x1,-0xce0(%rbp)
  406725:	f3 0f 10 8d 60 f3 ff 	movss  -0xca0(%rbp),%xmm1
  40672c:	ff 
  40672d:	8b 85 20 f3 ff ff    	mov    -0xce0(%rbp),%eax
  406733:	48 98                	cltq   
  406735:	48 c1 e0 04          	shl    $0x4,%rax
  406739:	48 01 e8             	add    %rbp,%rax
  40673c:	48 2d 90 0c 00 00    	sub    $0xc90,%rax
  406742:	f3 0f 10 00          	movss  (%rax),%xmm0
  406746:	f3 0f 58 c1          	addss  %xmm1,%xmm0
  40674a:	f3 0f 11 85 60 f3 ff 	movss  %xmm0,-0xca0(%rbp)
  406751:	ff 
  406752:	f3 0f 10 8d 64 f3 ff 	movss  -0xc9c(%rbp),%xmm1
  406759:	ff 
  40675a:	8b 85 20 f3 ff ff    	mov    -0xce0(%rbp),%eax
  406760:	48 98                	cltq   
  406762:	48 c1 e0 04          	shl    $0x4,%rax
  406766:	48 01 e8             	add    %rbp,%rax
  406769:	48 2d 8c 0c 00 00    	sub    $0xc8c,%rax
  40676f:	f3 0f 10 00          	movss  (%rax),%xmm0
  406773:	f3 0f 58 c1          	addss  %xmm1,%xmm0
  406777:	f3 0f 11 85 64 f3 ff 	movss  %xmm0,-0xc9c(%rbp)
  40677e:	ff 
  40677f:	f3 0f 10 8d 68 f3 ff 	movss  -0xc98(%rbp),%xmm1
  406786:	ff 
  406787:	8b 85 20 f3 ff ff    	mov    -0xce0(%rbp),%eax
  40678d:	48 98                	cltq   
  40678f:	48 c1 e0 04          	shl    $0x4,%rax
  406793:	48 01 e8             	add    %rbp,%rax
  406796:	48 2d 88 0c 00 00    	sub    $0xc88,%rax
  40679c:	f3 0f 10 00          	movss  (%rax),%xmm0
  4067a0:	f3 0f 58 c1          	addss  %xmm1,%xmm0
  4067a4:	f3 0f 11 85 68 f3 ff 	movss  %xmm0,-0xc98(%rbp)
  4067ab:	ff 
  4067ac:	f3 0f 10 8d 6c f3 ff 	movss  -0xc94(%rbp),%xmm1
  4067b3:	ff 
  4067b4:	8b 85 20 f3 ff ff    	mov    -0xce0(%rbp),%eax
  4067ba:	48 98                	cltq   
  4067bc:	48 c1 e0 04          	shl    $0x4,%rax
  4067c0:	48 01 e8             	add    %rbp,%rax
  4067c3:	48 2d 84 0c 00 00    	sub    $0xc84,%rax
  4067c9:	f3 0f 10 00          	movss  (%rax),%xmm0
  4067cd:	f3 0f 58 c1          	addss  %xmm1,%xmm0
  4067d1:	f3 0f 11 85 6c f3 ff 	movss  %xmm0,-0xc94(%rbp)
  4067d8:	ff 
  4067d9:	83 85 20 f3 ff ff 01 	addl   $0x1,-0xce0(%rbp)
  4067e0:	f3 0f 10 8d 60 f3 ff 	movss  -0xca0(%rbp),%xmm1
  4067e7:	ff 
  4067e8:	8b 85 20 f3 ff ff    	mov    -0xce0(%rbp),%eax
  4067ee:	48 98                	cltq   
  4067f0:	48 c1 e0 04          	shl    $0x4,%rax
  4067f4:	48 01 e8             	add    %rbp,%rax
  4067f7:	48 2d 90 0c 00 00    	sub    $0xc90,%rax
  4067fd:	f3 0f 10 00          	movss  (%rax),%xmm0
  406801:	f3 0f 58 c1          	addss  %xmm1,%xmm0
  406805:	f3 0f 11 85 60 f3 ff 	movss  %xmm0,-0xca0(%rbp)
  40680c:	ff 
  40680d:	f3 0f 10 8d 64 f3 ff 	movss  -0xc9c(%rbp),%xmm1
  406814:	ff 
  406815:	8b 85 20 f3 ff ff    	mov    -0xce0(%rbp),%eax
  40681b:	48 98                	cltq   
  40681d:	48 c1 e0 04          	shl    $0x4,%rax
  406821:	48 01 e8             	add    %rbp,%rax
  406824:	48 2d 8c 0c 00 00    	sub    $0xc8c,%rax
  40682a:	f3 0f 10 00          	movss  (%rax),%xmm0
  40682e:	f3 0f 58 c1          	addss  %xmm1,%xmm0
  406832:	f3 0f 11 85 64 f3 ff 	movss  %xmm0,-0xc9c(%rbp)
  406839:	ff 
  40683a:	f3 0f 10 8d 68 f3 ff 	movss  -0xc98(%rbp),%xmm1
  406841:	ff 
  406842:	8b 85 20 f3 ff ff    	mov    -0xce0(%rbp),%eax
  406848:	48 98                	cltq   
  40684a:	48 c1 e0 04          	shl    $0x4,%rax
  40684e:	48 01 e8             	add    %rbp,%rax
  406851:	48 2d 88 0c 00 00    	sub    $0xc88,%rax
  406857:	f3 0f 10 00          	movss  (%rax),%xmm0
  40685b:	f3 0f 58 c1          	addss  %xmm1,%xmm0
  40685f:	f3 0f 11 85 68 f3 ff 	movss  %xmm0,-0xc98(%rbp)
  406866:	ff 
  406867:	f3 0f 10 8d 6c f3 ff 	movss  -0xc94(%rbp),%xmm1
  40686e:	ff 
  40686f:	8b 85 20 f3 ff ff    	mov    -0xce0(%rbp),%eax
  406875:	48 98                	cltq   
  406877:	48 c1 e0 04          	shl    $0x4,%rax
  40687b:	48 01 e8             	add    %rbp,%rax
  40687e:	48 2d 84 0c 00 00    	sub    $0xc84,%rax
  406884:	f3 0f 10 00          	movss  (%rax),%xmm0
  406888:	f3 0f 58 c1          	addss  %xmm1,%xmm0
  40688c:	f3 0f 11 85 6c f3 ff 	movss  %xmm0,-0xc94(%rbp)
  406893:	ff 
  406894:	83 85 20 f3 ff ff 01 	addl   $0x1,-0xce0(%rbp)
  40689b:	f3 0f 10 8d 60 f3 ff 	movss  -0xca0(%rbp),%xmm1
  4068a2:	ff 
  4068a3:	8b 85 20 f3 ff ff    	mov    -0xce0(%rbp),%eax
  4068a9:	48 98                	cltq   
  4068ab:	48 c1 e0 04          	shl    $0x4,%rax
  4068af:	48 01 e8             	add    %rbp,%rax
  4068b2:	48 2d 90 0c 00 00    	sub    $0xc90,%rax
  4068b8:	f3 0f 10 00          	movss  (%rax),%xmm0
  4068bc:	f3 0f 58 c1          	addss  %xmm1,%xmm0
  4068c0:	f3 0f 11 85 60 f3 ff 	movss  %xmm0,-0xca0(%rbp)
  4068c7:	ff 
  4068c8:	f3 0f 10 8d 64 f3 ff 	movss  -0xc9c(%rbp),%xmm1
  4068cf:	ff 
  4068d0:	8b 85 20 f3 ff ff    	mov    -0xce0(%rbp),%eax
  4068d6:	48 98                	cltq   
  4068d8:	48 c1 e0 04          	shl    $0x4,%rax
  4068dc:	48 01 e8             	add    %rbp,%rax
  4068df:	48 2d 8c 0c 00 00    	sub    $0xc8c,%rax
  4068e5:	f3 0f 10 00          	movss  (%rax),%xmm0
  4068e9:	f3 0f 58 c1          	addss  %xmm1,%xmm0
  4068ed:	f3 0f 11 85 64 f3 ff 	movss  %xmm0,-0xc9c(%rbp)
  4068f4:	ff 
  4068f5:	f3 0f 10 8d 68 f3 ff 	movss  -0xc98(%rbp),%xmm1
  4068fc:	ff 
  4068fd:	8b 85 20 f3 ff ff    	mov    -0xce0(%rbp),%eax
  406903:	48 98                	cltq   
  406905:	48 c1 e0 04          	shl    $0x4,%rax
  406909:	48 01 e8             	add    %rbp,%rax
  40690c:	48 2d 88 0c 00 00    	sub    $0xc88,%rax
  406912:	f3 0f 10 00          	movss  (%rax),%xmm0
  406916:	f3 0f 58 c1          	addss  %xmm1,%xmm0
  40691a:	f3 0f 11 85 68 f3 ff 	movss  %xmm0,-0xc98(%rbp)
  406921:	ff 
  406922:	f3 0f 10 8d 6c f3 ff 	movss  -0xc94(%rbp),%xmm1
  406929:	ff 
  40692a:	8b 85 20 f3 ff ff    	mov    -0xce0(%rbp),%eax
  406930:	48 98                	cltq   
  406932:	48 c1 e0 04          	shl    $0x4,%rax
  406936:	48 01 e8             	add    %rbp,%rax
  406939:	48 2d 84 0c 00 00    	sub    $0xc84,%rax
  40693f:	f3 0f 10 00          	movss  (%rax),%xmm0
  406943:	f3 0f 58 c1          	addss  %xmm1,%xmm0
  406947:	f3 0f 11 85 6c f3 ff 	movss  %xmm0,-0xc94(%rbp)
  40694e:	ff 
  40694f:	83 85 20 f3 ff ff 01 	addl   $0x1,-0xce0(%rbp)
  406956:	f3 0f 10 8d 60 f3 ff 	movss  -0xca0(%rbp),%xmm1
  40695d:	ff 
  40695e:	8b 85 20 f3 ff ff    	mov    -0xce0(%rbp),%eax
  406964:	48 98                	cltq   
  406966:	48 c1 e0 04          	shl    $0x4,%rax
  40696a:	48 01 e8             	add    %rbp,%rax
  40696d:	48 2d 90 0c 00 00    	sub    $0xc90,%rax
  406973:	f3 0f 10 00          	movss  (%rax),%xmm0
  406977:	f3 0f 58 c1          	addss  %xmm1,%xmm0
  40697b:	f3 0f 11 85 60 f3 ff 	movss  %xmm0,-0xca0(%rbp)
  406982:	ff 
  406983:	f3 0f 10 8d 64 f3 ff 	movss  -0xc9c(%rbp),%xmm1
  40698a:	ff 
  40698b:	8b 85 20 f3 ff ff    	mov    -0xce0(%rbp),%eax
  406991:	48 98                	cltq   
  406993:	48 c1 e0 04          	shl    $0x4,%rax
  406997:	48 01 e8             	add    %rbp,%rax
  40699a:	48 2d 8c 0c 00 00    	sub    $0xc8c,%rax
  4069a0:	f3 0f 10 00          	movss  (%rax),%xmm0
  4069a4:	f3 0f 58 c1          	addss  %xmm1,%xmm0
  4069a8:	f3 0f 11 85 64 f3 ff 	movss  %xmm0,-0xc9c(%rbp)
  4069af:	ff 
  4069b0:	f3 0f 10 8d 68 f3 ff 	movss  -0xc98(%rbp),%xmm1
  4069b7:	ff 
  4069b8:	8b 85 20 f3 ff ff    	mov    -0xce0(%rbp),%eax
  4069be:	48 98                	cltq   
  4069c0:	48 c1 e0 04          	shl    $0x4,%rax
  4069c4:	48 01 e8             	add    %rbp,%rax
  4069c7:	48 2d 88 0c 00 00    	sub    $0xc88,%rax
  4069cd:	f3 0f 10 00          	movss  (%rax),%xmm0
  4069d1:	f3 0f 58 c1          	addss  %xmm1,%xmm0
  4069d5:	f3 0f 11 85 68 f3 ff 	movss  %xmm0,-0xc98(%rbp)
  4069dc:	ff 
  4069dd:	f3 0f 10 8d 6c f3 ff 	movss  -0xc94(%rbp),%xmm1
  4069e4:	ff 
  4069e5:	8b 85 20 f3 ff ff    	mov    -0xce0(%rbp),%eax
  4069eb:	48 98                	cltq   
  4069ed:	48 c1 e0 04          	shl    $0x4,%rax
  4069f1:	48 01 e8             	add    %rbp,%rax
  4069f4:	48 2d 84 0c 00 00    	sub    $0xc84,%rax
  4069fa:	f3 0f 10 00          	movss  (%rax),%xmm0
  4069fe:	f3 0f 58 c1          	addss  %xmm1,%xmm0
  406a02:	f3 0f 11 85 6c f3 ff 	movss  %xmm0,-0xc94(%rbp)
  406a09:	ff 
  406a0a:	83 85 20 f3 ff ff 01 	addl   $0x1,-0xce0(%rbp)
  406a11:	f3 0f 10 8d 60 f3 ff 	movss  -0xca0(%rbp),%xmm1
  406a18:	ff 
  406a19:	8b 85 20 f3 ff ff    	mov    -0xce0(%rbp),%eax
  406a1f:	48 98                	cltq   
  406a21:	48 c1 e0 04          	shl    $0x4,%rax
  406a25:	48 01 e8             	add    %rbp,%rax
  406a28:	48 2d 90 0c 00 00    	sub    $0xc90,%rax
  406a2e:	f3 0f 10 00          	movss  (%rax),%xmm0
  406a32:	f3 0f 58 c1          	addss  %xmm1,%xmm0
  406a36:	f3 0f 11 85 60 f3 ff 	movss  %xmm0,-0xca0(%rbp)
  406a3d:	ff 
  406a3e:	f3 0f 10 8d 64 f3 ff 	movss  -0xc9c(%rbp),%xmm1
  406a45:	ff 
  406a46:	8b 85 20 f3 ff ff    	mov    -0xce0(%rbp),%eax
  406a4c:	48 98                	cltq   
  406a4e:	48 c1 e0 04          	shl    $0x4,%rax
  406a52:	48 01 e8             	add    %rbp,%rax
  406a55:	48 2d 8c 0c 00 00    	sub    $0xc8c,%rax
  406a5b:	f3 0f 10 00          	movss  (%rax),%xmm0
  406a5f:	f3 0f 58 c1          	addss  %xmm1,%xmm0
  406a63:	f3 0f 11 85 64 f3 ff 	movss  %xmm0,-0xc9c(%rbp)
  406a6a:	ff 
  406a6b:	f3 0f 10 8d 68 f3 ff 	movss  -0xc98(%rbp),%xmm1
  406a72:	ff 
  406a73:	8b 85 20 f3 ff ff    	mov    -0xce0(%rbp),%eax
  406a79:	48 98                	cltq   
  406a7b:	48 c1 e0 04          	shl    $0x4,%rax
  406a7f:	48 01 e8             	add    %rbp,%rax
  406a82:	48 2d 88 0c 00 00    	sub    $0xc88,%rax
  406a88:	f3 0f 10 00          	movss  (%rax),%xmm0
  406a8c:	f3 0f 58 c1          	addss  %xmm1,%xmm0
  406a90:	f3 0f 11 85 68 f3 ff 	movss  %xmm0,-0xc98(%rbp)
  406a97:	ff 
  406a98:	f3 0f 10 8d 6c f3 ff 	movss  -0xc94(%rbp),%xmm1
  406a9f:	ff 
  406aa0:	8b 85 20 f3 ff ff    	mov    -0xce0(%rbp),%eax
  406aa6:	48 98                	cltq   
  406aa8:	48 c1 e0 04          	shl    $0x4,%rax
  406aac:	48 01 e8             	add    %rbp,%rax
  406aaf:	48 2d 84 0c 00 00    	sub    $0xc84,%rax
  406ab5:	f3 0f 10 00          	movss  (%rax),%xmm0
  406ab9:	f3 0f 58 c1          	addss  %xmm1,%xmm0
  406abd:	f3 0f 11 85 6c f3 ff 	movss  %xmm0,-0xc94(%rbp)
  406ac4:	ff 
  406ac5:	83 85 20 f3 ff ff 01 	addl   $0x1,-0xce0(%rbp)
  406acc:	f3 0f 10 8d 60 f3 ff 	movss  -0xca0(%rbp),%xmm1
  406ad3:	ff 
  406ad4:	8b 85 20 f3 ff ff    	mov    -0xce0(%rbp),%eax
  406ada:	48 98                	cltq   
  406adc:	48 c1 e0 04          	shl    $0x4,%rax
  406ae0:	48 01 e8             	add    %rbp,%rax
  406ae3:	48 2d 90 0c 00 00    	sub    $0xc90,%rax
  406ae9:	f3 0f 10 00          	movss  (%rax),%xmm0
  406aed:	f3 0f 58 c1          	addss  %xmm1,%xmm0
  406af1:	f3 0f 11 85 60 f3 ff 	movss  %xmm0,-0xca0(%rbp)
  406af8:	ff 
  406af9:	f3 0f 10 8d 64 f3 ff 	movss  -0xc9c(%rbp),%xmm1
  406b00:	ff 
  406b01:	8b 85 20 f3 ff ff    	mov    -0xce0(%rbp),%eax
  406b07:	48 98                	cltq   
  406b09:	48 c1 e0 04          	shl    $0x4,%rax
  406b0d:	48 01 e8             	add    %rbp,%rax
  406b10:	48 2d 8c 0c 00 00    	sub    $0xc8c,%rax
  406b16:	f3 0f 10 00          	movss  (%rax),%xmm0
  406b1a:	f3 0f 58 c1          	addss  %xmm1,%xmm0
  406b1e:	f3 0f 11 85 64 f3 ff 	movss  %xmm0,-0xc9c(%rbp)
  406b25:	ff 
  406b26:	f3 0f 10 8d 68 f3 ff 	movss  -0xc98(%rbp),%xmm1
  406b2d:	ff 
  406b2e:	8b 85 20 f3 ff ff    	mov    -0xce0(%rbp),%eax
  406b34:	48 98                	cltq   
  406b36:	48 c1 e0 04          	shl    $0x4,%rax
  406b3a:	48 01 e8             	add    %rbp,%rax
  406b3d:	48 2d 88 0c 00 00    	sub    $0xc88,%rax
  406b43:	f3 0f 10 00          	movss  (%rax),%xmm0
  406b47:	f3 0f 58 c1          	addss  %xmm1,%xmm0
  406b4b:	f3 0f 11 85 68 f3 ff 	movss  %xmm0,-0xc98(%rbp)
  406b52:	ff 
  406b53:	f3 0f 10 8d 6c f3 ff 	movss  -0xc94(%rbp),%xmm1
  406b5a:	ff 
  406b5b:	8b 85 20 f3 ff ff    	mov    -0xce0(%rbp),%eax
  406b61:	48 98                	cltq   
  406b63:	48 c1 e0 04          	shl    $0x4,%rax
  406b67:	48 01 e8             	add    %rbp,%rax
  406b6a:	48 2d 84 0c 00 00    	sub    $0xc84,%rax
  406b70:	f3 0f 10 00          	movss  (%rax),%xmm0
  406b74:	f3 0f 58 c1          	addss  %xmm1,%xmm0
  406b78:	f3 0f 11 85 6c f3 ff 	movss  %xmm0,-0xc94(%rbp)
  406b7f:	ff 
  406b80:	83 85 20 f3 ff ff 01 	addl   $0x1,-0xce0(%rbp)
  406b87:	f3 0f 10 8d 60 f3 ff 	movss  -0xca0(%rbp),%xmm1
  406b8e:	ff 
  406b8f:	8b 85 20 f3 ff ff    	mov    -0xce0(%rbp),%eax
  406b95:	48 98                	cltq   
  406b97:	48 c1 e0 04          	shl    $0x4,%rax
  406b9b:	48 01 e8             	add    %rbp,%rax
  406b9e:	48 2d 90 0c 00 00    	sub    $0xc90,%rax
  406ba4:	f3 0f 10 00          	movss  (%rax),%xmm0
  406ba8:	f3 0f 58 c1          	addss  %xmm1,%xmm0
  406bac:	f3 0f 11 85 60 f3 ff 	movss  %xmm0,-0xca0(%rbp)
  406bb3:	ff 
  406bb4:	f3 0f 10 8d 64 f3 ff 	movss  -0xc9c(%rbp),%xmm1
  406bbb:	ff 
  406bbc:	8b 85 20 f3 ff ff    	mov    -0xce0(%rbp),%eax
  406bc2:	48 98                	cltq   
  406bc4:	48 c1 e0 04          	shl    $0x4,%rax
  406bc8:	48 01 e8             	add    %rbp,%rax
  406bcb:	48 2d 8c 0c 00 00    	sub    $0xc8c,%rax
  406bd1:	f3 0f 10 00          	movss  (%rax),%xmm0
  406bd5:	f3 0f 58 c1          	addss  %xmm1,%xmm0
  406bd9:	f3 0f 11 85 64 f3 ff 	movss  %xmm0,-0xc9c(%rbp)
  406be0:	ff 
  406be1:	f3 0f 10 8d 68 f3 ff 	movss  -0xc98(%rbp),%xmm1
  406be8:	ff 
  406be9:	8b 85 20 f3 ff ff    	mov    -0xce0(%rbp),%eax
  406bef:	48 98                	cltq   
  406bf1:	48 c1 e0 04          	shl    $0x4,%rax
  406bf5:	48 01 e8             	add    %rbp,%rax
  406bf8:	48 2d 88 0c 00 00    	sub    $0xc88,%rax
  406bfe:	f3 0f 10 00          	movss  (%rax),%xmm0
  406c02:	f3 0f 58 c1          	addss  %xmm1,%xmm0
  406c06:	f3 0f 11 85 68 f3 ff 	movss  %xmm0,-0xc98(%rbp)
  406c0d:	ff 
  406c0e:	f3 0f 10 8d 6c f3 ff 	movss  -0xc94(%rbp),%xmm1
  406c15:	ff 
  406c16:	8b 85 20 f3 ff ff    	mov    -0xce0(%rbp),%eax
  406c1c:	48 98                	cltq   
  406c1e:	48 c1 e0 04          	shl    $0x4,%rax
  406c22:	48 01 e8             	add    %rbp,%rax
  406c25:	48 2d 84 0c 00 00    	sub    $0xc84,%rax
  406c2b:	f3 0f 10 00          	movss  (%rax),%xmm0
  406c2f:	f3 0f 58 c1          	addss  %xmm1,%xmm0
  406c33:	f3 0f 11 85 6c f3 ff 	movss  %xmm0,-0xc94(%rbp)
  406c3a:	ff 
  406c3b:	83 85 20 f3 ff ff 01 	addl   $0x1,-0xce0(%rbp)
  406c42:	f3 0f 10 8d 60 f3 ff 	movss  -0xca0(%rbp),%xmm1
  406c49:	ff 
  406c4a:	8b 85 20 f3 ff ff    	mov    -0xce0(%rbp),%eax
  406c50:	48 98                	cltq   
  406c52:	48 c1 e0 04          	shl    $0x4,%rax
  406c56:	48 01 e8             	add    %rbp,%rax
  406c59:	48 2d 90 0c 00 00    	sub    $0xc90,%rax
  406c5f:	f3 0f 10 00          	movss  (%rax),%xmm0
  406c63:	f3 0f 58 c1          	addss  %xmm1,%xmm0
  406c67:	f3 0f 11 85 60 f3 ff 	movss  %xmm0,-0xca0(%rbp)
  406c6e:	ff 
  406c6f:	f3 0f 10 8d 64 f3 ff 	movss  -0xc9c(%rbp),%xmm1
  406c76:	ff 
  406c77:	8b 85 20 f3 ff ff    	mov    -0xce0(%rbp),%eax
  406c7d:	48 98                	cltq   
  406c7f:	48 c1 e0 04          	shl    $0x4,%rax
  406c83:	48 01 e8             	add    %rbp,%rax
  406c86:	48 2d 8c 0c 00 00    	sub    $0xc8c,%rax
  406c8c:	f3 0f 10 00          	movss  (%rax),%xmm0
  406c90:	f3 0f 58 c1          	addss  %xmm1,%xmm0
  406c94:	f3 0f 11 85 64 f3 ff 	movss  %xmm0,-0xc9c(%rbp)
  406c9b:	ff 
  406c9c:	f3 0f 10 8d 68 f3 ff 	movss  -0xc98(%rbp),%xmm1
  406ca3:	ff 
  406ca4:	8b 85 20 f3 ff ff    	mov    -0xce0(%rbp),%eax
  406caa:	48 98                	cltq   
  406cac:	48 c1 e0 04          	shl    $0x4,%rax
  406cb0:	48 01 e8             	add    %rbp,%rax
  406cb3:	48 2d 88 0c 00 00    	sub    $0xc88,%rax
  406cb9:	f3 0f 10 00          	movss  (%rax),%xmm0
  406cbd:	f3 0f 58 c1          	addss  %xmm1,%xmm0
  406cc1:	f3 0f 11 85 68 f3 ff 	movss  %xmm0,-0xc98(%rbp)
  406cc8:	ff 
  406cc9:	f3 0f 10 8d 6c f3 ff 	movss  -0xc94(%rbp),%xmm1
  406cd0:	ff 
  406cd1:	8b 85 20 f3 ff ff    	mov    -0xce0(%rbp),%eax
  406cd7:	48 98                	cltq   
  406cd9:	48 c1 e0 04          	shl    $0x4,%rax
  406cdd:	48 01 e8             	add    %rbp,%rax
  406ce0:	48 2d 84 0c 00 00    	sub    $0xc84,%rax
  406ce6:	f3 0f 10 00          	movss  (%rax),%xmm0
  406cea:	f3 0f 58 c1          	addss  %xmm1,%xmm0
  406cee:	f3 0f 11 85 6c f3 ff 	movss  %xmm0,-0xc94(%rbp)
  406cf5:	ff 
  406cf6:	83 85 20 f3 ff ff 01 	addl   $0x1,-0xce0(%rbp)
  406cfd:	f3 0f 10 8d 60 f3 ff 	movss  -0xca0(%rbp),%xmm1
  406d04:	ff 
  406d05:	8b 85 20 f3 ff ff    	mov    -0xce0(%rbp),%eax
  406d0b:	48 98                	cltq   
  406d0d:	48 c1 e0 04          	shl    $0x4,%rax
  406d11:	48 01 e8             	add    %rbp,%rax
  406d14:	48 2d 90 0c 00 00    	sub    $0xc90,%rax
  406d1a:	f3 0f 10 00          	movss  (%rax),%xmm0
  406d1e:	f3 0f 58 c1          	addss  %xmm1,%xmm0
  406d22:	f3 0f 11 85 60 f3 ff 	movss  %xmm0,-0xca0(%rbp)
  406d29:	ff 
  406d2a:	f3 0f 10 8d 64 f3 ff 	movss  -0xc9c(%rbp),%xmm1
  406d31:	ff 
  406d32:	8b 85 20 f3 ff ff    	mov    -0xce0(%rbp),%eax
  406d38:	48 98                	cltq   
  406d3a:	48 c1 e0 04          	shl    $0x4,%rax
  406d3e:	48 01 e8             	add    %rbp,%rax
  406d41:	48 2d 8c 0c 00 00    	sub    $0xc8c,%rax
  406d47:	f3 0f 10 00          	movss  (%rax),%xmm0
  406d4b:	f3 0f 58 c1          	addss  %xmm1,%xmm0
  406d4f:	f3 0f 11 85 64 f3 ff 	movss  %xmm0,-0xc9c(%rbp)
  406d56:	ff 
  406d57:	f3 0f 10 8d 68 f3 ff 	movss  -0xc98(%rbp),%xmm1
  406d5e:	ff 
  406d5f:	8b 85 20 f3 ff ff    	mov    -0xce0(%rbp),%eax
  406d65:	48 98                	cltq   
  406d67:	48 c1 e0 04          	shl    $0x4,%rax
  406d6b:	48 01 e8             	add    %rbp,%rax
  406d6e:	48 2d 88 0c 00 00    	sub    $0xc88,%rax
  406d74:	f3 0f 10 00          	movss  (%rax),%xmm0
  406d78:	f3 0f 58 c1          	addss  %xmm1,%xmm0
  406d7c:	f3 0f 11 85 68 f3 ff 	movss  %xmm0,-0xc98(%rbp)
  406d83:	ff 
  406d84:	f3 0f 10 8d 6c f3 ff 	movss  -0xc94(%rbp),%xmm1
  406d8b:	ff 
  406d8c:	8b 85 20 f3 ff ff    	mov    -0xce0(%rbp),%eax
  406d92:	48 98                	cltq   
  406d94:	48 c1 e0 04          	shl    $0x4,%rax
  406d98:	48 01 e8             	add    %rbp,%rax
  406d9b:	48 2d 84 0c 00 00    	sub    $0xc84,%rax
  406da1:	f3 0f 10 00          	movss  (%rax),%xmm0
  406da5:	f3 0f 58 c1          	addss  %xmm1,%xmm0
  406da9:	f3 0f 11 85 6c f3 ff 	movss  %xmm0,-0xc94(%rbp)
  406db0:	ff 
  406db1:	83 85 20 f3 ff ff 01 	addl   $0x1,-0xce0(%rbp)
  406db8:	f3 0f 10 8d 60 f3 ff 	movss  -0xca0(%rbp),%xmm1
  406dbf:	ff 
  406dc0:	8b 85 20 f3 ff ff    	mov    -0xce0(%rbp),%eax
  406dc6:	48 98                	cltq   
  406dc8:	48 c1 e0 04          	shl    $0x4,%rax
  406dcc:	48 01 e8             	add    %rbp,%rax
  406dcf:	48 2d 90 0c 00 00    	sub    $0xc90,%rax
  406dd5:	f3 0f 10 00          	movss  (%rax),%xmm0
  406dd9:	f3 0f 58 c1          	addss  %xmm1,%xmm0
  406ddd:	f3 0f 11 85 60 f3 ff 	movss  %xmm0,-0xca0(%rbp)
  406de4:	ff 
  406de5:	f3 0f 10 8d 64 f3 ff 	movss  -0xc9c(%rbp),%xmm1
  406dec:	ff 
  406ded:	8b 85 20 f3 ff ff    	mov    -0xce0(%rbp),%eax
  406df3:	48 98                	cltq   
  406df5:	48 c1 e0 04          	shl    $0x4,%rax
  406df9:	48 01 e8             	add    %rbp,%rax
  406dfc:	48 2d 8c 0c 00 00    	sub    $0xc8c,%rax
  406e02:	f3 0f 10 00          	movss  (%rax),%xmm0
  406e06:	f3 0f 58 c1          	addss  %xmm1,%xmm0
  406e0a:	f3 0f 11 85 64 f3 ff 	movss  %xmm0,-0xc9c(%rbp)
  406e11:	ff 
  406e12:	f3 0f 10 8d 68 f3 ff 	movss  -0xc98(%rbp),%xmm1
  406e19:	ff 
  406e1a:	8b 85 20 f3 ff ff    	mov    -0xce0(%rbp),%eax
  406e20:	48 98                	cltq   
  406e22:	48 c1 e0 04          	shl    $0x4,%rax
  406e26:	48 01 e8             	add    %rbp,%rax
  406e29:	48 2d 88 0c 00 00    	sub    $0xc88,%rax
  406e2f:	f3 0f 10 00          	movss  (%rax),%xmm0
  406e33:	f3 0f 58 c1          	addss  %xmm1,%xmm0
  406e37:	f3 0f 11 85 68 f3 ff 	movss  %xmm0,-0xc98(%rbp)
  406e3e:	ff 
  406e3f:	f3 0f 10 8d 6c f3 ff 	movss  -0xc94(%rbp),%xmm1
  406e46:	ff 
  406e47:	8b 85 20 f3 ff ff    	mov    -0xce0(%rbp),%eax
  406e4d:	48 98                	cltq   
  406e4f:	48 c1 e0 04          	shl    $0x4,%rax
  406e53:	48 01 e8             	add    %rbp,%rax
  406e56:	48 2d 84 0c 00 00    	sub    $0xc84,%rax
  406e5c:	f3 0f 10 00          	movss  (%rax),%xmm0
  406e60:	f3 0f 58 c1          	addss  %xmm1,%xmm0
  406e64:	f3 0f 11 85 6c f3 ff 	movss  %xmm0,-0xc94(%rbp)
  406e6b:	ff 
  406e6c:	83 85 20 f3 ff ff 01 	addl   $0x1,-0xce0(%rbp)
  406e73:	f3 0f 10 8d 60 f3 ff 	movss  -0xca0(%rbp),%xmm1
  406e7a:	ff 
  406e7b:	8b 85 20 f3 ff ff    	mov    -0xce0(%rbp),%eax
  406e81:	48 98                	cltq   
  406e83:	48 c1 e0 04          	shl    $0x4,%rax
  406e87:	48 01 e8             	add    %rbp,%rax
  406e8a:	48 2d 90 0c 00 00    	sub    $0xc90,%rax
  406e90:	f3 0f 10 00          	movss  (%rax),%xmm0
  406e94:	f3 0f 58 c1          	addss  %xmm1,%xmm0
  406e98:	f3 0f 11 85 60 f3 ff 	movss  %xmm0,-0xca0(%rbp)
  406e9f:	ff 
  406ea0:	f3 0f 10 8d 64 f3 ff 	movss  -0xc9c(%rbp),%xmm1
  406ea7:	ff 
  406ea8:	8b 85 20 f3 ff ff    	mov    -0xce0(%rbp),%eax
  406eae:	48 98                	cltq   
  406eb0:	48 c1 e0 04          	shl    $0x4,%rax
  406eb4:	48 01 e8             	add    %rbp,%rax
  406eb7:	48 2d 8c 0c 00 00    	sub    $0xc8c,%rax
  406ebd:	f3 0f 10 00          	movss  (%rax),%xmm0
  406ec1:	f3 0f 58 c1          	addss  %xmm1,%xmm0
  406ec5:	f3 0f 11 85 64 f3 ff 	movss  %xmm0,-0xc9c(%rbp)
  406ecc:	ff 
  406ecd:	f3 0f 10 8d 68 f3 ff 	movss  -0xc98(%rbp),%xmm1
  406ed4:	ff 
  406ed5:	8b 85 20 f3 ff ff    	mov    -0xce0(%rbp),%eax
  406edb:	48 98                	cltq   
  406edd:	48 c1 e0 04          	shl    $0x4,%rax
  406ee1:	48 01 e8             	add    %rbp,%rax
  406ee4:	48 2d 88 0c 00 00    	sub    $0xc88,%rax
  406eea:	f3 0f 10 00          	movss  (%rax),%xmm0
  406eee:	f3 0f 58 c1          	addss  %xmm1,%xmm0
  406ef2:	f3 0f 11 85 68 f3 ff 	movss  %xmm0,-0xc98(%rbp)
  406ef9:	ff 
  406efa:	f3 0f 10 8d 6c f3 ff 	movss  -0xc94(%rbp),%xmm1
  406f01:	ff 
  406f02:	8b 85 20 f3 ff ff    	mov    -0xce0(%rbp),%eax
  406f08:	48 98                	cltq   
  406f0a:	48 c1 e0 04          	shl    $0x4,%rax
  406f0e:	48 01 e8             	add    %rbp,%rax
  406f11:	48 2d 84 0c 00 00    	sub    $0xc84,%rax
  406f17:	f3 0f 10 00          	movss  (%rax),%xmm0
  406f1b:	f3 0f 58 c1          	addss  %xmm1,%xmm0
  406f1f:	f3 0f 11 85 6c f3 ff 	movss  %xmm0,-0xc94(%rbp)
  406f26:	ff 
  406f27:	83 85 20 f3 ff ff 01 	addl   $0x1,-0xce0(%rbp)
  406f2e:	f3 0f 10 8d 60 f3 ff 	movss  -0xca0(%rbp),%xmm1
  406f35:	ff 
  406f36:	8b 85 20 f3 ff ff    	mov    -0xce0(%rbp),%eax
  406f3c:	48 98                	cltq   
  406f3e:	48 c1 e0 04          	shl    $0x4,%rax
  406f42:	48 01 e8             	add    %rbp,%rax
  406f45:	48 2d 90 0c 00 00    	sub    $0xc90,%rax
  406f4b:	f3 0f 10 00          	movss  (%rax),%xmm0
  406f4f:	f3 0f 58 c1          	addss  %xmm1,%xmm0
  406f53:	f3 0f 11 85 60 f3 ff 	movss  %xmm0,-0xca0(%rbp)
  406f5a:	ff 
  406f5b:	f3 0f 10 8d 64 f3 ff 	movss  -0xc9c(%rbp),%xmm1
  406f62:	ff 
  406f63:	8b 85 20 f3 ff ff    	mov    -0xce0(%rbp),%eax
  406f69:	48 98                	cltq   
  406f6b:	48 c1 e0 04          	shl    $0x4,%rax
  406f6f:	48 01 e8             	add    %rbp,%rax
  406f72:	48 2d 8c 0c 00 00    	sub    $0xc8c,%rax
  406f78:	f3 0f 10 00          	movss  (%rax),%xmm0
  406f7c:	f3 0f 58 c1          	addss  %xmm1,%xmm0
  406f80:	f3 0f 11 85 64 f3 ff 	movss  %xmm0,-0xc9c(%rbp)
  406f87:	ff 
  406f88:	f3 0f 10 8d 68 f3 ff 	movss  -0xc98(%rbp),%xmm1
  406f8f:	ff 
  406f90:	8b 85 20 f3 ff ff    	mov    -0xce0(%rbp),%eax
  406f96:	48 98                	cltq   
  406f98:	48 c1 e0 04          	shl    $0x4,%rax
  406f9c:	48 01 e8             	add    %rbp,%rax
  406f9f:	48 2d 88 0c 00 00    	sub    $0xc88,%rax
  406fa5:	f3 0f 10 00          	movss  (%rax),%xmm0
  406fa9:	f3 0f 58 c1          	addss  %xmm1,%xmm0
  406fad:	f3 0f 11 85 68 f3 ff 	movss  %xmm0,-0xc98(%rbp)
  406fb4:	ff 
  406fb5:	f3 0f 10 8d 6c f3 ff 	movss  -0xc94(%rbp),%xmm1
  406fbc:	ff 
  406fbd:	8b 85 20 f3 ff ff    	mov    -0xce0(%rbp),%eax
  406fc3:	48 98                	cltq   
  406fc5:	48 c1 e0 04          	shl    $0x4,%rax
  406fc9:	48 01 e8             	add    %rbp,%rax
  406fcc:	48 2d 84 0c 00 00    	sub    $0xc84,%rax
  406fd2:	f3 0f 10 00          	movss  (%rax),%xmm0
  406fd6:	f3 0f 58 c1          	addss  %xmm1,%xmm0
  406fda:	f3 0f 11 85 6c f3 ff 	movss  %xmm0,-0xc94(%rbp)
  406fe1:	ff 
  406fe2:	83 85 20 f3 ff ff 01 	addl   $0x1,-0xce0(%rbp)
  406fe9:	f3 0f 10 8d 60 f3 ff 	movss  -0xca0(%rbp),%xmm1
  406ff0:	ff 
  406ff1:	8b 85 20 f3 ff ff    	mov    -0xce0(%rbp),%eax
  406ff7:	48 98                	cltq   
  406ff9:	48 c1 e0 04          	shl    $0x4,%rax
  406ffd:	48 01 e8             	add    %rbp,%rax
  407000:	48 2d 90 0c 00 00    	sub    $0xc90,%rax
  407006:	f3 0f 10 00          	movss  (%rax),%xmm0
  40700a:	f3 0f 58 c1          	addss  %xmm1,%xmm0
  40700e:	f3 0f 11 85 60 f3 ff 	movss  %xmm0,-0xca0(%rbp)
  407015:	ff 
  407016:	f3 0f 10 8d 64 f3 ff 	movss  -0xc9c(%rbp),%xmm1
  40701d:	ff 
  40701e:	8b 85 20 f3 ff ff    	mov    -0xce0(%rbp),%eax
  407024:	48 98                	cltq   
  407026:	48 c1 e0 04          	shl    $0x4,%rax
  40702a:	48 01 e8             	add    %rbp,%rax
  40702d:	48 2d 8c 0c 00 00    	sub    $0xc8c,%rax
  407033:	f3 0f 10 00          	movss  (%rax),%xmm0
  407037:	f3 0f 58 c1          	addss  %xmm1,%xmm0
  40703b:	f3 0f 11 85 64 f3 ff 	movss  %xmm0,-0xc9c(%rbp)
  407042:	ff 
  407043:	f3 0f 10 8d 68 f3 ff 	movss  -0xc98(%rbp),%xmm1
  40704a:	ff 
  40704b:	8b 85 20 f3 ff ff    	mov    -0xce0(%rbp),%eax
  407051:	48 98                	cltq   
  407053:	48 c1 e0 04          	shl    $0x4,%rax
  407057:	48 01 e8             	add    %rbp,%rax
  40705a:	48 2d 88 0c 00 00    	sub    $0xc88,%rax
  407060:	f3 0f 10 00          	movss  (%rax),%xmm0
  407064:	f3 0f 58 c1          	addss  %xmm1,%xmm0
  407068:	f3 0f 11 85 68 f3 ff 	movss  %xmm0,-0xc98(%rbp)
  40706f:	ff 
  407070:	f3 0f 10 8d 6c f3 ff 	movss  -0xc94(%rbp),%xmm1
  407077:	ff 
  407078:	8b 85 20 f3 ff ff    	mov    -0xce0(%rbp),%eax
  40707e:	48 98                	cltq   
  407080:	48 c1 e0 04          	shl    $0x4,%rax
  407084:	48 01 e8             	add    %rbp,%rax
  407087:	48 2d 84 0c 00 00    	sub    $0xc84,%rax
  40708d:	f3 0f 10 00          	movss  (%rax),%xmm0
  407091:	f3 0f 58 c1          	addss  %xmm1,%xmm0
  407095:	f3 0f 11 85 6c f3 ff 	movss  %xmm0,-0xc94(%rbp)
  40709c:	ff 
  40709d:	83 85 20 f3 ff ff 01 	addl   $0x1,-0xce0(%rbp)
  4070a4:	f3 0f 10 8d 60 f3 ff 	movss  -0xca0(%rbp),%xmm1
  4070ab:	ff 
  4070ac:	8b 85 20 f3 ff ff    	mov    -0xce0(%rbp),%eax
  4070b2:	48 98                	cltq   
  4070b4:	48 c1 e0 04          	shl    $0x4,%rax
  4070b8:	48 01 e8             	add    %rbp,%rax
  4070bb:	48 2d 90 0c 00 00    	sub    $0xc90,%rax
  4070c1:	f3 0f 10 00          	movss  (%rax),%xmm0
  4070c5:	f3 0f 58 c1          	addss  %xmm1,%xmm0
  4070c9:	f3 0f 11 85 60 f3 ff 	movss  %xmm0,-0xca0(%rbp)
  4070d0:	ff 
  4070d1:	f3 0f 10 8d 64 f3 ff 	movss  -0xc9c(%rbp),%xmm1
  4070d8:	ff 
  4070d9:	8b 85 20 f3 ff ff    	mov    -0xce0(%rbp),%eax
  4070df:	48 98                	cltq   
  4070e1:	48 c1 e0 04          	shl    $0x4,%rax
  4070e5:	48 01 e8             	add    %rbp,%rax
  4070e8:	48 2d 8c 0c 00 00    	sub    $0xc8c,%rax
  4070ee:	f3 0f 10 00          	movss  (%rax),%xmm0
  4070f2:	f3 0f 58 c1          	addss  %xmm1,%xmm0
  4070f6:	f3 0f 11 85 64 f3 ff 	movss  %xmm0,-0xc9c(%rbp)
  4070fd:	ff 
  4070fe:	f3 0f 10 8d 68 f3 ff 	movss  -0xc98(%rbp),%xmm1
  407105:	ff 
  407106:	8b 85 20 f3 ff ff    	mov    -0xce0(%rbp),%eax
  40710c:	48 98                	cltq   
  40710e:	48 c1 e0 04          	shl    $0x4,%rax
  407112:	48 01 e8             	add    %rbp,%rax
  407115:	48 2d 88 0c 00 00    	sub    $0xc88,%rax
  40711b:	f3 0f 10 00          	movss  (%rax),%xmm0
  40711f:	f3 0f 58 c1          	addss  %xmm1,%xmm0
  407123:	f3 0f 11 85 68 f3 ff 	movss  %xmm0,-0xc98(%rbp)
  40712a:	ff 
  40712b:	f3 0f 10 8d 6c f3 ff 	movss  -0xc94(%rbp),%xmm1
  407132:	ff 
  407133:	8b 85 20 f3 ff ff    	mov    -0xce0(%rbp),%eax
  407139:	48 98                	cltq   
  40713b:	48 c1 e0 04          	shl    $0x4,%rax
  40713f:	48 01 e8             	add    %rbp,%rax
  407142:	48 2d 84 0c 00 00    	sub    $0xc84,%rax
  407148:	f3 0f 10 00          	movss  (%rax),%xmm0
  40714c:	f3 0f 58 c1          	addss  %xmm1,%xmm0
  407150:	f3 0f 11 85 6c f3 ff 	movss  %xmm0,-0xc94(%rbp)
  407157:	ff 
  407158:	83 85 20 f3 ff ff 01 	addl   $0x1,-0xce0(%rbp)
  40715f:	f3 0f 10 8d 60 f3 ff 	movss  -0xca0(%rbp),%xmm1
  407166:	ff 
  407167:	8b 85 20 f3 ff ff    	mov    -0xce0(%rbp),%eax
  40716d:	48 98                	cltq   
  40716f:	48 c1 e0 04          	shl    $0x4,%rax
  407173:	48 01 e8             	add    %rbp,%rax
  407176:	48 2d 90 0c 00 00    	sub    $0xc90,%rax
  40717c:	f3 0f 10 00          	movss  (%rax),%xmm0
  407180:	f3 0f 58 c1          	addss  %xmm1,%xmm0
  407184:	f3 0f 11 85 60 f3 ff 	movss  %xmm0,-0xca0(%rbp)
  40718b:	ff 
  40718c:	f3 0f 10 8d 64 f3 ff 	movss  -0xc9c(%rbp),%xmm1
  407193:	ff 
  407194:	8b 85 20 f3 ff ff    	mov    -0xce0(%rbp),%eax
  40719a:	48 98                	cltq   
  40719c:	48 c1 e0 04          	shl    $0x4,%rax
  4071a0:	48 01 e8             	add    %rbp,%rax
  4071a3:	48 2d 8c 0c 00 00    	sub    $0xc8c,%rax
  4071a9:	f3 0f 10 00          	movss  (%rax),%xmm0
  4071ad:	f3 0f 58 c1          	addss  %xmm1,%xmm0
  4071b1:	f3 0f 11 85 64 f3 ff 	movss  %xmm0,-0xc9c(%rbp)
  4071b8:	ff 
  4071b9:	f3 0f 10 8d 68 f3 ff 	movss  -0xc98(%rbp),%xmm1
  4071c0:	ff 
  4071c1:	8b 85 20 f3 ff ff    	mov    -0xce0(%rbp),%eax
  4071c7:	48 98                	cltq   
  4071c9:	48 c1 e0 04          	shl    $0x4,%rax
  4071cd:	48 01 e8             	add    %rbp,%rax
  4071d0:	48 2d 88 0c 00 00    	sub    $0xc88,%rax
  4071d6:	f3 0f 10 00          	movss  (%rax),%xmm0
  4071da:	f3 0f 58 c1          	addss  %xmm1,%xmm0
  4071de:	f3 0f 11 85 68 f3 ff 	movss  %xmm0,-0xc98(%rbp)
  4071e5:	ff 
  4071e6:	f3 0f 10 8d 6c f3 ff 	movss  -0xc94(%rbp),%xmm1
  4071ed:	ff 
  4071ee:	8b 85 20 f3 ff ff    	mov    -0xce0(%rbp),%eax
  4071f4:	48 98                	cltq   
  4071f6:	48 c1 e0 04          	shl    $0x4,%rax
  4071fa:	48 01 e8             	add    %rbp,%rax
  4071fd:	48 2d 84 0c 00 00    	sub    $0xc84,%rax
  407203:	f3 0f 10 00          	movss  (%rax),%xmm0
  407207:	f3 0f 58 c1          	addss  %xmm1,%xmm0
  40720b:	f3 0f 11 85 6c f3 ff 	movss  %xmm0,-0xc94(%rbp)
  407212:	ff 
  407213:	83 85 20 f3 ff ff 01 	addl   $0x1,-0xce0(%rbp)
  40721a:	f3 0f 10 8d 60 f3 ff 	movss  -0xca0(%rbp),%xmm1
  407221:	ff 
  407222:	8b 85 20 f3 ff ff    	mov    -0xce0(%rbp),%eax
  407228:	48 98                	cltq   
  40722a:	48 c1 e0 04          	shl    $0x4,%rax
  40722e:	48 01 e8             	add    %rbp,%rax
  407231:	48 2d 90 0c 00 00    	sub    $0xc90,%rax
  407237:	f3 0f 10 00          	movss  (%rax),%xmm0
  40723b:	f3 0f 58 c1          	addss  %xmm1,%xmm0
  40723f:	f3 0f 11 85 60 f3 ff 	movss  %xmm0,-0xca0(%rbp)
  407246:	ff 
  407247:	f3 0f 10 8d 64 f3 ff 	movss  -0xc9c(%rbp),%xmm1
  40724e:	ff 
  40724f:	8b 85 20 f3 ff ff    	mov    -0xce0(%rbp),%eax
  407255:	48 98                	cltq   
  407257:	48 c1 e0 04          	shl    $0x4,%rax
  40725b:	48 01 e8             	add    %rbp,%rax
  40725e:	48 2d 8c 0c 00 00    	sub    $0xc8c,%rax
  407264:	f3 0f 10 00          	movss  (%rax),%xmm0
  407268:	f3 0f 58 c1          	addss  %xmm1,%xmm0
  40726c:	f3 0f 11 85 64 f3 ff 	movss  %xmm0,-0xc9c(%rbp)
  407273:	ff 
  407274:	f3 0f 10 8d 68 f3 ff 	movss  -0xc98(%rbp),%xmm1
  40727b:	ff 
  40727c:	8b 85 20 f3 ff ff    	mov    -0xce0(%rbp),%eax
  407282:	48 98                	cltq   
  407284:	48 c1 e0 04          	shl    $0x4,%rax
  407288:	48 01 e8             	add    %rbp,%rax
  40728b:	48 2d 88 0c 00 00    	sub    $0xc88,%rax
  407291:	f3 0f 10 00          	movss  (%rax),%xmm0
  407295:	f3 0f 58 c1          	addss  %xmm1,%xmm0
  407299:	f3 0f 11 85 68 f3 ff 	movss  %xmm0,-0xc98(%rbp)
  4072a0:	ff 
  4072a1:	f3 0f 10 8d 6c f3 ff 	movss  -0xc94(%rbp),%xmm1
  4072a8:	ff 
  4072a9:	8b 85 20 f3 ff ff    	mov    -0xce0(%rbp),%eax
  4072af:	48 98                	cltq   
  4072b1:	48 c1 e0 04          	shl    $0x4,%rax
  4072b5:	48 01 e8             	add    %rbp,%rax
  4072b8:	48 2d 84 0c 00 00    	sub    $0xc84,%rax
  4072be:	f3 0f 10 00          	movss  (%rax),%xmm0
  4072c2:	f3 0f 58 c1          	addss  %xmm1,%xmm0
  4072c6:	f3 0f 11 85 6c f3 ff 	movss  %xmm0,-0xc94(%rbp)
  4072cd:	ff 
  4072ce:	83 85 20 f3 ff ff 01 	addl   $0x1,-0xce0(%rbp)
  4072d5:	f3 0f 10 8d 60 f3 ff 	movss  -0xca0(%rbp),%xmm1
  4072dc:	ff 
  4072dd:	8b 85 20 f3 ff ff    	mov    -0xce0(%rbp),%eax
  4072e3:	48 98                	cltq   
  4072e5:	48 c1 e0 04          	shl    $0x4,%rax
  4072e9:	48 01 e8             	add    %rbp,%rax
  4072ec:	48 2d 90 0c 00 00    	sub    $0xc90,%rax
  4072f2:	f3 0f 10 00          	movss  (%rax),%xmm0
  4072f6:	f3 0f 58 c1          	addss  %xmm1,%xmm0
  4072fa:	f3 0f 11 85 60 f3 ff 	movss  %xmm0,-0xca0(%rbp)
  407301:	ff 
  407302:	f3 0f 10 8d 64 f3 ff 	movss  -0xc9c(%rbp),%xmm1
  407309:	ff 
  40730a:	8b 85 20 f3 ff ff    	mov    -0xce0(%rbp),%eax
  407310:	48 98                	cltq   
  407312:	48 c1 e0 04          	shl    $0x4,%rax
  407316:	48 01 e8             	add    %rbp,%rax
  407319:	48 2d 8c 0c 00 00    	sub    $0xc8c,%rax
  40731f:	f3 0f 10 00          	movss  (%rax),%xmm0
  407323:	f3 0f 58 c1          	addss  %xmm1,%xmm0
  407327:	f3 0f 11 85 64 f3 ff 	movss  %xmm0,-0xc9c(%rbp)
  40732e:	ff 
  40732f:	f3 0f 10 8d 68 f3 ff 	movss  -0xc98(%rbp),%xmm1
  407336:	ff 
  407337:	8b 85 20 f3 ff ff    	mov    -0xce0(%rbp),%eax
  40733d:	48 98                	cltq   
  40733f:	48 c1 e0 04          	shl    $0x4,%rax
  407343:	48 01 e8             	add    %rbp,%rax
  407346:	48 2d 88 0c 00 00    	sub    $0xc88,%rax
  40734c:	f3 0f 10 00          	movss  (%rax),%xmm0
  407350:	f3 0f 58 c1          	addss  %xmm1,%xmm0
  407354:	f3 0f 11 85 68 f3 ff 	movss  %xmm0,-0xc98(%rbp)
  40735b:	ff 
  40735c:	f3 0f 10 8d 6c f3 ff 	movss  -0xc94(%rbp),%xmm1
  407363:	ff 
  407364:	8b 85 20 f3 ff ff    	mov    -0xce0(%rbp),%eax
  40736a:	48 98                	cltq   
  40736c:	48 c1 e0 04          	shl    $0x4,%rax
  407370:	48 01 e8             	add    %rbp,%rax
  407373:	48 2d 84 0c 00 00    	sub    $0xc84,%rax
  407379:	f3 0f 10 00          	movss  (%rax),%xmm0
  40737d:	f3 0f 58 c1          	addss  %xmm1,%xmm0
  407381:	f3 0f 11 85 6c f3 ff 	movss  %xmm0,-0xc94(%rbp)
  407388:	ff 
  407389:	83 85 20 f3 ff ff 01 	addl   $0x1,-0xce0(%rbp)
  407390:	f3 0f 10 8d 60 f3 ff 	movss  -0xca0(%rbp),%xmm1
  407397:	ff 
  407398:	8b 85 20 f3 ff ff    	mov    -0xce0(%rbp),%eax
  40739e:	48 98                	cltq   
  4073a0:	48 c1 e0 04          	shl    $0x4,%rax
  4073a4:	48 01 e8             	add    %rbp,%rax
  4073a7:	48 2d 90 0c 00 00    	sub    $0xc90,%rax
  4073ad:	f3 0f 10 00          	movss  (%rax),%xmm0
  4073b1:	f3 0f 58 c1          	addss  %xmm1,%xmm0
  4073b5:	f3 0f 11 85 60 f3 ff 	movss  %xmm0,-0xca0(%rbp)
  4073bc:	ff 
  4073bd:	f3 0f 10 8d 64 f3 ff 	movss  -0xc9c(%rbp),%xmm1
  4073c4:	ff 
  4073c5:	8b 85 20 f3 ff ff    	mov    -0xce0(%rbp),%eax
  4073cb:	48 98                	cltq   
  4073cd:	48 c1 e0 04          	shl    $0x4,%rax
  4073d1:	48 01 e8             	add    %rbp,%rax
  4073d4:	48 2d 8c 0c 00 00    	sub    $0xc8c,%rax
  4073da:	f3 0f 10 00          	movss  (%rax),%xmm0
  4073de:	f3 0f 58 c1          	addss  %xmm1,%xmm0
  4073e2:	f3 0f 11 85 64 f3 ff 	movss  %xmm0,-0xc9c(%rbp)
  4073e9:	ff 
  4073ea:	f3 0f 10 8d 68 f3 ff 	movss  -0xc98(%rbp),%xmm1
  4073f1:	ff 
  4073f2:	8b 85 20 f3 ff ff    	mov    -0xce0(%rbp),%eax
  4073f8:	48 98                	cltq   
  4073fa:	48 c1 e0 04          	shl    $0x4,%rax
  4073fe:	48 01 e8             	add    %rbp,%rax
  407401:	48 2d 88 0c 00 00    	sub    $0xc88,%rax
  407407:	f3 0f 10 00          	movss  (%rax),%xmm0
  40740b:	f3 0f 58 c1          	addss  %xmm1,%xmm0
  40740f:	f3 0f 11 85 68 f3 ff 	movss  %xmm0,-0xc98(%rbp)
  407416:	ff 
  407417:	f3 0f 10 8d 6c f3 ff 	movss  -0xc94(%rbp),%xmm1
  40741e:	ff 
  40741f:	8b 85 20 f3 ff ff    	mov    -0xce0(%rbp),%eax
  407425:	48 98                	cltq   
  407427:	48 c1 e0 04          	shl    $0x4,%rax
  40742b:	48 01 e8             	add    %rbp,%rax
  40742e:	48 2d 84 0c 00 00    	sub    $0xc84,%rax
  407434:	f3 0f 10 00          	movss  (%rax),%xmm0
  407438:	f3 0f 58 c1          	addss  %xmm1,%xmm0
  40743c:	f3 0f 11 85 6c f3 ff 	movss  %xmm0,-0xc94(%rbp)
  407443:	ff 
  407444:	83 85 20 f3 ff ff 01 	addl   $0x1,-0xce0(%rbp)
  40744b:	f3 0f 10 8d 60 f3 ff 	movss  -0xca0(%rbp),%xmm1
  407452:	ff 
  407453:	8b 85 20 f3 ff ff    	mov    -0xce0(%rbp),%eax
  407459:	48 98                	cltq   
  40745b:	48 c1 e0 04          	shl    $0x4,%rax
  40745f:	48 01 e8             	add    %rbp,%rax
  407462:	48 2d 90 0c 00 00    	sub    $0xc90,%rax
  407468:	f3 0f 10 00          	movss  (%rax),%xmm0
  40746c:	f3 0f 58 c1          	addss  %xmm1,%xmm0
  407470:	f3 0f 11 85 60 f3 ff 	movss  %xmm0,-0xca0(%rbp)
  407477:	ff 
  407478:	f3 0f 10 8d 64 f3 ff 	movss  -0xc9c(%rbp),%xmm1
  40747f:	ff 
  407480:	8b 85 20 f3 ff ff    	mov    -0xce0(%rbp),%eax
  407486:	48 98                	cltq   
  407488:	48 c1 e0 04          	shl    $0x4,%rax
  40748c:	48 01 e8             	add    %rbp,%rax
  40748f:	48 2d 8c 0c 00 00    	sub    $0xc8c,%rax
  407495:	f3 0f 10 00          	movss  (%rax),%xmm0
  407499:	f3 0f 58 c1          	addss  %xmm1,%xmm0
  40749d:	f3 0f 11 85 64 f3 ff 	movss  %xmm0,-0xc9c(%rbp)
  4074a4:	ff 
  4074a5:	f3 0f 10 8d 68 f3 ff 	movss  -0xc98(%rbp),%xmm1
  4074ac:	ff 
  4074ad:	8b 85 20 f3 ff ff    	mov    -0xce0(%rbp),%eax
  4074b3:	48 98                	cltq   
  4074b5:	48 c1 e0 04          	shl    $0x4,%rax
  4074b9:	48 01 e8             	add    %rbp,%rax
  4074bc:	48 2d 88 0c 00 00    	sub    $0xc88,%rax
  4074c2:	f3 0f 10 00          	movss  (%rax),%xmm0
  4074c6:	f3 0f 58 c1          	addss  %xmm1,%xmm0
  4074ca:	f3 0f 11 85 68 f3 ff 	movss  %xmm0,-0xc98(%rbp)
  4074d1:	ff 
  4074d2:	f3 0f 10 8d 6c f3 ff 	movss  -0xc94(%rbp),%xmm1
  4074d9:	ff 
  4074da:	8b 85 20 f3 ff ff    	mov    -0xce0(%rbp),%eax
  4074e0:	48 98                	cltq   
  4074e2:	48 c1 e0 04          	shl    $0x4,%rax
  4074e6:	48 01 e8             	add    %rbp,%rax
  4074e9:	48 2d 84 0c 00 00    	sub    $0xc84,%rax
  4074ef:	f3 0f 10 00          	movss  (%rax),%xmm0
  4074f3:	f3 0f 58 c1          	addss  %xmm1,%xmm0
  4074f7:	f3 0f 11 85 6c f3 ff 	movss  %xmm0,-0xc94(%rbp)
  4074fe:	ff 
  4074ff:	83 85 20 f3 ff ff 01 	addl   $0x1,-0xce0(%rbp)
  407506:	f3 0f 10 8d 60 f3 ff 	movss  -0xca0(%rbp),%xmm1
  40750d:	ff 
  40750e:	8b 85 20 f3 ff ff    	mov    -0xce0(%rbp),%eax
  407514:	48 98                	cltq   
  407516:	48 c1 e0 04          	shl    $0x4,%rax
  40751a:	48 01 e8             	add    %rbp,%rax
  40751d:	48 2d 90 0c 00 00    	sub    $0xc90,%rax
  407523:	f3 0f 10 00          	movss  (%rax),%xmm0
  407527:	f3 0f 58 c1          	addss  %xmm1,%xmm0
  40752b:	f3 0f 11 85 60 f3 ff 	movss  %xmm0,-0xca0(%rbp)
  407532:	ff 
  407533:	f3 0f 10 8d 64 f3 ff 	movss  -0xc9c(%rbp),%xmm1
  40753a:	ff 
  40753b:	8b 85 20 f3 ff ff    	mov    -0xce0(%rbp),%eax
  407541:	48 98                	cltq   
  407543:	48 c1 e0 04          	shl    $0x4,%rax
  407547:	48 01 e8             	add    %rbp,%rax
  40754a:	48 2d 8c 0c 00 00    	sub    $0xc8c,%rax
  407550:	f3 0f 10 00          	movss  (%rax),%xmm0
  407554:	f3 0f 58 c1          	addss  %xmm1,%xmm0
  407558:	f3 0f 11 85 64 f3 ff 	movss  %xmm0,-0xc9c(%rbp)
  40755f:	ff 
  407560:	f3 0f 10 8d 68 f3 ff 	movss  -0xc98(%rbp),%xmm1
  407567:	ff 
  407568:	8b 85 20 f3 ff ff    	mov    -0xce0(%rbp),%eax
  40756e:	48 98                	cltq   
  407570:	48 c1 e0 04          	shl    $0x4,%rax
  407574:	48 01 e8             	add    %rbp,%rax
  407577:	48 2d 88 0c 00 00    	sub    $0xc88,%rax
  40757d:	f3 0f 10 00          	movss  (%rax),%xmm0
  407581:	f3 0f 58 c1          	addss  %xmm1,%xmm0
  407585:	f3 0f 11 85 68 f3 ff 	movss  %xmm0,-0xc98(%rbp)
  40758c:	ff 
  40758d:	f3 0f 10 8d 6c f3 ff 	movss  -0xc94(%rbp),%xmm1
  407594:	ff 
  407595:	8b 85 20 f3 ff ff    	mov    -0xce0(%rbp),%eax
  40759b:	48 98                	cltq   
  40759d:	48 c1 e0 04          	shl    $0x4,%rax
  4075a1:	48 01 e8             	add    %rbp,%rax
  4075a4:	48 2d 84 0c 00 00    	sub    $0xc84,%rax
  4075aa:	f3 0f 10 00          	movss  (%rax),%xmm0
  4075ae:	f3 0f 58 c1          	addss  %xmm1,%xmm0
  4075b2:	f3 0f 11 85 6c f3 ff 	movss  %xmm0,-0xc94(%rbp)
  4075b9:	ff 
  4075ba:	83 85 20 f3 ff ff 01 	addl   $0x1,-0xce0(%rbp)
  4075c1:	f3 0f 10 8d 60 f3 ff 	movss  -0xca0(%rbp),%xmm1
  4075c8:	ff 
  4075c9:	8b 85 20 f3 ff ff    	mov    -0xce0(%rbp),%eax
  4075cf:	48 98                	cltq   
  4075d1:	48 c1 e0 04          	shl    $0x4,%rax
  4075d5:	48 01 e8             	add    %rbp,%rax
  4075d8:	48 2d 90 0c 00 00    	sub    $0xc90,%rax
  4075de:	f3 0f 10 00          	movss  (%rax),%xmm0
  4075e2:	f3 0f 58 c1          	addss  %xmm1,%xmm0
  4075e6:	f3 0f 11 85 60 f3 ff 	movss  %xmm0,-0xca0(%rbp)
  4075ed:	ff 
  4075ee:	f3 0f 10 8d 64 f3 ff 	movss  -0xc9c(%rbp),%xmm1
  4075f5:	ff 
  4075f6:	8b 85 20 f3 ff ff    	mov    -0xce0(%rbp),%eax
  4075fc:	48 98                	cltq   
  4075fe:	48 c1 e0 04          	shl    $0x4,%rax
  407602:	48 01 e8             	add    %rbp,%rax
  407605:	48 2d 8c 0c 00 00    	sub    $0xc8c,%rax
  40760b:	f3 0f 10 00          	movss  (%rax),%xmm0
  40760f:	f3 0f 58 c1          	addss  %xmm1,%xmm0
  407613:	f3 0f 11 85 64 f3 ff 	movss  %xmm0,-0xc9c(%rbp)
  40761a:	ff 
  40761b:	f3 0f 10 8d 68 f3 ff 	movss  -0xc98(%rbp),%xmm1
  407622:	ff 
  407623:	8b 85 20 f3 ff ff    	mov    -0xce0(%rbp),%eax
  407629:	48 98                	cltq   
  40762b:	48 c1 e0 04          	shl    $0x4,%rax
  40762f:	48 01 e8             	add    %rbp,%rax
  407632:	48 2d 88 0c 00 00    	sub    $0xc88,%rax
  407638:	f3 0f 10 00          	movss  (%rax),%xmm0
  40763c:	f3 0f 58 c1          	addss  %xmm1,%xmm0
  407640:	f3 0f 11 85 68 f3 ff 	movss  %xmm0,-0xc98(%rbp)
  407647:	ff 
  407648:	f3 0f 10 8d 6c f3 ff 	movss  -0xc94(%rbp),%xmm1
  40764f:	ff 
  407650:	8b 85 20 f3 ff ff    	mov    -0xce0(%rbp),%eax
  407656:	48 98                	cltq   
  407658:	48 c1 e0 04          	shl    $0x4,%rax
  40765c:	48 01 e8             	add    %rbp,%rax
  40765f:	48 2d 84 0c 00 00    	sub    $0xc84,%rax
  407665:	f3 0f 10 00          	movss  (%rax),%xmm0
  407669:	f3 0f 58 c1          	addss  %xmm1,%xmm0
  40766d:	f3 0f 11 85 6c f3 ff 	movss  %xmm0,-0xc94(%rbp)
  407674:	ff 
  407675:	83 85 20 f3 ff ff 01 	addl   $0x1,-0xce0(%rbp)
  40767c:	c7 85 20 f3 ff ff 00 	movl   $0x0,-0xce0(%rbp)
  407683:	00 00 00 
  407686:	c7 85 38 f3 ff ff 00 	movl   $0x0,-0xcc8(%rbp)
  40768d:	00 00 00 
  407690:	f3 0f 10 8d 60 f3 ff 	movss  -0xca0(%rbp),%xmm1
  407697:	ff 
  407698:	8b 85 20 f3 ff ff    	mov    -0xce0(%rbp),%eax
  40769e:	48 98                	cltq   
  4076a0:	48 c1 e0 04          	shl    $0x4,%rax
  4076a4:	48 01 e8             	add    %rbp,%rax
  4076a7:	48 2d 90 0c 00 00    	sub    $0xc90,%rax
  4076ad:	f3 0f 10 00          	movss  (%rax),%xmm0
  4076b1:	f3 0f 58 c1          	addss  %xmm1,%xmm0
  4076b5:	f3 0f 11 85 60 f3 ff 	movss  %xmm0,-0xca0(%rbp)
  4076bc:	ff 
  4076bd:	f3 0f 10 8d 64 f3 ff 	movss  -0xc9c(%rbp),%xmm1
  4076c4:	ff 
  4076c5:	8b 85 20 f3 ff ff    	mov    -0xce0(%rbp),%eax
  4076cb:	48 98                	cltq   
  4076cd:	48 c1 e0 04          	shl    $0x4,%rax
  4076d1:	48 01 e8             	add    %rbp,%rax
  4076d4:	48 2d 8c 0c 00 00    	sub    $0xc8c,%rax
  4076da:	f3 0f 10 00          	movss  (%rax),%xmm0
  4076de:	f3 0f 58 c1          	addss  %xmm1,%xmm0
  4076e2:	f3 0f 11 85 64 f3 ff 	movss  %xmm0,-0xc9c(%rbp)
  4076e9:	ff 
  4076ea:	f3 0f 10 8d 68 f3 ff 	movss  -0xc98(%rbp),%xmm1
  4076f1:	ff 
  4076f2:	8b 85 20 f3 ff ff    	mov    -0xce0(%rbp),%eax
  4076f8:	48 98                	cltq   
  4076fa:	48 c1 e0 04          	shl    $0x4,%rax
  4076fe:	48 01 e8             	add    %rbp,%rax
  407701:	48 2d 88 0c 00 00    	sub    $0xc88,%rax
  407707:	f3 0f 10 00          	movss  (%rax),%xmm0
  40770b:	f3 0f 58 c1          	addss  %xmm1,%xmm0
  40770f:	f3 0f 11 85 68 f3 ff 	movss  %xmm0,-0xc98(%rbp)
  407716:	ff 
  407717:	f3 0f 10 8d 6c f3 ff 	movss  -0xc94(%rbp),%xmm1
  40771e:	ff 
  40771f:	8b 85 20 f3 ff ff    	mov    -0xce0(%rbp),%eax
  407725:	48 98                	cltq   
  407727:	48 c1 e0 04          	shl    $0x4,%rax
  40772b:	48 01 e8             	add    %rbp,%rax
  40772e:	48 2d 84 0c 00 00    	sub    $0xc84,%rax
  407734:	f3 0f 10 00          	movss  (%rax),%xmm0
  407738:	f3 0f 58 c1          	addss  %xmm1,%xmm0
  40773c:	f3 0f 11 85 6c f3 ff 	movss  %xmm0,-0xc94(%rbp)
  407743:	ff 
  407744:	83 85 20 f3 ff ff 01 	addl   $0x1,-0xce0(%rbp)
  40774b:	f3 0f 10 8d 60 f3 ff 	movss  -0xca0(%rbp),%xmm1
  407752:	ff 
  407753:	8b 85 20 f3 ff ff    	mov    -0xce0(%rbp),%eax
  407759:	48 98                	cltq   
  40775b:	48 c1 e0 04          	shl    $0x4,%rax
  40775f:	48 01 e8             	add    %rbp,%rax
  407762:	48 2d 90 0c 00 00    	sub    $0xc90,%rax
  407768:	f3 0f 10 00          	movss  (%rax),%xmm0
  40776c:	f3 0f 58 c1          	addss  %xmm1,%xmm0
  407770:	f3 0f 11 85 60 f3 ff 	movss  %xmm0,-0xca0(%rbp)
  407777:	ff 
  407778:	f3 0f 10 8d 64 f3 ff 	movss  -0xc9c(%rbp),%xmm1
  40777f:	ff 
  407780:	8b 85 20 f3 ff ff    	mov    -0xce0(%rbp),%eax
  407786:	48 98                	cltq   
  407788:	48 c1 e0 04          	shl    $0x4,%rax
  40778c:	48 01 e8             	add    %rbp,%rax
  40778f:	48 2d 8c 0c 00 00    	sub    $0xc8c,%rax
  407795:	f3 0f 10 00          	movss  (%rax),%xmm0
  407799:	f3 0f 58 c1          	addss  %xmm1,%xmm0
  40779d:	f3 0f 11 85 64 f3 ff 	movss  %xmm0,-0xc9c(%rbp)
  4077a4:	ff 
  4077a5:	f3 0f 10 8d 68 f3 ff 	movss  -0xc98(%rbp),%xmm1
  4077ac:	ff 
  4077ad:	8b 85 20 f3 ff ff    	mov    -0xce0(%rbp),%eax
  4077b3:	48 98                	cltq   
  4077b5:	48 c1 e0 04          	shl    $0x4,%rax
  4077b9:	48 01 e8             	add    %rbp,%rax
  4077bc:	48 2d 88 0c 00 00    	sub    $0xc88,%rax
  4077c2:	f3 0f 10 00          	movss  (%rax),%xmm0
  4077c6:	f3 0f 58 c1          	addss  %xmm1,%xmm0
  4077ca:	f3 0f 11 85 68 f3 ff 	movss  %xmm0,-0xc98(%rbp)
  4077d1:	ff 
  4077d2:	f3 0f 10 8d 6c f3 ff 	movss  -0xc94(%rbp),%xmm1
  4077d9:	ff 
  4077da:	8b 85 20 f3 ff ff    	mov    -0xce0(%rbp),%eax
  4077e0:	48 98                	cltq   
  4077e2:	48 c1 e0 04          	shl    $0x4,%rax
  4077e6:	48 01 e8             	add    %rbp,%rax
  4077e9:	48 2d 84 0c 00 00    	sub    $0xc84,%rax
  4077ef:	f3 0f 10 00          	movss  (%rax),%xmm0
  4077f3:	f3 0f 58 c1          	addss  %xmm1,%xmm0
  4077f7:	f3 0f 11 85 6c f3 ff 	movss  %xmm0,-0xc94(%rbp)
  4077fe:	ff 
  4077ff:	83 85 20 f3 ff ff 01 	addl   $0x1,-0xce0(%rbp)
  407806:	f3 0f 10 8d 60 f3 ff 	movss  -0xca0(%rbp),%xmm1
  40780d:	ff 
  40780e:	8b 85 20 f3 ff ff    	mov    -0xce0(%rbp),%eax
  407814:	48 98                	cltq   
  407816:	48 c1 e0 04          	shl    $0x4,%rax
  40781a:	48 01 e8             	add    %rbp,%rax
  40781d:	48 2d 90 0c 00 00    	sub    $0xc90,%rax
  407823:	f3 0f 10 00          	movss  (%rax),%xmm0
  407827:	f3 0f 58 c1          	addss  %xmm1,%xmm0
  40782b:	f3 0f 11 85 60 f3 ff 	movss  %xmm0,-0xca0(%rbp)
  407832:	ff 
  407833:	f3 0f 10 8d 64 f3 ff 	movss  -0xc9c(%rbp),%xmm1
  40783a:	ff 
  40783b:	8b 85 20 f3 ff ff    	mov    -0xce0(%rbp),%eax
  407841:	48 98                	cltq   
  407843:	48 c1 e0 04          	shl    $0x4,%rax
  407847:	48 01 e8             	add    %rbp,%rax
  40784a:	48 2d 8c 0c 00 00    	sub    $0xc8c,%rax
  407850:	f3 0f 10 00          	movss  (%rax),%xmm0
  407854:	f3 0f 58 c1          	addss  %xmm1,%xmm0
  407858:	f3 0f 11 85 64 f3 ff 	movss  %xmm0,-0xc9c(%rbp)
  40785f:	ff 
  407860:	f3 0f 10 8d 68 f3 ff 	movss  -0xc98(%rbp),%xmm1
  407867:	ff 
  407868:	8b 85 20 f3 ff ff    	mov    -0xce0(%rbp),%eax
  40786e:	48 98                	cltq   
  407870:	48 c1 e0 04          	shl    $0x4,%rax
  407874:	48 01 e8             	add    %rbp,%rax
  407877:	48 2d 88 0c 00 00    	sub    $0xc88,%rax
  40787d:	f3 0f 10 00          	movss  (%rax),%xmm0
  407881:	f3 0f 58 c1          	addss  %xmm1,%xmm0
  407885:	f3 0f 11 85 68 f3 ff 	movss  %xmm0,-0xc98(%rbp)
  40788c:	ff 
  40788d:	f3 0f 10 8d 6c f3 ff 	movss  -0xc94(%rbp),%xmm1
  407894:	ff 
  407895:	8b 85 20 f3 ff ff    	mov    -0xce0(%rbp),%eax
  40789b:	48 98                	cltq   
  40789d:	48 c1 e0 04          	shl    $0x4,%rax
  4078a1:	48 01 e8             	add    %rbp,%rax
  4078a4:	48 2d 84 0c 00 00    	sub    $0xc84,%rax
  4078aa:	f3 0f 10 00          	movss  (%rax),%xmm0
  4078ae:	f3 0f 58 c1          	addss  %xmm1,%xmm0
  4078b2:	f3 0f 11 85 6c f3 ff 	movss  %xmm0,-0xc94(%rbp)
  4078b9:	ff 
  4078ba:	83 85 20 f3 ff ff 01 	addl   $0x1,-0xce0(%rbp)
  4078c1:	f3 0f 10 8d 60 f3 ff 	movss  -0xca0(%rbp),%xmm1
  4078c8:	ff 
  4078c9:	8b 85 20 f3 ff ff    	mov    -0xce0(%rbp),%eax
  4078cf:	48 98                	cltq   
  4078d1:	48 c1 e0 04          	shl    $0x4,%rax
  4078d5:	48 01 e8             	add    %rbp,%rax
  4078d8:	48 2d 90 0c 00 00    	sub    $0xc90,%rax
  4078de:	f3 0f 10 00          	movss  (%rax),%xmm0
  4078e2:	f3 0f 58 c1          	addss  %xmm1,%xmm0
  4078e6:	f3 0f 11 85 60 f3 ff 	movss  %xmm0,-0xca0(%rbp)
  4078ed:	ff 
  4078ee:	f3 0f 10 8d 64 f3 ff 	movss  -0xc9c(%rbp),%xmm1
  4078f5:	ff 
  4078f6:	8b 85 20 f3 ff ff    	mov    -0xce0(%rbp),%eax
  4078fc:	48 98                	cltq   
  4078fe:	48 c1 e0 04          	shl    $0x4,%rax
  407902:	48 01 e8             	add    %rbp,%rax
  407905:	48 2d 8c 0c 00 00    	sub    $0xc8c,%rax
  40790b:	f3 0f 10 00          	movss  (%rax),%xmm0
  40790f:	f3 0f 58 c1          	addss  %xmm1,%xmm0
  407913:	f3 0f 11 85 64 f3 ff 	movss  %xmm0,-0xc9c(%rbp)
  40791a:	ff 
  40791b:	f3 0f 10 8d 68 f3 ff 	movss  -0xc98(%rbp),%xmm1
  407922:	ff 
  407923:	8b 85 20 f3 ff ff    	mov    -0xce0(%rbp),%eax
  407929:	48 98                	cltq   
  40792b:	48 c1 e0 04          	shl    $0x4,%rax
  40792f:	48 01 e8             	add    %rbp,%rax
  407932:	48 2d 88 0c 00 00    	sub    $0xc88,%rax
  407938:	f3 0f 10 00          	movss  (%rax),%xmm0
  40793c:	f3 0f 58 c1          	addss  %xmm1,%xmm0
  407940:	f3 0f 11 85 68 f3 ff 	movss  %xmm0,-0xc98(%rbp)
  407947:	ff 
  407948:	f3 0f 10 8d 6c f3 ff 	movss  -0xc94(%rbp),%xmm1
  40794f:	ff 
  407950:	8b 85 20 f3 ff ff    	mov    -0xce0(%rbp),%eax
  407956:	48 98                	cltq   
  407958:	48 c1 e0 04          	shl    $0x4,%rax
  40795c:	48 01 e8             	add    %rbp,%rax
  40795f:	48 2d 84 0c 00 00    	sub    $0xc84,%rax
  407965:	f3 0f 10 00          	movss  (%rax),%xmm0
  407969:	f3 0f 58 c1          	addss  %xmm1,%xmm0
  40796d:	f3 0f 11 85 6c f3 ff 	movss  %xmm0,-0xc94(%rbp)
  407974:	ff 
  407975:	83 85 20 f3 ff ff 01 	addl   $0x1,-0xce0(%rbp)
  40797c:	f3 0f 10 8d 60 f3 ff 	movss  -0xca0(%rbp),%xmm1
  407983:	ff 
  407984:	8b 85 20 f3 ff ff    	mov    -0xce0(%rbp),%eax
  40798a:	48 98                	cltq   
  40798c:	48 c1 e0 04          	shl    $0x4,%rax
  407990:	48 01 e8             	add    %rbp,%rax
  407993:	48 2d 90 0c 00 00    	sub    $0xc90,%rax
  407999:	f3 0f 10 00          	movss  (%rax),%xmm0
  40799d:	f3 0f 58 c1          	addss  %xmm1,%xmm0
  4079a1:	f3 0f 11 85 60 f3 ff 	movss  %xmm0,-0xca0(%rbp)
  4079a8:	ff 
  4079a9:	f3 0f 10 8d 64 f3 ff 	movss  -0xc9c(%rbp),%xmm1
  4079b0:	ff 
  4079b1:	8b 85 20 f3 ff ff    	mov    -0xce0(%rbp),%eax
  4079b7:	48 98                	cltq   
  4079b9:	48 c1 e0 04          	shl    $0x4,%rax
  4079bd:	48 01 e8             	add    %rbp,%rax
  4079c0:	48 2d 8c 0c 00 00    	sub    $0xc8c,%rax
  4079c6:	f3 0f 10 00          	movss  (%rax),%xmm0
  4079ca:	f3 0f 58 c1          	addss  %xmm1,%xmm0
  4079ce:	f3 0f 11 85 64 f3 ff 	movss  %xmm0,-0xc9c(%rbp)
  4079d5:	ff 
  4079d6:	f3 0f 10 8d 68 f3 ff 	movss  -0xc98(%rbp),%xmm1
  4079dd:	ff 
  4079de:	8b 85 20 f3 ff ff    	mov    -0xce0(%rbp),%eax
  4079e4:	48 98                	cltq   
  4079e6:	48 c1 e0 04          	shl    $0x4,%rax
  4079ea:	48 01 e8             	add    %rbp,%rax
  4079ed:	48 2d 88 0c 00 00    	sub    $0xc88,%rax
  4079f3:	f3 0f 10 00          	movss  (%rax),%xmm0
  4079f7:	f3 0f 58 c1          	addss  %xmm1,%xmm0
  4079fb:	f3 0f 11 85 68 f3 ff 	movss  %xmm0,-0xc98(%rbp)
  407a02:	ff 
  407a03:	f3 0f 10 8d 6c f3 ff 	movss  -0xc94(%rbp),%xmm1
  407a0a:	ff 
  407a0b:	8b 85 20 f3 ff ff    	mov    -0xce0(%rbp),%eax
  407a11:	48 98                	cltq   
  407a13:	48 c1 e0 04          	shl    $0x4,%rax
  407a17:	48 01 e8             	add    %rbp,%rax
  407a1a:	48 2d 84 0c 00 00    	sub    $0xc84,%rax
  407a20:	f3 0f 10 00          	movss  (%rax),%xmm0
  407a24:	f3 0f 58 c1          	addss  %xmm1,%xmm0
  407a28:	f3 0f 11 85 6c f3 ff 	movss  %xmm0,-0xc94(%rbp)
  407a2f:	ff 
  407a30:	83 85 20 f3 ff ff 01 	addl   $0x1,-0xce0(%rbp)
  407a37:	f3 0f 10 8d 60 f3 ff 	movss  -0xca0(%rbp),%xmm1
  407a3e:	ff 
  407a3f:	8b 85 20 f3 ff ff    	mov    -0xce0(%rbp),%eax
  407a45:	48 98                	cltq   
  407a47:	48 c1 e0 04          	shl    $0x4,%rax
  407a4b:	48 01 e8             	add    %rbp,%rax
  407a4e:	48 2d 90 0c 00 00    	sub    $0xc90,%rax
  407a54:	f3 0f 10 00          	movss  (%rax),%xmm0
  407a58:	f3 0f 58 c1          	addss  %xmm1,%xmm0
  407a5c:	f3 0f 11 85 60 f3 ff 	movss  %xmm0,-0xca0(%rbp)
  407a63:	ff 
  407a64:	f3 0f 10 8d 64 f3 ff 	movss  -0xc9c(%rbp),%xmm1
  407a6b:	ff 
  407a6c:	8b 85 20 f3 ff ff    	mov    -0xce0(%rbp),%eax
  407a72:	48 98                	cltq   
  407a74:	48 c1 e0 04          	shl    $0x4,%rax
  407a78:	48 01 e8             	add    %rbp,%rax
  407a7b:	48 2d 8c 0c 00 00    	sub    $0xc8c,%rax
  407a81:	f3 0f 10 00          	movss  (%rax),%xmm0
  407a85:	f3 0f 58 c1          	addss  %xmm1,%xmm0
  407a89:	f3 0f 11 85 64 f3 ff 	movss  %xmm0,-0xc9c(%rbp)
  407a90:	ff 
  407a91:	f3 0f 10 8d 68 f3 ff 	movss  -0xc98(%rbp),%xmm1
  407a98:	ff 
  407a99:	8b 85 20 f3 ff ff    	mov    -0xce0(%rbp),%eax
  407a9f:	48 98                	cltq   
  407aa1:	48 c1 e0 04          	shl    $0x4,%rax
  407aa5:	48 01 e8             	add    %rbp,%rax
  407aa8:	48 2d 88 0c 00 00    	sub    $0xc88,%rax
  407aae:	f3 0f 10 00          	movss  (%rax),%xmm0
  407ab2:	f3 0f 58 c1          	addss  %xmm1,%xmm0
  407ab6:	f3 0f 11 85 68 f3 ff 	movss  %xmm0,-0xc98(%rbp)
  407abd:	ff 
  407abe:	f3 0f 10 8d 6c f3 ff 	movss  -0xc94(%rbp),%xmm1
  407ac5:	ff 
  407ac6:	8b 85 20 f3 ff ff    	mov    -0xce0(%rbp),%eax
  407acc:	48 98                	cltq   
  407ace:	48 c1 e0 04          	shl    $0x4,%rax
  407ad2:	48 01 e8             	add    %rbp,%rax
  407ad5:	48 2d 84 0c 00 00    	sub    $0xc84,%rax
  407adb:	f3 0f 10 00          	movss  (%rax),%xmm0
  407adf:	f3 0f 58 c1          	addss  %xmm1,%xmm0
  407ae3:	f3 0f 11 85 6c f3 ff 	movss  %xmm0,-0xc94(%rbp)
  407aea:	ff 
  407aeb:	83 85 20 f3 ff ff 01 	addl   $0x1,-0xce0(%rbp)
  407af2:	f3 0f 10 8d 60 f3 ff 	movss  -0xca0(%rbp),%xmm1
  407af9:	ff 
  407afa:	8b 85 20 f3 ff ff    	mov    -0xce0(%rbp),%eax
  407b00:	48 98                	cltq   
  407b02:	48 c1 e0 04          	shl    $0x4,%rax
  407b06:	48 01 e8             	add    %rbp,%rax
  407b09:	48 2d 90 0c 00 00    	sub    $0xc90,%rax
  407b0f:	f3 0f 10 00          	movss  (%rax),%xmm0
  407b13:	f3 0f 58 c1          	addss  %xmm1,%xmm0
  407b17:	f3 0f 11 85 60 f3 ff 	movss  %xmm0,-0xca0(%rbp)
  407b1e:	ff 
  407b1f:	f3 0f 10 8d 64 f3 ff 	movss  -0xc9c(%rbp),%xmm1
  407b26:	ff 
  407b27:	8b 85 20 f3 ff ff    	mov    -0xce0(%rbp),%eax
  407b2d:	48 98                	cltq   
  407b2f:	48 c1 e0 04          	shl    $0x4,%rax
  407b33:	48 01 e8             	add    %rbp,%rax
  407b36:	48 2d 8c 0c 00 00    	sub    $0xc8c,%rax
  407b3c:	f3 0f 10 00          	movss  (%rax),%xmm0
  407b40:	f3 0f 58 c1          	addss  %xmm1,%xmm0
  407b44:	f3 0f 11 85 64 f3 ff 	movss  %xmm0,-0xc9c(%rbp)
  407b4b:	ff 
  407b4c:	f3 0f 10 8d 68 f3 ff 	movss  -0xc98(%rbp),%xmm1
  407b53:	ff 
  407b54:	8b 85 20 f3 ff ff    	mov    -0xce0(%rbp),%eax
  407b5a:	48 98                	cltq   
  407b5c:	48 c1 e0 04          	shl    $0x4,%rax
  407b60:	48 01 e8             	add    %rbp,%rax
  407b63:	48 2d 88 0c 00 00    	sub    $0xc88,%rax
  407b69:	f3 0f 10 00          	movss  (%rax),%xmm0
  407b6d:	f3 0f 58 c1          	addss  %xmm1,%xmm0
  407b71:	f3 0f 11 85 68 f3 ff 	movss  %xmm0,-0xc98(%rbp)
  407b78:	ff 
  407b79:	f3 0f 10 8d 6c f3 ff 	movss  -0xc94(%rbp),%xmm1
  407b80:	ff 
  407b81:	8b 85 20 f3 ff ff    	mov    -0xce0(%rbp),%eax
  407b87:	48 98                	cltq   
  407b89:	48 c1 e0 04          	shl    $0x4,%rax
  407b8d:	48 01 e8             	add    %rbp,%rax
  407b90:	48 2d 84 0c 00 00    	sub    $0xc84,%rax
  407b96:	f3 0f 10 00          	movss  (%rax),%xmm0
  407b9a:	f3 0f 58 c1          	addss  %xmm1,%xmm0
  407b9e:	f3 0f 11 85 6c f3 ff 	movss  %xmm0,-0xc94(%rbp)
  407ba5:	ff 
  407ba6:	83 85 20 f3 ff ff 01 	addl   $0x1,-0xce0(%rbp)
  407bad:	f3 0f 10 8d 60 f3 ff 	movss  -0xca0(%rbp),%xmm1
  407bb4:	ff 
  407bb5:	8b 85 20 f3 ff ff    	mov    -0xce0(%rbp),%eax
  407bbb:	48 98                	cltq   
  407bbd:	48 c1 e0 04          	shl    $0x4,%rax
  407bc1:	48 01 e8             	add    %rbp,%rax
  407bc4:	48 2d 90 0c 00 00    	sub    $0xc90,%rax
  407bca:	f3 0f 10 00          	movss  (%rax),%xmm0
  407bce:	f3 0f 58 c1          	addss  %xmm1,%xmm0
  407bd2:	f3 0f 11 85 60 f3 ff 	movss  %xmm0,-0xca0(%rbp)
  407bd9:	ff 
  407bda:	f3 0f 10 8d 64 f3 ff 	movss  -0xc9c(%rbp),%xmm1
  407be1:	ff 
  407be2:	8b 85 20 f3 ff ff    	mov    -0xce0(%rbp),%eax
  407be8:	48 98                	cltq   
  407bea:	48 c1 e0 04          	shl    $0x4,%rax
  407bee:	48 01 e8             	add    %rbp,%rax
  407bf1:	48 2d 8c 0c 00 00    	sub    $0xc8c,%rax
  407bf7:	f3 0f 10 00          	movss  (%rax),%xmm0
  407bfb:	f3 0f 58 c1          	addss  %xmm1,%xmm0
  407bff:	f3 0f 11 85 64 f3 ff 	movss  %xmm0,-0xc9c(%rbp)
  407c06:	ff 
  407c07:	f3 0f 10 8d 68 f3 ff 	movss  -0xc98(%rbp),%xmm1
  407c0e:	ff 
  407c0f:	8b 85 20 f3 ff ff    	mov    -0xce0(%rbp),%eax
  407c15:	48 98                	cltq   
  407c17:	48 c1 e0 04          	shl    $0x4,%rax
  407c1b:	48 01 e8             	add    %rbp,%rax
  407c1e:	48 2d 88 0c 00 00    	sub    $0xc88,%rax
  407c24:	f3 0f 10 00          	movss  (%rax),%xmm0
  407c28:	f3 0f 58 c1          	addss  %xmm1,%xmm0
  407c2c:	f3 0f 11 85 68 f3 ff 	movss  %xmm0,-0xc98(%rbp)
  407c33:	ff 
  407c34:	f3 0f 10 8d 6c f3 ff 	movss  -0xc94(%rbp),%xmm1
  407c3b:	ff 
  407c3c:	8b 85 20 f3 ff ff    	mov    -0xce0(%rbp),%eax
  407c42:	48 98                	cltq   
  407c44:	48 c1 e0 04          	shl    $0x4,%rax
  407c48:	48 01 e8             	add    %rbp,%rax
  407c4b:	48 2d 84 0c 00 00    	sub    $0xc84,%rax
  407c51:	f3 0f 10 00          	movss  (%rax),%xmm0
  407c55:	f3 0f 58 c1          	addss  %xmm1,%xmm0
  407c59:	f3 0f 11 85 6c f3 ff 	movss  %xmm0,-0xc94(%rbp)
  407c60:	ff 
  407c61:	83 85 20 f3 ff ff 01 	addl   $0x1,-0xce0(%rbp)
  407c68:	f3 0f 10 8d 60 f3 ff 	movss  -0xca0(%rbp),%xmm1
  407c6f:	ff 
  407c70:	8b 85 20 f3 ff ff    	mov    -0xce0(%rbp),%eax
  407c76:	48 98                	cltq   
  407c78:	48 c1 e0 04          	shl    $0x4,%rax
  407c7c:	48 01 e8             	add    %rbp,%rax
  407c7f:	48 2d 90 0c 00 00    	sub    $0xc90,%rax
  407c85:	f3 0f 10 00          	movss  (%rax),%xmm0
  407c89:	f3 0f 58 c1          	addss  %xmm1,%xmm0
  407c8d:	f3 0f 11 85 60 f3 ff 	movss  %xmm0,-0xca0(%rbp)
  407c94:	ff 
  407c95:	f3 0f 10 8d 64 f3 ff 	movss  -0xc9c(%rbp),%xmm1
  407c9c:	ff 
  407c9d:	8b 85 20 f3 ff ff    	mov    -0xce0(%rbp),%eax
  407ca3:	48 98                	cltq   
  407ca5:	48 c1 e0 04          	shl    $0x4,%rax
  407ca9:	48 01 e8             	add    %rbp,%rax
  407cac:	48 2d 8c 0c 00 00    	sub    $0xc8c,%rax
  407cb2:	f3 0f 10 00          	movss  (%rax),%xmm0
  407cb6:	f3 0f 58 c1          	addss  %xmm1,%xmm0
  407cba:	f3 0f 11 85 64 f3 ff 	movss  %xmm0,-0xc9c(%rbp)
  407cc1:	ff 
  407cc2:	f3 0f 10 8d 68 f3 ff 	movss  -0xc98(%rbp),%xmm1
  407cc9:	ff 
  407cca:	8b 85 20 f3 ff ff    	mov    -0xce0(%rbp),%eax
  407cd0:	48 98                	cltq   
  407cd2:	48 c1 e0 04          	shl    $0x4,%rax
  407cd6:	48 01 e8             	add    %rbp,%rax
  407cd9:	48 2d 88 0c 00 00    	sub    $0xc88,%rax
  407cdf:	f3 0f 10 00          	movss  (%rax),%xmm0
  407ce3:	f3 0f 58 c1          	addss  %xmm1,%xmm0
  407ce7:	f3 0f 11 85 68 f3 ff 	movss  %xmm0,-0xc98(%rbp)
  407cee:	ff 
  407cef:	f3 0f 10 8d 6c f3 ff 	movss  -0xc94(%rbp),%xmm1
  407cf6:	ff 
  407cf7:	8b 85 20 f3 ff ff    	mov    -0xce0(%rbp),%eax
  407cfd:	48 98                	cltq   
  407cff:	48 c1 e0 04          	shl    $0x4,%rax
  407d03:	48 01 e8             	add    %rbp,%rax
  407d06:	48 2d 84 0c 00 00    	sub    $0xc84,%rax
  407d0c:	f3 0f 10 00          	movss  (%rax),%xmm0
  407d10:	f3 0f 58 c1          	addss  %xmm1,%xmm0
  407d14:	f3 0f 11 85 6c f3 ff 	movss  %xmm0,-0xc94(%rbp)
  407d1b:	ff 
  407d1c:	83 85 20 f3 ff ff 01 	addl   $0x1,-0xce0(%rbp)
  407d23:	f3 0f 10 8d 60 f3 ff 	movss  -0xca0(%rbp),%xmm1
  407d2a:	ff 
  407d2b:	8b 85 20 f3 ff ff    	mov    -0xce0(%rbp),%eax
  407d31:	48 98                	cltq   
  407d33:	48 c1 e0 04          	shl    $0x4,%rax
  407d37:	48 01 e8             	add    %rbp,%rax
  407d3a:	48 2d 90 0c 00 00    	sub    $0xc90,%rax
  407d40:	f3 0f 10 00          	movss  (%rax),%xmm0
  407d44:	f3 0f 58 c1          	addss  %xmm1,%xmm0
  407d48:	f3 0f 11 85 60 f3 ff 	movss  %xmm0,-0xca0(%rbp)
  407d4f:	ff 
  407d50:	f3 0f 10 8d 64 f3 ff 	movss  -0xc9c(%rbp),%xmm1
  407d57:	ff 
  407d58:	8b 85 20 f3 ff ff    	mov    -0xce0(%rbp),%eax
  407d5e:	48 98                	cltq   
  407d60:	48 c1 e0 04          	shl    $0x4,%rax
  407d64:	48 01 e8             	add    %rbp,%rax
  407d67:	48 2d 8c 0c 00 00    	sub    $0xc8c,%rax
  407d6d:	f3 0f 10 00          	movss  (%rax),%xmm0
  407d71:	f3 0f 58 c1          	addss  %xmm1,%xmm0
  407d75:	f3 0f 11 85 64 f3 ff 	movss  %xmm0,-0xc9c(%rbp)
  407d7c:	ff 
  407d7d:	f3 0f 10 8d 68 f3 ff 	movss  -0xc98(%rbp),%xmm1
  407d84:	ff 
  407d85:	8b 85 20 f3 ff ff    	mov    -0xce0(%rbp),%eax
  407d8b:	48 98                	cltq   
  407d8d:	48 c1 e0 04          	shl    $0x4,%rax
  407d91:	48 01 e8             	add    %rbp,%rax
  407d94:	48 2d 88 0c 00 00    	sub    $0xc88,%rax
  407d9a:	f3 0f 10 00          	movss  (%rax),%xmm0
  407d9e:	f3 0f 58 c1          	addss  %xmm1,%xmm0
  407da2:	f3 0f 11 85 68 f3 ff 	movss  %xmm0,-0xc98(%rbp)
  407da9:	ff 
  407daa:	f3 0f 10 8d 6c f3 ff 	movss  -0xc94(%rbp),%xmm1
  407db1:	ff 
  407db2:	8b 85 20 f3 ff ff    	mov    -0xce0(%rbp),%eax
  407db8:	48 98                	cltq   
  407dba:	48 c1 e0 04          	shl    $0x4,%rax
  407dbe:	48 01 e8             	add    %rbp,%rax
  407dc1:	48 2d 84 0c 00 00    	sub    $0xc84,%rax
  407dc7:	f3 0f 10 00          	movss  (%rax),%xmm0
  407dcb:	f3 0f 58 c1          	addss  %xmm1,%xmm0
  407dcf:	f3 0f 11 85 6c f3 ff 	movss  %xmm0,-0xc94(%rbp)
  407dd6:	ff 
  407dd7:	83 85 20 f3 ff ff 01 	addl   $0x1,-0xce0(%rbp)
  407dde:	f3 0f 10 8d 60 f3 ff 	movss  -0xca0(%rbp),%xmm1
  407de5:	ff 
  407de6:	8b 85 20 f3 ff ff    	mov    -0xce0(%rbp),%eax
  407dec:	48 98                	cltq   
  407dee:	48 c1 e0 04          	shl    $0x4,%rax
  407df2:	48 01 e8             	add    %rbp,%rax
  407df5:	48 2d 90 0c 00 00    	sub    $0xc90,%rax
  407dfb:	f3 0f 10 00          	movss  (%rax),%xmm0
  407dff:	f3 0f 58 c1          	addss  %xmm1,%xmm0
  407e03:	f3 0f 11 85 60 f3 ff 	movss  %xmm0,-0xca0(%rbp)
  407e0a:	ff 
  407e0b:	f3 0f 10 8d 64 f3 ff 	movss  -0xc9c(%rbp),%xmm1
  407e12:	ff 
  407e13:	8b 85 20 f3 ff ff    	mov    -0xce0(%rbp),%eax
  407e19:	48 98                	cltq   
  407e1b:	48 c1 e0 04          	shl    $0x4,%rax
  407e1f:	48 01 e8             	add    %rbp,%rax
  407e22:	48 2d 8c 0c 00 00    	sub    $0xc8c,%rax
  407e28:	f3 0f 10 00          	movss  (%rax),%xmm0
  407e2c:	f3 0f 58 c1          	addss  %xmm1,%xmm0
  407e30:	f3 0f 11 85 64 f3 ff 	movss  %xmm0,-0xc9c(%rbp)
  407e37:	ff 
  407e38:	f3 0f 10 8d 68 f3 ff 	movss  -0xc98(%rbp),%xmm1
  407e3f:	ff 
  407e40:	8b 85 20 f3 ff ff    	mov    -0xce0(%rbp),%eax
  407e46:	48 98                	cltq   
  407e48:	48 c1 e0 04          	shl    $0x4,%rax
  407e4c:	48 01 e8             	add    %rbp,%rax
  407e4f:	48 2d 88 0c 00 00    	sub    $0xc88,%rax
  407e55:	f3 0f 10 00          	movss  (%rax),%xmm0
  407e59:	f3 0f 58 c1          	addss  %xmm1,%xmm0
  407e5d:	f3 0f 11 85 68 f3 ff 	movss  %xmm0,-0xc98(%rbp)
  407e64:	ff 
  407e65:	f3 0f 10 8d 6c f3 ff 	movss  -0xc94(%rbp),%xmm1
  407e6c:	ff 
  407e6d:	8b 85 20 f3 ff ff    	mov    -0xce0(%rbp),%eax
  407e73:	48 98                	cltq   
  407e75:	48 c1 e0 04          	shl    $0x4,%rax
  407e79:	48 01 e8             	add    %rbp,%rax
  407e7c:	48 2d 84 0c 00 00    	sub    $0xc84,%rax
  407e82:	f3 0f 10 00          	movss  (%rax),%xmm0
  407e86:	f3 0f 58 c1          	addss  %xmm1,%xmm0
  407e8a:	f3 0f 11 85 6c f3 ff 	movss  %xmm0,-0xc94(%rbp)
  407e91:	ff 
  407e92:	83 85 20 f3 ff ff 01 	addl   $0x1,-0xce0(%rbp)
  407e99:	f3 0f 10 8d 60 f3 ff 	movss  -0xca0(%rbp),%xmm1
  407ea0:	ff 
  407ea1:	8b 85 20 f3 ff ff    	mov    -0xce0(%rbp),%eax
  407ea7:	48 98                	cltq   
  407ea9:	48 c1 e0 04          	shl    $0x4,%rax
  407ead:	48 01 e8             	add    %rbp,%rax
  407eb0:	48 2d 90 0c 00 00    	sub    $0xc90,%rax
  407eb6:	f3 0f 10 00          	movss  (%rax),%xmm0
  407eba:	f3 0f 58 c1          	addss  %xmm1,%xmm0
  407ebe:	f3 0f 11 85 60 f3 ff 	movss  %xmm0,-0xca0(%rbp)
  407ec5:	ff 
  407ec6:	f3 0f 10 8d 64 f3 ff 	movss  -0xc9c(%rbp),%xmm1
  407ecd:	ff 
  407ece:	8b 85 20 f3 ff ff    	mov    -0xce0(%rbp),%eax
  407ed4:	48 98                	cltq   
  407ed6:	48 c1 e0 04          	shl    $0x4,%rax
  407eda:	48 01 e8             	add    %rbp,%rax
  407edd:	48 2d 8c 0c 00 00    	sub    $0xc8c,%rax
  407ee3:	f3 0f 10 00          	movss  (%rax),%xmm0
  407ee7:	f3 0f 58 c1          	addss  %xmm1,%xmm0
  407eeb:	f3 0f 11 85 64 f3 ff 	movss  %xmm0,-0xc9c(%rbp)
  407ef2:	ff 
  407ef3:	f3 0f 10 8d 68 f3 ff 	movss  -0xc98(%rbp),%xmm1
  407efa:	ff 
  407efb:	8b 85 20 f3 ff ff    	mov    -0xce0(%rbp),%eax
  407f01:	48 98                	cltq   
  407f03:	48 c1 e0 04          	shl    $0x4,%rax
  407f07:	48 01 e8             	add    %rbp,%rax
  407f0a:	48 2d 88 0c 00 00    	sub    $0xc88,%rax
  407f10:	f3 0f 10 00          	movss  (%rax),%xmm0
  407f14:	f3 0f 58 c1          	addss  %xmm1,%xmm0
  407f18:	f3 0f 11 85 68 f3 ff 	movss  %xmm0,-0xc98(%rbp)
  407f1f:	ff 
  407f20:	f3 0f 10 8d 6c f3 ff 	movss  -0xc94(%rbp),%xmm1
  407f27:	ff 
  407f28:	8b 85 20 f3 ff ff    	mov    -0xce0(%rbp),%eax
  407f2e:	48 98                	cltq   
  407f30:	48 c1 e0 04          	shl    $0x4,%rax
  407f34:	48 01 e8             	add    %rbp,%rax
  407f37:	48 2d 84 0c 00 00    	sub    $0xc84,%rax
  407f3d:	f3 0f 10 00          	movss  (%rax),%xmm0
  407f41:	f3 0f 58 c1          	addss  %xmm1,%xmm0
  407f45:	f3 0f 11 85 6c f3 ff 	movss  %xmm0,-0xc94(%rbp)
  407f4c:	ff 
  407f4d:	83 85 20 f3 ff ff 01 	addl   $0x1,-0xce0(%rbp)
  407f54:	f3 0f 10 8d 60 f3 ff 	movss  -0xca0(%rbp),%xmm1
  407f5b:	ff 
  407f5c:	8b 85 20 f3 ff ff    	mov    -0xce0(%rbp),%eax
  407f62:	48 98                	cltq   
  407f64:	48 c1 e0 04          	shl    $0x4,%rax
  407f68:	48 01 e8             	add    %rbp,%rax
  407f6b:	48 2d 90 0c 00 00    	sub    $0xc90,%rax
  407f71:	f3 0f 10 00          	movss  (%rax),%xmm0
  407f75:	f3 0f 58 c1          	addss  %xmm1,%xmm0
  407f79:	f3 0f 11 85 60 f3 ff 	movss  %xmm0,-0xca0(%rbp)
  407f80:	ff 
  407f81:	f3 0f 10 8d 64 f3 ff 	movss  -0xc9c(%rbp),%xmm1
  407f88:	ff 
  407f89:	8b 85 20 f3 ff ff    	mov    -0xce0(%rbp),%eax
  407f8f:	48 98                	cltq   
  407f91:	48 c1 e0 04          	shl    $0x4,%rax
  407f95:	48 01 e8             	add    %rbp,%rax
  407f98:	48 2d 8c 0c 00 00    	sub    $0xc8c,%rax
  407f9e:	f3 0f 10 00          	movss  (%rax),%xmm0
  407fa2:	f3 0f 58 c1          	addss  %xmm1,%xmm0
  407fa6:	f3 0f 11 85 64 f3 ff 	movss  %xmm0,-0xc9c(%rbp)
  407fad:	ff 
  407fae:	f3 0f 10 8d 68 f3 ff 	movss  -0xc98(%rbp),%xmm1
  407fb5:	ff 
  407fb6:	8b 85 20 f3 ff ff    	mov    -0xce0(%rbp),%eax
  407fbc:	48 98                	cltq   
  407fbe:	48 c1 e0 04          	shl    $0x4,%rax
  407fc2:	48 01 e8             	add    %rbp,%rax
  407fc5:	48 2d 88 0c 00 00    	sub    $0xc88,%rax
  407fcb:	f3 0f 10 00          	movss  (%rax),%xmm0
  407fcf:	f3 0f 58 c1          	addss  %xmm1,%xmm0
  407fd3:	f3 0f 11 85 68 f3 ff 	movss  %xmm0,-0xc98(%rbp)
  407fda:	ff 
  407fdb:	f3 0f 10 8d 6c f3 ff 	movss  -0xc94(%rbp),%xmm1
  407fe2:	ff 
  407fe3:	8b 85 20 f3 ff ff    	mov    -0xce0(%rbp),%eax
  407fe9:	48 98                	cltq   
  407feb:	48 c1 e0 04          	shl    $0x4,%rax
  407fef:	48 01 e8             	add    %rbp,%rax
  407ff2:	48 2d 84 0c 00 00    	sub    $0xc84,%rax
  407ff8:	f3 0f 10 00          	movss  (%rax),%xmm0
  407ffc:	f3 0f 58 c1          	addss  %xmm1,%xmm0
  408000:	f3 0f 11 85 6c f3 ff 	movss  %xmm0,-0xc94(%rbp)
  408007:	ff 
  408008:	83 85 20 f3 ff ff 01 	addl   $0x1,-0xce0(%rbp)
  40800f:	f3 0f 10 8d 60 f3 ff 	movss  -0xca0(%rbp),%xmm1
  408016:	ff 
  408017:	8b 85 20 f3 ff ff    	mov    -0xce0(%rbp),%eax
  40801d:	48 98                	cltq   
  40801f:	48 c1 e0 04          	shl    $0x4,%rax
  408023:	48 01 e8             	add    %rbp,%rax
  408026:	48 2d 90 0c 00 00    	sub    $0xc90,%rax
  40802c:	f3 0f 10 00          	movss  (%rax),%xmm0
  408030:	f3 0f 58 c1          	addss  %xmm1,%xmm0
  408034:	f3 0f 11 85 60 f3 ff 	movss  %xmm0,-0xca0(%rbp)
  40803b:	ff 
  40803c:	f3 0f 10 8d 64 f3 ff 	movss  -0xc9c(%rbp),%xmm1
  408043:	ff 
  408044:	8b 85 20 f3 ff ff    	mov    -0xce0(%rbp),%eax
  40804a:	48 98                	cltq   
  40804c:	48 c1 e0 04          	shl    $0x4,%rax
  408050:	48 01 e8             	add    %rbp,%rax
  408053:	48 2d 8c 0c 00 00    	sub    $0xc8c,%rax
  408059:	f3 0f 10 00          	movss  (%rax),%xmm0
  40805d:	f3 0f 58 c1          	addss  %xmm1,%xmm0
  408061:	f3 0f 11 85 64 f3 ff 	movss  %xmm0,-0xc9c(%rbp)
  408068:	ff 
  408069:	f3 0f 10 8d 68 f3 ff 	movss  -0xc98(%rbp),%xmm1
  408070:	ff 
  408071:	8b 85 20 f3 ff ff    	mov    -0xce0(%rbp),%eax
  408077:	48 98                	cltq   
  408079:	48 c1 e0 04          	shl    $0x4,%rax
  40807d:	48 01 e8             	add    %rbp,%rax
  408080:	48 2d 88 0c 00 00    	sub    $0xc88,%rax
  408086:	f3 0f 10 00          	movss  (%rax),%xmm0
  40808a:	f3 0f 58 c1          	addss  %xmm1,%xmm0
  40808e:	f3 0f 11 85 68 f3 ff 	movss  %xmm0,-0xc98(%rbp)
  408095:	ff 
  408096:	f3 0f 10 8d 6c f3 ff 	movss  -0xc94(%rbp),%xmm1
  40809d:	ff 
  40809e:	8b 85 20 f3 ff ff    	mov    -0xce0(%rbp),%eax
  4080a4:	48 98                	cltq   
  4080a6:	48 c1 e0 04          	shl    $0x4,%rax
  4080aa:	48 01 e8             	add    %rbp,%rax
  4080ad:	48 2d 84 0c 00 00    	sub    $0xc84,%rax
  4080b3:	f3 0f 10 00          	movss  (%rax),%xmm0
  4080b7:	f3 0f 58 c1          	addss  %xmm1,%xmm0
  4080bb:	f3 0f 11 85 6c f3 ff 	movss  %xmm0,-0xc94(%rbp)
  4080c2:	ff 
  4080c3:	83 85 20 f3 ff ff 01 	addl   $0x1,-0xce0(%rbp)
  4080ca:	f3 0f 10 8d 60 f3 ff 	movss  -0xca0(%rbp),%xmm1
  4080d1:	ff 
  4080d2:	8b 85 20 f3 ff ff    	mov    -0xce0(%rbp),%eax
  4080d8:	48 98                	cltq   
  4080da:	48 c1 e0 04          	shl    $0x4,%rax
  4080de:	48 01 e8             	add    %rbp,%rax
  4080e1:	48 2d 90 0c 00 00    	sub    $0xc90,%rax
  4080e7:	f3 0f 10 00          	movss  (%rax),%xmm0
  4080eb:	f3 0f 58 c1          	addss  %xmm1,%xmm0
  4080ef:	f3 0f 11 85 60 f3 ff 	movss  %xmm0,-0xca0(%rbp)
  4080f6:	ff 
  4080f7:	f3 0f 10 8d 64 f3 ff 	movss  -0xc9c(%rbp),%xmm1
  4080fe:	ff 
  4080ff:	8b 85 20 f3 ff ff    	mov    -0xce0(%rbp),%eax
  408105:	48 98                	cltq   
  408107:	48 c1 e0 04          	shl    $0x4,%rax
  40810b:	48 01 e8             	add    %rbp,%rax
  40810e:	48 2d 8c 0c 00 00    	sub    $0xc8c,%rax
  408114:	f3 0f 10 00          	movss  (%rax),%xmm0
  408118:	f3 0f 58 c1          	addss  %xmm1,%xmm0
  40811c:	f3 0f 11 85 64 f3 ff 	movss  %xmm0,-0xc9c(%rbp)
  408123:	ff 
  408124:	f3 0f 10 8d 68 f3 ff 	movss  -0xc98(%rbp),%xmm1
  40812b:	ff 
  40812c:	8b 85 20 f3 ff ff    	mov    -0xce0(%rbp),%eax
  408132:	48 98                	cltq   
  408134:	48 c1 e0 04          	shl    $0x4,%rax
  408138:	48 01 e8             	add    %rbp,%rax
  40813b:	48 2d 88 0c 00 00    	sub    $0xc88,%rax
  408141:	f3 0f 10 00          	movss  (%rax),%xmm0
  408145:	f3 0f 58 c1          	addss  %xmm1,%xmm0
  408149:	f3 0f 11 85 68 f3 ff 	movss  %xmm0,-0xc98(%rbp)
  408150:	ff 
  408151:	f3 0f 10 8d 6c f3 ff 	movss  -0xc94(%rbp),%xmm1
  408158:	ff 
  408159:	8b 85 20 f3 ff ff    	mov    -0xce0(%rbp),%eax
  40815f:	48 98                	cltq   
  408161:	48 c1 e0 04          	shl    $0x4,%rax
  408165:	48 01 e8             	add    %rbp,%rax
  408168:	48 2d 84 0c 00 00    	sub    $0xc84,%rax
  40816e:	f3 0f 10 00          	movss  (%rax),%xmm0
  408172:	f3 0f 58 c1          	addss  %xmm1,%xmm0
  408176:	f3 0f 11 85 6c f3 ff 	movss  %xmm0,-0xc94(%rbp)
  40817d:	ff 
  40817e:	83 85 20 f3 ff ff 01 	addl   $0x1,-0xce0(%rbp)
  408185:	f3 0f 10 8d 60 f3 ff 	movss  -0xca0(%rbp),%xmm1
  40818c:	ff 
  40818d:	8b 85 20 f3 ff ff    	mov    -0xce0(%rbp),%eax
  408193:	48 98                	cltq   
  408195:	48 c1 e0 04          	shl    $0x4,%rax
  408199:	48 01 e8             	add    %rbp,%rax
  40819c:	48 2d 90 0c 00 00    	sub    $0xc90,%rax
  4081a2:	f3 0f 10 00          	movss  (%rax),%xmm0
  4081a6:	f3 0f 58 c1          	addss  %xmm1,%xmm0
  4081aa:	f3 0f 11 85 60 f3 ff 	movss  %xmm0,-0xca0(%rbp)
  4081b1:	ff 
  4081b2:	f3 0f 10 8d 64 f3 ff 	movss  -0xc9c(%rbp),%xmm1
  4081b9:	ff 
  4081ba:	8b 85 20 f3 ff ff    	mov    -0xce0(%rbp),%eax
  4081c0:	48 98                	cltq   
  4081c2:	48 c1 e0 04          	shl    $0x4,%rax
  4081c6:	48 01 e8             	add    %rbp,%rax
  4081c9:	48 2d 8c 0c 00 00    	sub    $0xc8c,%rax
  4081cf:	f3 0f 10 00          	movss  (%rax),%xmm0
  4081d3:	f3 0f 58 c1          	addss  %xmm1,%xmm0
  4081d7:	f3 0f 11 85 64 f3 ff 	movss  %xmm0,-0xc9c(%rbp)
  4081de:	ff 
  4081df:	f3 0f 10 8d 68 f3 ff 	movss  -0xc98(%rbp),%xmm1
  4081e6:	ff 
  4081e7:	8b 85 20 f3 ff ff    	mov    -0xce0(%rbp),%eax
  4081ed:	48 98                	cltq   
  4081ef:	48 c1 e0 04          	shl    $0x4,%rax
  4081f3:	48 01 e8             	add    %rbp,%rax
  4081f6:	48 2d 88 0c 00 00    	sub    $0xc88,%rax
  4081fc:	f3 0f 10 00          	movss  (%rax),%xmm0
  408200:	f3 0f 58 c1          	addss  %xmm1,%xmm0
  408204:	f3 0f 11 85 68 f3 ff 	movss  %xmm0,-0xc98(%rbp)
  40820b:	ff 
  40820c:	f3 0f 10 8d 6c f3 ff 	movss  -0xc94(%rbp),%xmm1
  408213:	ff 
  408214:	8b 85 20 f3 ff ff    	mov    -0xce0(%rbp),%eax
  40821a:	48 98                	cltq   
  40821c:	48 c1 e0 04          	shl    $0x4,%rax
  408220:	48 01 e8             	add    %rbp,%rax
  408223:	48 2d 84 0c 00 00    	sub    $0xc84,%rax
  408229:	f3 0f 10 00          	movss  (%rax),%xmm0
  40822d:	f3 0f 58 c1          	addss  %xmm1,%xmm0
  408231:	f3 0f 11 85 6c f3 ff 	movss  %xmm0,-0xc94(%rbp)
  408238:	ff 
  408239:	83 85 20 f3 ff ff 01 	addl   $0x1,-0xce0(%rbp)
  408240:	f3 0f 10 8d 60 f3 ff 	movss  -0xca0(%rbp),%xmm1
  408247:	ff 
  408248:	8b 85 20 f3 ff ff    	mov    -0xce0(%rbp),%eax
  40824e:	48 98                	cltq   
  408250:	48 c1 e0 04          	shl    $0x4,%rax
  408254:	48 01 e8             	add    %rbp,%rax
  408257:	48 2d 90 0c 00 00    	sub    $0xc90,%rax
  40825d:	f3 0f 10 00          	movss  (%rax),%xmm0
  408261:	f3 0f 58 c1          	addss  %xmm1,%xmm0
  408265:	f3 0f 11 85 60 f3 ff 	movss  %xmm0,-0xca0(%rbp)
  40826c:	ff 
  40826d:	f3 0f 10 8d 64 f3 ff 	movss  -0xc9c(%rbp),%xmm1
  408274:	ff 
  408275:	8b 85 20 f3 ff ff    	mov    -0xce0(%rbp),%eax
  40827b:	48 98                	cltq   
  40827d:	48 c1 e0 04          	shl    $0x4,%rax
  408281:	48 01 e8             	add    %rbp,%rax
  408284:	48 2d 8c 0c 00 00    	sub    $0xc8c,%rax
  40828a:	f3 0f 10 00          	movss  (%rax),%xmm0
  40828e:	f3 0f 58 c1          	addss  %xmm1,%xmm0
  408292:	f3 0f 11 85 64 f3 ff 	movss  %xmm0,-0xc9c(%rbp)
  408299:	ff 
  40829a:	f3 0f 10 8d 68 f3 ff 	movss  -0xc98(%rbp),%xmm1
  4082a1:	ff 
  4082a2:	8b 85 20 f3 ff ff    	mov    -0xce0(%rbp),%eax
  4082a8:	48 98                	cltq   
  4082aa:	48 c1 e0 04          	shl    $0x4,%rax
  4082ae:	48 01 e8             	add    %rbp,%rax
  4082b1:	48 2d 88 0c 00 00    	sub    $0xc88,%rax
  4082b7:	f3 0f 10 00          	movss  (%rax),%xmm0
  4082bb:	f3 0f 58 c1          	addss  %xmm1,%xmm0
  4082bf:	f3 0f 11 85 68 f3 ff 	movss  %xmm0,-0xc98(%rbp)
  4082c6:	ff 
  4082c7:	f3 0f 10 8d 6c f3 ff 	movss  -0xc94(%rbp),%xmm1
  4082ce:	ff 
  4082cf:	8b 85 20 f3 ff ff    	mov    -0xce0(%rbp),%eax
  4082d5:	48 98                	cltq   
  4082d7:	48 c1 e0 04          	shl    $0x4,%rax
  4082db:	48 01 e8             	add    %rbp,%rax
  4082de:	48 2d 84 0c 00 00    	sub    $0xc84,%rax
  4082e4:	f3 0f 10 00          	movss  (%rax),%xmm0
  4082e8:	f3 0f 58 c1          	addss  %xmm1,%xmm0
  4082ec:	f3 0f 11 85 6c f3 ff 	movss  %xmm0,-0xc94(%rbp)
  4082f3:	ff 
  4082f4:	83 85 20 f3 ff ff 01 	addl   $0x1,-0xce0(%rbp)
  4082fb:	f3 0f 10 8d 60 f3 ff 	movss  -0xca0(%rbp),%xmm1
  408302:	ff 
  408303:	8b 85 20 f3 ff ff    	mov    -0xce0(%rbp),%eax
  408309:	48 98                	cltq   
  40830b:	48 c1 e0 04          	shl    $0x4,%rax
  40830f:	48 01 e8             	add    %rbp,%rax
  408312:	48 2d 90 0c 00 00    	sub    $0xc90,%rax
  408318:	f3 0f 10 00          	movss  (%rax),%xmm0
  40831c:	f3 0f 58 c1          	addss  %xmm1,%xmm0
  408320:	f3 0f 11 85 60 f3 ff 	movss  %xmm0,-0xca0(%rbp)
  408327:	ff 
  408328:	f3 0f 10 8d 64 f3 ff 	movss  -0xc9c(%rbp),%xmm1
  40832f:	ff 
  408330:	8b 85 20 f3 ff ff    	mov    -0xce0(%rbp),%eax
  408336:	48 98                	cltq   
  408338:	48 c1 e0 04          	shl    $0x4,%rax
  40833c:	48 01 e8             	add    %rbp,%rax
  40833f:	48 2d 8c 0c 00 00    	sub    $0xc8c,%rax
  408345:	f3 0f 10 00          	movss  (%rax),%xmm0
  408349:	f3 0f 58 c1          	addss  %xmm1,%xmm0
  40834d:	f3 0f 11 85 64 f3 ff 	movss  %xmm0,-0xc9c(%rbp)
  408354:	ff 
  408355:	f3 0f 10 8d 68 f3 ff 	movss  -0xc98(%rbp),%xmm1
  40835c:	ff 
  40835d:	8b 85 20 f3 ff ff    	mov    -0xce0(%rbp),%eax
  408363:	48 98                	cltq   
  408365:	48 c1 e0 04          	shl    $0x4,%rax
  408369:	48 01 e8             	add    %rbp,%rax
  40836c:	48 2d 88 0c 00 00    	sub    $0xc88,%rax
  408372:	f3 0f 10 00          	movss  (%rax),%xmm0
  408376:	f3 0f 58 c1          	addss  %xmm1,%xmm0
  40837a:	f3 0f 11 85 68 f3 ff 	movss  %xmm0,-0xc98(%rbp)
  408381:	ff 
  408382:	f3 0f 10 8d 6c f3 ff 	movss  -0xc94(%rbp),%xmm1
  408389:	ff 
  40838a:	8b 85 20 f3 ff ff    	mov    -0xce0(%rbp),%eax
  408390:	48 98                	cltq   
  408392:	48 c1 e0 04          	shl    $0x4,%rax
  408396:	48 01 e8             	add    %rbp,%rax
  408399:	48 2d 84 0c 00 00    	sub    $0xc84,%rax
  40839f:	f3 0f 10 00          	movss  (%rax),%xmm0
  4083a3:	f3 0f 58 c1          	addss  %xmm1,%xmm0
  4083a7:	f3 0f 11 85 6c f3 ff 	movss  %xmm0,-0xc94(%rbp)
  4083ae:	ff 
  4083af:	83 85 20 f3 ff ff 01 	addl   $0x1,-0xce0(%rbp)
  4083b6:	f3 0f 10 8d 60 f3 ff 	movss  -0xca0(%rbp),%xmm1
  4083bd:	ff 
  4083be:	8b 85 20 f3 ff ff    	mov    -0xce0(%rbp),%eax
  4083c4:	48 98                	cltq   
  4083c6:	48 c1 e0 04          	shl    $0x4,%rax
  4083ca:	48 01 e8             	add    %rbp,%rax
  4083cd:	48 2d 90 0c 00 00    	sub    $0xc90,%rax
  4083d3:	f3 0f 10 00          	movss  (%rax),%xmm0
  4083d7:	f3 0f 58 c1          	addss  %xmm1,%xmm0
  4083db:	f3 0f 11 85 60 f3 ff 	movss  %xmm0,-0xca0(%rbp)
  4083e2:	ff 
  4083e3:	f3 0f 10 8d 64 f3 ff 	movss  -0xc9c(%rbp),%xmm1
  4083ea:	ff 
  4083eb:	8b 85 20 f3 ff ff    	mov    -0xce0(%rbp),%eax
  4083f1:	48 98                	cltq   
  4083f3:	48 c1 e0 04          	shl    $0x4,%rax
  4083f7:	48 01 e8             	add    %rbp,%rax
  4083fa:	48 2d 8c 0c 00 00    	sub    $0xc8c,%rax
  408400:	f3 0f 10 00          	movss  (%rax),%xmm0
  408404:	f3 0f 58 c1          	addss  %xmm1,%xmm0
  408408:	f3 0f 11 85 64 f3 ff 	movss  %xmm0,-0xc9c(%rbp)
  40840f:	ff 
  408410:	f3 0f 10 8d 68 f3 ff 	movss  -0xc98(%rbp),%xmm1
  408417:	ff 
  408418:	8b 85 20 f3 ff ff    	mov    -0xce0(%rbp),%eax
  40841e:	48 98                	cltq   
  408420:	48 c1 e0 04          	shl    $0x4,%rax
  408424:	48 01 e8             	add    %rbp,%rax
  408427:	48 2d 88 0c 00 00    	sub    $0xc88,%rax
  40842d:	f3 0f 10 00          	movss  (%rax),%xmm0
  408431:	f3 0f 58 c1          	addss  %xmm1,%xmm0
  408435:	f3 0f 11 85 68 f3 ff 	movss  %xmm0,-0xc98(%rbp)
  40843c:	ff 
  40843d:	f3 0f 10 8d 6c f3 ff 	movss  -0xc94(%rbp),%xmm1
  408444:	ff 
  408445:	8b 85 20 f3 ff ff    	mov    -0xce0(%rbp),%eax
  40844b:	48 98                	cltq   
  40844d:	48 c1 e0 04          	shl    $0x4,%rax
  408451:	48 01 e8             	add    %rbp,%rax
  408454:	48 2d 84 0c 00 00    	sub    $0xc84,%rax
  40845a:	f3 0f 10 00          	movss  (%rax),%xmm0
  40845e:	f3 0f 58 c1          	addss  %xmm1,%xmm0
  408462:	f3 0f 11 85 6c f3 ff 	movss  %xmm0,-0xc94(%rbp)
  408469:	ff 
  40846a:	83 85 20 f3 ff ff 01 	addl   $0x1,-0xce0(%rbp)
  408471:	f3 0f 10 8d 60 f3 ff 	movss  -0xca0(%rbp),%xmm1
  408478:	ff 
  408479:	8b 85 20 f3 ff ff    	mov    -0xce0(%rbp),%eax
  40847f:	48 98                	cltq   
  408481:	48 c1 e0 04          	shl    $0x4,%rax
  408485:	48 01 e8             	add    %rbp,%rax
  408488:	48 2d 90 0c 00 00    	sub    $0xc90,%rax
  40848e:	f3 0f 10 00          	movss  (%rax),%xmm0
  408492:	f3 0f 58 c1          	addss  %xmm1,%xmm0
  408496:	f3 0f 11 85 60 f3 ff 	movss  %xmm0,-0xca0(%rbp)
  40849d:	ff 
  40849e:	f3 0f 10 8d 64 f3 ff 	movss  -0xc9c(%rbp),%xmm1
  4084a5:	ff 
  4084a6:	8b 85 20 f3 ff ff    	mov    -0xce0(%rbp),%eax
  4084ac:	48 98                	cltq   
  4084ae:	48 c1 e0 04          	shl    $0x4,%rax
  4084b2:	48 01 e8             	add    %rbp,%rax
  4084b5:	48 2d 8c 0c 00 00    	sub    $0xc8c,%rax
  4084bb:	f3 0f 10 00          	movss  (%rax),%xmm0
  4084bf:	f3 0f 58 c1          	addss  %xmm1,%xmm0
  4084c3:	f3 0f 11 85 64 f3 ff 	movss  %xmm0,-0xc9c(%rbp)
  4084ca:	ff 
  4084cb:	f3 0f 10 8d 68 f3 ff 	movss  -0xc98(%rbp),%xmm1
  4084d2:	ff 
  4084d3:	8b 85 20 f3 ff ff    	mov    -0xce0(%rbp),%eax
  4084d9:	48 98                	cltq   
  4084db:	48 c1 e0 04          	shl    $0x4,%rax
  4084df:	48 01 e8             	add    %rbp,%rax
  4084e2:	48 2d 88 0c 00 00    	sub    $0xc88,%rax
  4084e8:	f3 0f 10 00          	movss  (%rax),%xmm0
  4084ec:	f3 0f 58 c1          	addss  %xmm1,%xmm0
  4084f0:	f3 0f 11 85 68 f3 ff 	movss  %xmm0,-0xc98(%rbp)
  4084f7:	ff 
  4084f8:	f3 0f 10 8d 6c f3 ff 	movss  -0xc94(%rbp),%xmm1
  4084ff:	ff 
  408500:	8b 85 20 f3 ff ff    	mov    -0xce0(%rbp),%eax
  408506:	48 98                	cltq   
  408508:	48 c1 e0 04          	shl    $0x4,%rax
  40850c:	48 01 e8             	add    %rbp,%rax
  40850f:	48 2d 84 0c 00 00    	sub    $0xc84,%rax
  408515:	f3 0f 10 00          	movss  (%rax),%xmm0
  408519:	f3 0f 58 c1          	addss  %xmm1,%xmm0
  40851d:	f3 0f 11 85 6c f3 ff 	movss  %xmm0,-0xc94(%rbp)
  408524:	ff 
  408525:	83 85 20 f3 ff ff 01 	addl   $0x1,-0xce0(%rbp)
  40852c:	f3 0f 10 8d 60 f3 ff 	movss  -0xca0(%rbp),%xmm1
  408533:	ff 
  408534:	8b 85 20 f3 ff ff    	mov    -0xce0(%rbp),%eax
  40853a:	48 98                	cltq   
  40853c:	48 c1 e0 04          	shl    $0x4,%rax
  408540:	48 01 e8             	add    %rbp,%rax
  408543:	48 2d 90 0c 00 00    	sub    $0xc90,%rax
  408549:	f3 0f 10 00          	movss  (%rax),%xmm0
  40854d:	f3 0f 58 c1          	addss  %xmm1,%xmm0
  408551:	f3 0f 11 85 60 f3 ff 	movss  %xmm0,-0xca0(%rbp)
  408558:	ff 
  408559:	f3 0f 10 8d 64 f3 ff 	movss  -0xc9c(%rbp),%xmm1
  408560:	ff 
  408561:	8b 85 20 f3 ff ff    	mov    -0xce0(%rbp),%eax
  408567:	48 98                	cltq   
  408569:	48 c1 e0 04          	shl    $0x4,%rax
  40856d:	48 01 e8             	add    %rbp,%rax
  408570:	48 2d 8c 0c 00 00    	sub    $0xc8c,%rax
  408576:	f3 0f 10 00          	movss  (%rax),%xmm0
  40857a:	f3 0f 58 c1          	addss  %xmm1,%xmm0
  40857e:	f3 0f 11 85 64 f3 ff 	movss  %xmm0,-0xc9c(%rbp)
  408585:	ff 
  408586:	f3 0f 10 8d 68 f3 ff 	movss  -0xc98(%rbp),%xmm1
  40858d:	ff 
  40858e:	8b 85 20 f3 ff ff    	mov    -0xce0(%rbp),%eax
  408594:	48 98                	cltq   
  408596:	48 c1 e0 04          	shl    $0x4,%rax
  40859a:	48 01 e8             	add    %rbp,%rax
  40859d:	48 2d 88 0c 00 00    	sub    $0xc88,%rax
  4085a3:	f3 0f 10 00          	movss  (%rax),%xmm0
  4085a7:	f3 0f 58 c1          	addss  %xmm1,%xmm0
  4085ab:	f3 0f 11 85 68 f3 ff 	movss  %xmm0,-0xc98(%rbp)
  4085b2:	ff 
  4085b3:	f3 0f 10 8d 6c f3 ff 	movss  -0xc94(%rbp),%xmm1
  4085ba:	ff 
  4085bb:	8b 85 20 f3 ff ff    	mov    -0xce0(%rbp),%eax
  4085c1:	48 98                	cltq   
  4085c3:	48 c1 e0 04          	shl    $0x4,%rax
  4085c7:	48 01 e8             	add    %rbp,%rax
  4085ca:	48 2d 84 0c 00 00    	sub    $0xc84,%rax
  4085d0:	f3 0f 10 00          	movss  (%rax),%xmm0
  4085d4:	f3 0f 58 c1          	addss  %xmm1,%xmm0
  4085d8:	f3 0f 11 85 6c f3 ff 	movss  %xmm0,-0xc94(%rbp)
  4085df:	ff 
  4085e0:	83 85 20 f3 ff ff 01 	addl   $0x1,-0xce0(%rbp)
  4085e7:	f3 0f 10 8d 60 f3 ff 	movss  -0xca0(%rbp),%xmm1
  4085ee:	ff 
  4085ef:	8b 85 20 f3 ff ff    	mov    -0xce0(%rbp),%eax
  4085f5:	48 98                	cltq   
  4085f7:	48 c1 e0 04          	shl    $0x4,%rax
  4085fb:	48 01 e8             	add    %rbp,%rax
  4085fe:	48 2d 90 0c 00 00    	sub    $0xc90,%rax
  408604:	f3 0f 10 00          	movss  (%rax),%xmm0
  408608:	f3 0f 58 c1          	addss  %xmm1,%xmm0
  40860c:	f3 0f 11 85 60 f3 ff 	movss  %xmm0,-0xca0(%rbp)
  408613:	ff 
  408614:	f3 0f 10 8d 64 f3 ff 	movss  -0xc9c(%rbp),%xmm1
  40861b:	ff 
  40861c:	8b 85 20 f3 ff ff    	mov    -0xce0(%rbp),%eax
  408622:	48 98                	cltq   
  408624:	48 c1 e0 04          	shl    $0x4,%rax
  408628:	48 01 e8             	add    %rbp,%rax
  40862b:	48 2d 8c 0c 00 00    	sub    $0xc8c,%rax
  408631:	f3 0f 10 00          	movss  (%rax),%xmm0
  408635:	f3 0f 58 c1          	addss  %xmm1,%xmm0
  408639:	f3 0f 11 85 64 f3 ff 	movss  %xmm0,-0xc9c(%rbp)
  408640:	ff 
  408641:	f3 0f 10 8d 68 f3 ff 	movss  -0xc98(%rbp),%xmm1
  408648:	ff 
  408649:	8b 85 20 f3 ff ff    	mov    -0xce0(%rbp),%eax
  40864f:	48 98                	cltq   
  408651:	48 c1 e0 04          	shl    $0x4,%rax
  408655:	48 01 e8             	add    %rbp,%rax
  408658:	48 2d 88 0c 00 00    	sub    $0xc88,%rax
  40865e:	f3 0f 10 00          	movss  (%rax),%xmm0
  408662:	f3 0f 58 c1          	addss  %xmm1,%xmm0
  408666:	f3 0f 11 85 68 f3 ff 	movss  %xmm0,-0xc98(%rbp)
  40866d:	ff 
  40866e:	f3 0f 10 8d 6c f3 ff 	movss  -0xc94(%rbp),%xmm1
  408675:	ff 
  408676:	8b 85 20 f3 ff ff    	mov    -0xce0(%rbp),%eax
  40867c:	48 98                	cltq   
  40867e:	48 c1 e0 04          	shl    $0x4,%rax
  408682:	48 01 e8             	add    %rbp,%rax
  408685:	48 2d 84 0c 00 00    	sub    $0xc84,%rax
  40868b:	f3 0f 10 00          	movss  (%rax),%xmm0
  40868f:	f3 0f 58 c1          	addss  %xmm1,%xmm0
  408693:	f3 0f 11 85 6c f3 ff 	movss  %xmm0,-0xc94(%rbp)
  40869a:	ff 
  40869b:	83 85 20 f3 ff ff 01 	addl   $0x1,-0xce0(%rbp)
  4086a2:	f3 0f 10 8d 60 f3 ff 	movss  -0xca0(%rbp),%xmm1
  4086a9:	ff 
  4086aa:	8b 85 20 f3 ff ff    	mov    -0xce0(%rbp),%eax
  4086b0:	48 98                	cltq   
  4086b2:	48 c1 e0 04          	shl    $0x4,%rax
  4086b6:	48 01 e8             	add    %rbp,%rax
  4086b9:	48 2d 90 0c 00 00    	sub    $0xc90,%rax
  4086bf:	f3 0f 10 00          	movss  (%rax),%xmm0
  4086c3:	f3 0f 58 c1          	addss  %xmm1,%xmm0
  4086c7:	f3 0f 11 85 60 f3 ff 	movss  %xmm0,-0xca0(%rbp)
  4086ce:	ff 
  4086cf:	f3 0f 10 8d 64 f3 ff 	movss  -0xc9c(%rbp),%xmm1
  4086d6:	ff 
  4086d7:	8b 85 20 f3 ff ff    	mov    -0xce0(%rbp),%eax
  4086dd:	48 98                	cltq   
  4086df:	48 c1 e0 04          	shl    $0x4,%rax
  4086e3:	48 01 e8             	add    %rbp,%rax
  4086e6:	48 2d 8c 0c 00 00    	sub    $0xc8c,%rax
  4086ec:	f3 0f 10 00          	movss  (%rax),%xmm0
  4086f0:	f3 0f 58 c1          	addss  %xmm1,%xmm0
  4086f4:	f3 0f 11 85 64 f3 ff 	movss  %xmm0,-0xc9c(%rbp)
  4086fb:	ff 
  4086fc:	f3 0f 10 8d 68 f3 ff 	movss  -0xc98(%rbp),%xmm1
  408703:	ff 
  408704:	8b 85 20 f3 ff ff    	mov    -0xce0(%rbp),%eax
  40870a:	48 98                	cltq   
  40870c:	48 c1 e0 04          	shl    $0x4,%rax
  408710:	48 01 e8             	add    %rbp,%rax
  408713:	48 2d 88 0c 00 00    	sub    $0xc88,%rax
  408719:	f3 0f 10 00          	movss  (%rax),%xmm0
  40871d:	f3 0f 58 c1          	addss  %xmm1,%xmm0
  408721:	f3 0f 11 85 68 f3 ff 	movss  %xmm0,-0xc98(%rbp)
  408728:	ff 
  408729:	f3 0f 10 8d 6c f3 ff 	movss  -0xc94(%rbp),%xmm1
  408730:	ff 
  408731:	8b 85 20 f3 ff ff    	mov    -0xce0(%rbp),%eax
  408737:	48 98                	cltq   
  408739:	48 c1 e0 04          	shl    $0x4,%rax
  40873d:	48 01 e8             	add    %rbp,%rax
  408740:	48 2d 84 0c 00 00    	sub    $0xc84,%rax
  408746:	f3 0f 10 00          	movss  (%rax),%xmm0
  40874a:	f3 0f 58 c1          	addss  %xmm1,%xmm0
  40874e:	f3 0f 11 85 6c f3 ff 	movss  %xmm0,-0xc94(%rbp)
  408755:	ff 
  408756:	83 85 20 f3 ff ff 01 	addl   $0x1,-0xce0(%rbp)
  40875d:	f3 0f 10 8d 60 f3 ff 	movss  -0xca0(%rbp),%xmm1
  408764:	ff 
  408765:	8b 85 20 f3 ff ff    	mov    -0xce0(%rbp),%eax
  40876b:	48 98                	cltq   
  40876d:	48 c1 e0 04          	shl    $0x4,%rax
  408771:	48 01 e8             	add    %rbp,%rax
  408774:	48 2d 90 0c 00 00    	sub    $0xc90,%rax
  40877a:	f3 0f 10 00          	movss  (%rax),%xmm0
  40877e:	f3 0f 58 c1          	addss  %xmm1,%xmm0
  408782:	f3 0f 11 85 60 f3 ff 	movss  %xmm0,-0xca0(%rbp)
  408789:	ff 
  40878a:	f3 0f 10 8d 64 f3 ff 	movss  -0xc9c(%rbp),%xmm1
  408791:	ff 
  408792:	8b 85 20 f3 ff ff    	mov    -0xce0(%rbp),%eax
  408798:	48 98                	cltq   
  40879a:	48 c1 e0 04          	shl    $0x4,%rax
  40879e:	48 01 e8             	add    %rbp,%rax
  4087a1:	48 2d 8c 0c 00 00    	sub    $0xc8c,%rax
  4087a7:	f3 0f 10 00          	movss  (%rax),%xmm0
  4087ab:	f3 0f 58 c1          	addss  %xmm1,%xmm0
  4087af:	f3 0f 11 85 64 f3 ff 	movss  %xmm0,-0xc9c(%rbp)
  4087b6:	ff 
  4087b7:	f3 0f 10 8d 68 f3 ff 	movss  -0xc98(%rbp),%xmm1
  4087be:	ff 
  4087bf:	8b 85 20 f3 ff ff    	mov    -0xce0(%rbp),%eax
  4087c5:	48 98                	cltq   
  4087c7:	48 c1 e0 04          	shl    $0x4,%rax
  4087cb:	48 01 e8             	add    %rbp,%rax
  4087ce:	48 2d 88 0c 00 00    	sub    $0xc88,%rax
  4087d4:	f3 0f 10 00          	movss  (%rax),%xmm0
  4087d8:	f3 0f 58 c1          	addss  %xmm1,%xmm0
  4087dc:	f3 0f 11 85 68 f3 ff 	movss  %xmm0,-0xc98(%rbp)
  4087e3:	ff 
  4087e4:	f3 0f 10 8d 6c f3 ff 	movss  -0xc94(%rbp),%xmm1
  4087eb:	ff 
  4087ec:	8b 85 20 f3 ff ff    	mov    -0xce0(%rbp),%eax
  4087f2:	48 98                	cltq   
  4087f4:	48 c1 e0 04          	shl    $0x4,%rax
  4087f8:	48 01 e8             	add    %rbp,%rax
  4087fb:	48 2d 84 0c 00 00    	sub    $0xc84,%rax
  408801:	f3 0f 10 00          	movss  (%rax),%xmm0
  408805:	f3 0f 58 c1          	addss  %xmm1,%xmm0
  408809:	f3 0f 11 85 6c f3 ff 	movss  %xmm0,-0xc94(%rbp)
  408810:	ff 
  408811:	83 85 20 f3 ff ff 01 	addl   $0x1,-0xce0(%rbp)
  408818:	f3 0f 10 8d 60 f3 ff 	movss  -0xca0(%rbp),%xmm1
  40881f:	ff 
  408820:	8b 85 20 f3 ff ff    	mov    -0xce0(%rbp),%eax
  408826:	48 98                	cltq   
  408828:	48 c1 e0 04          	shl    $0x4,%rax
  40882c:	48 01 e8             	add    %rbp,%rax
  40882f:	48 2d 90 0c 00 00    	sub    $0xc90,%rax
  408835:	f3 0f 10 00          	movss  (%rax),%xmm0
  408839:	f3 0f 58 c1          	addss  %xmm1,%xmm0
  40883d:	f3 0f 11 85 60 f3 ff 	movss  %xmm0,-0xca0(%rbp)
  408844:	ff 
  408845:	f3 0f 10 8d 64 f3 ff 	movss  -0xc9c(%rbp),%xmm1
  40884c:	ff 
  40884d:	8b 85 20 f3 ff ff    	mov    -0xce0(%rbp),%eax
  408853:	48 98                	cltq   
  408855:	48 c1 e0 04          	shl    $0x4,%rax
  408859:	48 01 e8             	add    %rbp,%rax
  40885c:	48 2d 8c 0c 00 00    	sub    $0xc8c,%rax
  408862:	f3 0f 10 00          	movss  (%rax),%xmm0
  408866:	f3 0f 58 c1          	addss  %xmm1,%xmm0
  40886a:	f3 0f 11 85 64 f3 ff 	movss  %xmm0,-0xc9c(%rbp)
  408871:	ff 
  408872:	f3 0f 10 8d 68 f3 ff 	movss  -0xc98(%rbp),%xmm1
  408879:	ff 
  40887a:	8b 85 20 f3 ff ff    	mov    -0xce0(%rbp),%eax
  408880:	48 98                	cltq   
  408882:	48 c1 e0 04          	shl    $0x4,%rax
  408886:	48 01 e8             	add    %rbp,%rax
  408889:	48 2d 88 0c 00 00    	sub    $0xc88,%rax
  40888f:	f3 0f 10 00          	movss  (%rax),%xmm0
  408893:	f3 0f 58 c1          	addss  %xmm1,%xmm0
  408897:	f3 0f 11 85 68 f3 ff 	movss  %xmm0,-0xc98(%rbp)
  40889e:	ff 
  40889f:	f3 0f 10 8d 6c f3 ff 	movss  -0xc94(%rbp),%xmm1
  4088a6:	ff 
  4088a7:	8b 85 20 f3 ff ff    	mov    -0xce0(%rbp),%eax
  4088ad:	48 98                	cltq   
  4088af:	48 c1 e0 04          	shl    $0x4,%rax
  4088b3:	48 01 e8             	add    %rbp,%rax
  4088b6:	48 2d 84 0c 00 00    	sub    $0xc84,%rax
  4088bc:	f3 0f 10 00          	movss  (%rax),%xmm0
  4088c0:	f3 0f 58 c1          	addss  %xmm1,%xmm0
  4088c4:	f3 0f 11 85 6c f3 ff 	movss  %xmm0,-0xc94(%rbp)
  4088cb:	ff 
  4088cc:	83 85 20 f3 ff ff 01 	addl   $0x1,-0xce0(%rbp)
  4088d3:	f3 0f 10 8d 60 f3 ff 	movss  -0xca0(%rbp),%xmm1
  4088da:	ff 
  4088db:	8b 85 20 f3 ff ff    	mov    -0xce0(%rbp),%eax
  4088e1:	48 98                	cltq   
  4088e3:	48 c1 e0 04          	shl    $0x4,%rax
  4088e7:	48 01 e8             	add    %rbp,%rax
  4088ea:	48 2d 90 0c 00 00    	sub    $0xc90,%rax
  4088f0:	f3 0f 10 00          	movss  (%rax),%xmm0
  4088f4:	f3 0f 58 c1          	addss  %xmm1,%xmm0
  4088f8:	f3 0f 11 85 60 f3 ff 	movss  %xmm0,-0xca0(%rbp)
  4088ff:	ff 
  408900:	f3 0f 10 8d 64 f3 ff 	movss  -0xc9c(%rbp),%xmm1
  408907:	ff 
  408908:	8b 85 20 f3 ff ff    	mov    -0xce0(%rbp),%eax
  40890e:	48 98                	cltq   
  408910:	48 c1 e0 04          	shl    $0x4,%rax
  408914:	48 01 e8             	add    %rbp,%rax
  408917:	48 2d 8c 0c 00 00    	sub    $0xc8c,%rax
  40891d:	f3 0f 10 00          	movss  (%rax),%xmm0
  408921:	f3 0f 58 c1          	addss  %xmm1,%xmm0
  408925:	f3 0f 11 85 64 f3 ff 	movss  %xmm0,-0xc9c(%rbp)
  40892c:	ff 
  40892d:	f3 0f 10 8d 68 f3 ff 	movss  -0xc98(%rbp),%xmm1
  408934:	ff 
  408935:	8b 85 20 f3 ff ff    	mov    -0xce0(%rbp),%eax
  40893b:	48 98                	cltq   
  40893d:	48 c1 e0 04          	shl    $0x4,%rax
  408941:	48 01 e8             	add    %rbp,%rax
  408944:	48 2d 88 0c 00 00    	sub    $0xc88,%rax
  40894a:	f3 0f 10 00          	movss  (%rax),%xmm0
  40894e:	f3 0f 58 c1          	addss  %xmm1,%xmm0
  408952:	f3 0f 11 85 68 f3 ff 	movss  %xmm0,-0xc98(%rbp)
  408959:	ff 
  40895a:	f3 0f 10 8d 6c f3 ff 	movss  -0xc94(%rbp),%xmm1
  408961:	ff 
  408962:	8b 85 20 f3 ff ff    	mov    -0xce0(%rbp),%eax
  408968:	48 98                	cltq   
  40896a:	48 c1 e0 04          	shl    $0x4,%rax
  40896e:	48 01 e8             	add    %rbp,%rax
  408971:	48 2d 84 0c 00 00    	sub    $0xc84,%rax
  408977:	f3 0f 10 00          	movss  (%rax),%xmm0
  40897b:	f3 0f 58 c1          	addss  %xmm1,%xmm0
  40897f:	f3 0f 11 85 6c f3 ff 	movss  %xmm0,-0xc94(%rbp)
  408986:	ff 
  408987:	83 85 20 f3 ff ff 01 	addl   $0x1,-0xce0(%rbp)
  40898e:	f3 0f 10 8d 60 f3 ff 	movss  -0xca0(%rbp),%xmm1
  408995:	ff 
  408996:	8b 85 20 f3 ff ff    	mov    -0xce0(%rbp),%eax
  40899c:	48 98                	cltq   
  40899e:	48 c1 e0 04          	shl    $0x4,%rax
  4089a2:	48 01 e8             	add    %rbp,%rax
  4089a5:	48 2d 90 0c 00 00    	sub    $0xc90,%rax
  4089ab:	f3 0f 10 00          	movss  (%rax),%xmm0
  4089af:	f3 0f 58 c1          	addss  %xmm1,%xmm0
  4089b3:	f3 0f 11 85 60 f3 ff 	movss  %xmm0,-0xca0(%rbp)
  4089ba:	ff 
  4089bb:	f3 0f 10 8d 64 f3 ff 	movss  -0xc9c(%rbp),%xmm1
  4089c2:	ff 
  4089c3:	8b 85 20 f3 ff ff    	mov    -0xce0(%rbp),%eax
  4089c9:	48 98                	cltq   
  4089cb:	48 c1 e0 04          	shl    $0x4,%rax
  4089cf:	48 01 e8             	add    %rbp,%rax
  4089d2:	48 2d 8c 0c 00 00    	sub    $0xc8c,%rax
  4089d8:	f3 0f 10 00          	movss  (%rax),%xmm0
  4089dc:	f3 0f 58 c1          	addss  %xmm1,%xmm0
  4089e0:	f3 0f 11 85 64 f3 ff 	movss  %xmm0,-0xc9c(%rbp)
  4089e7:	ff 
  4089e8:	f3 0f 10 8d 68 f3 ff 	movss  -0xc98(%rbp),%xmm1
  4089ef:	ff 
  4089f0:	8b 85 20 f3 ff ff    	mov    -0xce0(%rbp),%eax
  4089f6:	48 98                	cltq   
  4089f8:	48 c1 e0 04          	shl    $0x4,%rax
  4089fc:	48 01 e8             	add    %rbp,%rax
  4089ff:	48 2d 88 0c 00 00    	sub    $0xc88,%rax
  408a05:	f3 0f 10 00          	movss  (%rax),%xmm0
  408a09:	f3 0f 58 c1          	addss  %xmm1,%xmm0
  408a0d:	f3 0f 11 85 68 f3 ff 	movss  %xmm0,-0xc98(%rbp)
  408a14:	ff 
  408a15:	f3 0f 10 8d 6c f3 ff 	movss  -0xc94(%rbp),%xmm1
  408a1c:	ff 
  408a1d:	8b 85 20 f3 ff ff    	mov    -0xce0(%rbp),%eax
  408a23:	48 98                	cltq   
  408a25:	48 c1 e0 04          	shl    $0x4,%rax
  408a29:	48 01 e8             	add    %rbp,%rax
  408a2c:	48 2d 84 0c 00 00    	sub    $0xc84,%rax
  408a32:	f3 0f 10 00          	movss  (%rax),%xmm0
  408a36:	f3 0f 58 c1          	addss  %xmm1,%xmm0
  408a3a:	f3 0f 11 85 6c f3 ff 	movss  %xmm0,-0xc94(%rbp)
  408a41:	ff 
  408a42:	83 85 20 f3 ff ff 01 	addl   $0x1,-0xce0(%rbp)
  408a49:	f3 0f 10 8d 60 f3 ff 	movss  -0xca0(%rbp),%xmm1
  408a50:	ff 
  408a51:	8b 85 20 f3 ff ff    	mov    -0xce0(%rbp),%eax
  408a57:	48 98                	cltq   
  408a59:	48 c1 e0 04          	shl    $0x4,%rax
  408a5d:	48 01 e8             	add    %rbp,%rax
  408a60:	48 2d 90 0c 00 00    	sub    $0xc90,%rax
  408a66:	f3 0f 10 00          	movss  (%rax),%xmm0
  408a6a:	f3 0f 58 c1          	addss  %xmm1,%xmm0
  408a6e:	f3 0f 11 85 60 f3 ff 	movss  %xmm0,-0xca0(%rbp)
  408a75:	ff 
  408a76:	f3 0f 10 8d 64 f3 ff 	movss  -0xc9c(%rbp),%xmm1
  408a7d:	ff 
  408a7e:	8b 85 20 f3 ff ff    	mov    -0xce0(%rbp),%eax
  408a84:	48 98                	cltq   
  408a86:	48 c1 e0 04          	shl    $0x4,%rax
  408a8a:	48 01 e8             	add    %rbp,%rax
  408a8d:	48 2d 8c 0c 00 00    	sub    $0xc8c,%rax
  408a93:	f3 0f 10 00          	movss  (%rax),%xmm0
  408a97:	f3 0f 58 c1          	addss  %xmm1,%xmm0
  408a9b:	f3 0f 11 85 64 f3 ff 	movss  %xmm0,-0xc9c(%rbp)
  408aa2:	ff 
  408aa3:	f3 0f 10 8d 68 f3 ff 	movss  -0xc98(%rbp),%xmm1
  408aaa:	ff 
  408aab:	8b 85 20 f3 ff ff    	mov    -0xce0(%rbp),%eax
  408ab1:	48 98                	cltq   
  408ab3:	48 c1 e0 04          	shl    $0x4,%rax
  408ab7:	48 01 e8             	add    %rbp,%rax
  408aba:	48 2d 88 0c 00 00    	sub    $0xc88,%rax
  408ac0:	f3 0f 10 00          	movss  (%rax),%xmm0
  408ac4:	f3 0f 58 c1          	addss  %xmm1,%xmm0
  408ac8:	f3 0f 11 85 68 f3 ff 	movss  %xmm0,-0xc98(%rbp)
  408acf:	ff 
  408ad0:	f3 0f 10 8d 6c f3 ff 	movss  -0xc94(%rbp),%xmm1
  408ad7:	ff 
  408ad8:	8b 85 20 f3 ff ff    	mov    -0xce0(%rbp),%eax
  408ade:	48 98                	cltq   
  408ae0:	48 c1 e0 04          	shl    $0x4,%rax
  408ae4:	48 01 e8             	add    %rbp,%rax
  408ae7:	48 2d 84 0c 00 00    	sub    $0xc84,%rax
  408aed:	f3 0f 10 00          	movss  (%rax),%xmm0
  408af1:	f3 0f 58 c1          	addss  %xmm1,%xmm0
  408af5:	f3 0f 11 85 6c f3 ff 	movss  %xmm0,-0xc94(%rbp)
  408afc:	ff 
  408afd:	83 85 20 f3 ff ff 01 	addl   $0x1,-0xce0(%rbp)
  408b04:	f3 0f 10 8d 60 f3 ff 	movss  -0xca0(%rbp),%xmm1
  408b0b:	ff 
  408b0c:	8b 85 20 f3 ff ff    	mov    -0xce0(%rbp),%eax
  408b12:	48 98                	cltq   
  408b14:	48 c1 e0 04          	shl    $0x4,%rax
  408b18:	48 01 e8             	add    %rbp,%rax
  408b1b:	48 2d 90 0c 00 00    	sub    $0xc90,%rax
  408b21:	f3 0f 10 00          	movss  (%rax),%xmm0
  408b25:	f3 0f 58 c1          	addss  %xmm1,%xmm0
  408b29:	f3 0f 11 85 60 f3 ff 	movss  %xmm0,-0xca0(%rbp)
  408b30:	ff 
  408b31:	f3 0f 10 8d 64 f3 ff 	movss  -0xc9c(%rbp),%xmm1
  408b38:	ff 
  408b39:	8b 85 20 f3 ff ff    	mov    -0xce0(%rbp),%eax
  408b3f:	48 98                	cltq   
  408b41:	48 c1 e0 04          	shl    $0x4,%rax
  408b45:	48 01 e8             	add    %rbp,%rax
  408b48:	48 2d 8c 0c 00 00    	sub    $0xc8c,%rax
  408b4e:	f3 0f 10 00          	movss  (%rax),%xmm0
  408b52:	f3 0f 58 c1          	addss  %xmm1,%xmm0
  408b56:	f3 0f 11 85 64 f3 ff 	movss  %xmm0,-0xc9c(%rbp)
  408b5d:	ff 
  408b5e:	f3 0f 10 8d 68 f3 ff 	movss  -0xc98(%rbp),%xmm1
  408b65:	ff 
  408b66:	8b 85 20 f3 ff ff    	mov    -0xce0(%rbp),%eax
  408b6c:	48 98                	cltq   
  408b6e:	48 c1 e0 04          	shl    $0x4,%rax
  408b72:	48 01 e8             	add    %rbp,%rax
  408b75:	48 2d 88 0c 00 00    	sub    $0xc88,%rax
  408b7b:	f3 0f 10 00          	movss  (%rax),%xmm0
  408b7f:	f3 0f 58 c1          	addss  %xmm1,%xmm0
  408b83:	f3 0f 11 85 68 f3 ff 	movss  %xmm0,-0xc98(%rbp)
  408b8a:	ff 
  408b8b:	f3 0f 10 8d 6c f3 ff 	movss  -0xc94(%rbp),%xmm1
  408b92:	ff 
  408b93:	8b 85 20 f3 ff ff    	mov    -0xce0(%rbp),%eax
  408b99:	48 98                	cltq   
  408b9b:	48 c1 e0 04          	shl    $0x4,%rax
  408b9f:	48 01 e8             	add    %rbp,%rax
  408ba2:	48 2d 84 0c 00 00    	sub    $0xc84,%rax
  408ba8:	f3 0f 10 00          	movss  (%rax),%xmm0
  408bac:	f3 0f 58 c1          	addss  %xmm1,%xmm0
  408bb0:	f3 0f 11 85 6c f3 ff 	movss  %xmm0,-0xc94(%rbp)
  408bb7:	ff 
  408bb8:	83 85 20 f3 ff ff 01 	addl   $0x1,-0xce0(%rbp)
  408bbf:	f3 0f 10 8d 60 f3 ff 	movss  -0xca0(%rbp),%xmm1
  408bc6:	ff 
  408bc7:	8b 85 20 f3 ff ff    	mov    -0xce0(%rbp),%eax
  408bcd:	48 98                	cltq   
  408bcf:	48 c1 e0 04          	shl    $0x4,%rax
  408bd3:	48 01 e8             	add    %rbp,%rax
  408bd6:	48 2d 90 0c 00 00    	sub    $0xc90,%rax
  408bdc:	f3 0f 10 00          	movss  (%rax),%xmm0
  408be0:	f3 0f 58 c1          	addss  %xmm1,%xmm0
  408be4:	f3 0f 11 85 60 f3 ff 	movss  %xmm0,-0xca0(%rbp)
  408beb:	ff 
  408bec:	f3 0f 10 8d 64 f3 ff 	movss  -0xc9c(%rbp),%xmm1
  408bf3:	ff 
  408bf4:	8b 85 20 f3 ff ff    	mov    -0xce0(%rbp),%eax
  408bfa:	48 98                	cltq   
  408bfc:	48 c1 e0 04          	shl    $0x4,%rax
  408c00:	48 01 e8             	add    %rbp,%rax
  408c03:	48 2d 8c 0c 00 00    	sub    $0xc8c,%rax
  408c09:	f3 0f 10 00          	movss  (%rax),%xmm0
  408c0d:	f3 0f 58 c1          	addss  %xmm1,%xmm0
  408c11:	f3 0f 11 85 64 f3 ff 	movss  %xmm0,-0xc9c(%rbp)
  408c18:	ff 
  408c19:	f3 0f 10 8d 68 f3 ff 	movss  -0xc98(%rbp),%xmm1
  408c20:	ff 
  408c21:	8b 85 20 f3 ff ff    	mov    -0xce0(%rbp),%eax
  408c27:	48 98                	cltq   
  408c29:	48 c1 e0 04          	shl    $0x4,%rax
  408c2d:	48 01 e8             	add    %rbp,%rax
  408c30:	48 2d 88 0c 00 00    	sub    $0xc88,%rax
  408c36:	f3 0f 10 00          	movss  (%rax),%xmm0
  408c3a:	f3 0f 58 c1          	addss  %xmm1,%xmm0
  408c3e:	f3 0f 11 85 68 f3 ff 	movss  %xmm0,-0xc98(%rbp)
  408c45:	ff 
  408c46:	f3 0f 10 8d 6c f3 ff 	movss  -0xc94(%rbp),%xmm1
  408c4d:	ff 
  408c4e:	8b 85 20 f3 ff ff    	mov    -0xce0(%rbp),%eax
  408c54:	48 98                	cltq   
  408c56:	48 c1 e0 04          	shl    $0x4,%rax
  408c5a:	48 01 e8             	add    %rbp,%rax
  408c5d:	48 2d 84 0c 00 00    	sub    $0xc84,%rax
  408c63:	f3 0f 10 00          	movss  (%rax),%xmm0
  408c67:	f3 0f 58 c1          	addss  %xmm1,%xmm0
  408c6b:	f3 0f 11 85 6c f3 ff 	movss  %xmm0,-0xc94(%rbp)
  408c72:	ff 
  408c73:	83 85 20 f3 ff ff 01 	addl   $0x1,-0xce0(%rbp)
  408c7a:	f3 0f 10 8d 60 f3 ff 	movss  -0xca0(%rbp),%xmm1
  408c81:	ff 
  408c82:	8b 85 20 f3 ff ff    	mov    -0xce0(%rbp),%eax
  408c88:	48 98                	cltq   
  408c8a:	48 c1 e0 04          	shl    $0x4,%rax
  408c8e:	48 01 e8             	add    %rbp,%rax
  408c91:	48 2d 90 0c 00 00    	sub    $0xc90,%rax
  408c97:	f3 0f 10 00          	movss  (%rax),%xmm0
  408c9b:	f3 0f 58 c1          	addss  %xmm1,%xmm0
  408c9f:	f3 0f 11 85 60 f3 ff 	movss  %xmm0,-0xca0(%rbp)
  408ca6:	ff 
  408ca7:	f3 0f 10 8d 64 f3 ff 	movss  -0xc9c(%rbp),%xmm1
  408cae:	ff 
  408caf:	8b 85 20 f3 ff ff    	mov    -0xce0(%rbp),%eax
  408cb5:	48 98                	cltq   
  408cb7:	48 c1 e0 04          	shl    $0x4,%rax
  408cbb:	48 01 e8             	add    %rbp,%rax
  408cbe:	48 2d 8c 0c 00 00    	sub    $0xc8c,%rax
  408cc4:	f3 0f 10 00          	movss  (%rax),%xmm0
  408cc8:	f3 0f 58 c1          	addss  %xmm1,%xmm0
  408ccc:	f3 0f 11 85 64 f3 ff 	movss  %xmm0,-0xc9c(%rbp)
  408cd3:	ff 
  408cd4:	f3 0f 10 8d 68 f3 ff 	movss  -0xc98(%rbp),%xmm1
  408cdb:	ff 
  408cdc:	8b 85 20 f3 ff ff    	mov    -0xce0(%rbp),%eax
  408ce2:	48 98                	cltq   
  408ce4:	48 c1 e0 04          	shl    $0x4,%rax
  408ce8:	48 01 e8             	add    %rbp,%rax
  408ceb:	48 2d 88 0c 00 00    	sub    $0xc88,%rax
  408cf1:	f3 0f 10 00          	movss  (%rax),%xmm0
  408cf5:	f3 0f 58 c1          	addss  %xmm1,%xmm0
  408cf9:	f3 0f 11 85 68 f3 ff 	movss  %xmm0,-0xc98(%rbp)
  408d00:	ff 
  408d01:	f3 0f 10 8d 6c f3 ff 	movss  -0xc94(%rbp),%xmm1
  408d08:	ff 
  408d09:	8b 85 20 f3 ff ff    	mov    -0xce0(%rbp),%eax
  408d0f:	48 98                	cltq   
  408d11:	48 c1 e0 04          	shl    $0x4,%rax
  408d15:	48 01 e8             	add    %rbp,%rax
  408d18:	48 2d 84 0c 00 00    	sub    $0xc84,%rax
  408d1e:	f3 0f 10 00          	movss  (%rax),%xmm0
  408d22:	f3 0f 58 c1          	addss  %xmm1,%xmm0
  408d26:	f3 0f 11 85 6c f3 ff 	movss  %xmm0,-0xc94(%rbp)
  408d2d:	ff 
  408d2e:	83 85 20 f3 ff ff 01 	addl   $0x1,-0xce0(%rbp)
  408d35:	f3 0f 10 8d 60 f3 ff 	movss  -0xca0(%rbp),%xmm1
  408d3c:	ff 
  408d3d:	8b 85 20 f3 ff ff    	mov    -0xce0(%rbp),%eax
  408d43:	48 98                	cltq   
  408d45:	48 c1 e0 04          	shl    $0x4,%rax
  408d49:	48 01 e8             	add    %rbp,%rax
  408d4c:	48 2d 90 0c 00 00    	sub    $0xc90,%rax
  408d52:	f3 0f 10 00          	movss  (%rax),%xmm0
  408d56:	f3 0f 58 c1          	addss  %xmm1,%xmm0
  408d5a:	f3 0f 11 85 60 f3 ff 	movss  %xmm0,-0xca0(%rbp)
  408d61:	ff 
  408d62:	f3 0f 10 8d 64 f3 ff 	movss  -0xc9c(%rbp),%xmm1
  408d69:	ff 
  408d6a:	8b 85 20 f3 ff ff    	mov    -0xce0(%rbp),%eax
  408d70:	48 98                	cltq   
  408d72:	48 c1 e0 04          	shl    $0x4,%rax
  408d76:	48 01 e8             	add    %rbp,%rax
  408d79:	48 2d 8c 0c 00 00    	sub    $0xc8c,%rax
  408d7f:	f3 0f 10 00          	movss  (%rax),%xmm0
  408d83:	f3 0f 58 c1          	addss  %xmm1,%xmm0
  408d87:	f3 0f 11 85 64 f3 ff 	movss  %xmm0,-0xc9c(%rbp)
  408d8e:	ff 
  408d8f:	f3 0f 10 8d 68 f3 ff 	movss  -0xc98(%rbp),%xmm1
  408d96:	ff 
  408d97:	8b 85 20 f3 ff ff    	mov    -0xce0(%rbp),%eax
  408d9d:	48 98                	cltq   
  408d9f:	48 c1 e0 04          	shl    $0x4,%rax
  408da3:	48 01 e8             	add    %rbp,%rax
  408da6:	48 2d 88 0c 00 00    	sub    $0xc88,%rax
  408dac:	f3 0f 10 00          	movss  (%rax),%xmm0
  408db0:	f3 0f 58 c1          	addss  %xmm1,%xmm0
  408db4:	f3 0f 11 85 68 f3 ff 	movss  %xmm0,-0xc98(%rbp)
  408dbb:	ff 
  408dbc:	f3 0f 10 8d 6c f3 ff 	movss  -0xc94(%rbp),%xmm1
  408dc3:	ff 
  408dc4:	8b 85 20 f3 ff ff    	mov    -0xce0(%rbp),%eax
  408dca:	48 98                	cltq   
  408dcc:	48 c1 e0 04          	shl    $0x4,%rax
  408dd0:	48 01 e8             	add    %rbp,%rax
  408dd3:	48 2d 84 0c 00 00    	sub    $0xc84,%rax
  408dd9:	f3 0f 10 00          	movss  (%rax),%xmm0
  408ddd:	f3 0f 58 c1          	addss  %xmm1,%xmm0
  408de1:	f3 0f 11 85 6c f3 ff 	movss  %xmm0,-0xc94(%rbp)
  408de8:	ff 
  408de9:	83 85 20 f3 ff ff 01 	addl   $0x1,-0xce0(%rbp)
  408df0:	f3 0f 10 8d 60 f3 ff 	movss  -0xca0(%rbp),%xmm1
  408df7:	ff 
  408df8:	8b 85 20 f3 ff ff    	mov    -0xce0(%rbp),%eax
  408dfe:	48 98                	cltq   
  408e00:	48 c1 e0 04          	shl    $0x4,%rax
  408e04:	48 01 e8             	add    %rbp,%rax
  408e07:	48 2d 90 0c 00 00    	sub    $0xc90,%rax
  408e0d:	f3 0f 10 00          	movss  (%rax),%xmm0
  408e11:	f3 0f 58 c1          	addss  %xmm1,%xmm0
  408e15:	f3 0f 11 85 60 f3 ff 	movss  %xmm0,-0xca0(%rbp)
  408e1c:	ff 
  408e1d:	f3 0f 10 8d 64 f3 ff 	movss  -0xc9c(%rbp),%xmm1
  408e24:	ff 
  408e25:	8b 85 20 f3 ff ff    	mov    -0xce0(%rbp),%eax
  408e2b:	48 98                	cltq   
  408e2d:	48 c1 e0 04          	shl    $0x4,%rax
  408e31:	48 01 e8             	add    %rbp,%rax
  408e34:	48 2d 8c 0c 00 00    	sub    $0xc8c,%rax
  408e3a:	f3 0f 10 00          	movss  (%rax),%xmm0
  408e3e:	f3 0f 58 c1          	addss  %xmm1,%xmm0
  408e42:	f3 0f 11 85 64 f3 ff 	movss  %xmm0,-0xc9c(%rbp)
  408e49:	ff 
  408e4a:	f3 0f 10 8d 68 f3 ff 	movss  -0xc98(%rbp),%xmm1
  408e51:	ff 
  408e52:	8b 85 20 f3 ff ff    	mov    -0xce0(%rbp),%eax
  408e58:	48 98                	cltq   
  408e5a:	48 c1 e0 04          	shl    $0x4,%rax
  408e5e:	48 01 e8             	add    %rbp,%rax
  408e61:	48 2d 88 0c 00 00    	sub    $0xc88,%rax
  408e67:	f3 0f 10 00          	movss  (%rax),%xmm0
  408e6b:	f3 0f 58 c1          	addss  %xmm1,%xmm0
  408e6f:	f3 0f 11 85 68 f3 ff 	movss  %xmm0,-0xc98(%rbp)
  408e76:	ff 
  408e77:	f3 0f 10 8d 6c f3 ff 	movss  -0xc94(%rbp),%xmm1
  408e7e:	ff 
  408e7f:	8b 85 20 f3 ff ff    	mov    -0xce0(%rbp),%eax
  408e85:	48 98                	cltq   
  408e87:	48 c1 e0 04          	shl    $0x4,%rax
  408e8b:	48 01 e8             	add    %rbp,%rax
  408e8e:	48 2d 84 0c 00 00    	sub    $0xc84,%rax
  408e94:	f3 0f 10 00          	movss  (%rax),%xmm0
  408e98:	f3 0f 58 c1          	addss  %xmm1,%xmm0
  408e9c:	f3 0f 11 85 6c f3 ff 	movss  %xmm0,-0xc94(%rbp)
  408ea3:	ff 
  408ea4:	83 85 20 f3 ff ff 01 	addl   $0x1,-0xce0(%rbp)
  408eab:	f3 0f 10 8d 60 f3 ff 	movss  -0xca0(%rbp),%xmm1
  408eb2:	ff 
  408eb3:	8b 85 20 f3 ff ff    	mov    -0xce0(%rbp),%eax
  408eb9:	48 98                	cltq   
  408ebb:	48 c1 e0 04          	shl    $0x4,%rax
  408ebf:	48 01 e8             	add    %rbp,%rax
  408ec2:	48 2d 90 0c 00 00    	sub    $0xc90,%rax
  408ec8:	f3 0f 10 00          	movss  (%rax),%xmm0
  408ecc:	f3 0f 58 c1          	addss  %xmm1,%xmm0
  408ed0:	f3 0f 11 85 60 f3 ff 	movss  %xmm0,-0xca0(%rbp)
  408ed7:	ff 
  408ed8:	f3 0f 10 8d 64 f3 ff 	movss  -0xc9c(%rbp),%xmm1
  408edf:	ff 
  408ee0:	8b 85 20 f3 ff ff    	mov    -0xce0(%rbp),%eax
  408ee6:	48 98                	cltq   
  408ee8:	48 c1 e0 04          	shl    $0x4,%rax
  408eec:	48 01 e8             	add    %rbp,%rax
  408eef:	48 2d 8c 0c 00 00    	sub    $0xc8c,%rax
  408ef5:	f3 0f 10 00          	movss  (%rax),%xmm0
  408ef9:	f3 0f 58 c1          	addss  %xmm1,%xmm0
  408efd:	f3 0f 11 85 64 f3 ff 	movss  %xmm0,-0xc9c(%rbp)
  408f04:	ff 
  408f05:	f3 0f 10 8d 68 f3 ff 	movss  -0xc98(%rbp),%xmm1
  408f0c:	ff 
  408f0d:	8b 85 20 f3 ff ff    	mov    -0xce0(%rbp),%eax
  408f13:	48 98                	cltq   
  408f15:	48 c1 e0 04          	shl    $0x4,%rax
  408f19:	48 01 e8             	add    %rbp,%rax
  408f1c:	48 2d 88 0c 00 00    	sub    $0xc88,%rax
  408f22:	f3 0f 10 00          	movss  (%rax),%xmm0
  408f26:	f3 0f 58 c1          	addss  %xmm1,%xmm0
  408f2a:	f3 0f 11 85 68 f3 ff 	movss  %xmm0,-0xc98(%rbp)
  408f31:	ff 
  408f32:	f3 0f 10 8d 6c f3 ff 	movss  -0xc94(%rbp),%xmm1
  408f39:	ff 
  408f3a:	8b 85 20 f3 ff ff    	mov    -0xce0(%rbp),%eax
  408f40:	48 98                	cltq   
  408f42:	48 c1 e0 04          	shl    $0x4,%rax
  408f46:	48 01 e8             	add    %rbp,%rax
  408f49:	48 2d 84 0c 00 00    	sub    $0xc84,%rax
  408f4f:	f3 0f 10 00          	movss  (%rax),%xmm0
  408f53:	f3 0f 58 c1          	addss  %xmm1,%xmm0
  408f57:	f3 0f 11 85 6c f3 ff 	movss  %xmm0,-0xc94(%rbp)
  408f5e:	ff 
  408f5f:	83 85 20 f3 ff ff 01 	addl   $0x1,-0xce0(%rbp)
  408f66:	f3 0f 10 8d 60 f3 ff 	movss  -0xca0(%rbp),%xmm1
  408f6d:	ff 
  408f6e:	8b 85 20 f3 ff ff    	mov    -0xce0(%rbp),%eax
  408f74:	48 98                	cltq   
  408f76:	48 c1 e0 04          	shl    $0x4,%rax
  408f7a:	48 01 e8             	add    %rbp,%rax
  408f7d:	48 2d 90 0c 00 00    	sub    $0xc90,%rax
  408f83:	f3 0f 10 00          	movss  (%rax),%xmm0
  408f87:	f3 0f 58 c1          	addss  %xmm1,%xmm0
  408f8b:	f3 0f 11 85 60 f3 ff 	movss  %xmm0,-0xca0(%rbp)
  408f92:	ff 
  408f93:	f3 0f 10 8d 64 f3 ff 	movss  -0xc9c(%rbp),%xmm1
  408f9a:	ff 
  408f9b:	8b 85 20 f3 ff ff    	mov    -0xce0(%rbp),%eax
  408fa1:	48 98                	cltq   
  408fa3:	48 c1 e0 04          	shl    $0x4,%rax
  408fa7:	48 01 e8             	add    %rbp,%rax
  408faa:	48 2d 8c 0c 00 00    	sub    $0xc8c,%rax
  408fb0:	f3 0f 10 00          	movss  (%rax),%xmm0
  408fb4:	f3 0f 58 c1          	addss  %xmm1,%xmm0
  408fb8:	f3 0f 11 85 64 f3 ff 	movss  %xmm0,-0xc9c(%rbp)
  408fbf:	ff 
  408fc0:	f3 0f 10 8d 68 f3 ff 	movss  -0xc98(%rbp),%xmm1
  408fc7:	ff 
  408fc8:	8b 85 20 f3 ff ff    	mov    -0xce0(%rbp),%eax
  408fce:	48 98                	cltq   
  408fd0:	48 c1 e0 04          	shl    $0x4,%rax
  408fd4:	48 01 e8             	add    %rbp,%rax
  408fd7:	48 2d 88 0c 00 00    	sub    $0xc88,%rax
  408fdd:	f3 0f 10 00          	movss  (%rax),%xmm0
  408fe1:	f3 0f 58 c1          	addss  %xmm1,%xmm0
  408fe5:	f3 0f 11 85 68 f3 ff 	movss  %xmm0,-0xc98(%rbp)
  408fec:	ff 
  408fed:	f3 0f 10 8d 6c f3 ff 	movss  -0xc94(%rbp),%xmm1
  408ff4:	ff 
  408ff5:	8b 85 20 f3 ff ff    	mov    -0xce0(%rbp),%eax
  408ffb:	48 98                	cltq   
  408ffd:	48 c1 e0 04          	shl    $0x4,%rax
  409001:	48 01 e8             	add    %rbp,%rax
  409004:	48 2d 84 0c 00 00    	sub    $0xc84,%rax
  40900a:	f3 0f 10 00          	movss  (%rax),%xmm0
  40900e:	f3 0f 58 c1          	addss  %xmm1,%xmm0
  409012:	f3 0f 11 85 6c f3 ff 	movss  %xmm0,-0xc94(%rbp)
  409019:	ff 
  40901a:	83 85 20 f3 ff ff 01 	addl   $0x1,-0xce0(%rbp)
  409021:	f3 0f 10 8d 60 f3 ff 	movss  -0xca0(%rbp),%xmm1
  409028:	ff 
  409029:	8b 85 20 f3 ff ff    	mov    -0xce0(%rbp),%eax
  40902f:	48 98                	cltq   
  409031:	48 c1 e0 04          	shl    $0x4,%rax
  409035:	48 01 e8             	add    %rbp,%rax
  409038:	48 2d 90 0c 00 00    	sub    $0xc90,%rax
  40903e:	f3 0f 10 00          	movss  (%rax),%xmm0
  409042:	f3 0f 58 c1          	addss  %xmm1,%xmm0
  409046:	f3 0f 11 85 60 f3 ff 	movss  %xmm0,-0xca0(%rbp)
  40904d:	ff 
  40904e:	f3 0f 10 8d 64 f3 ff 	movss  -0xc9c(%rbp),%xmm1
  409055:	ff 
  409056:	8b 85 20 f3 ff ff    	mov    -0xce0(%rbp),%eax
  40905c:	48 98                	cltq   
  40905e:	48 c1 e0 04          	shl    $0x4,%rax
  409062:	48 01 e8             	add    %rbp,%rax
  409065:	48 2d 8c 0c 00 00    	sub    $0xc8c,%rax
  40906b:	f3 0f 10 00          	movss  (%rax),%xmm0
  40906f:	f3 0f 58 c1          	addss  %xmm1,%xmm0
  409073:	f3 0f 11 85 64 f3 ff 	movss  %xmm0,-0xc9c(%rbp)
  40907a:	ff 
  40907b:	f3 0f 10 8d 68 f3 ff 	movss  -0xc98(%rbp),%xmm1
  409082:	ff 
  409083:	8b 85 20 f3 ff ff    	mov    -0xce0(%rbp),%eax
  409089:	48 98                	cltq   
  40908b:	48 c1 e0 04          	shl    $0x4,%rax
  40908f:	48 01 e8             	add    %rbp,%rax
  409092:	48 2d 88 0c 00 00    	sub    $0xc88,%rax
  409098:	f3 0f 10 00          	movss  (%rax),%xmm0
  40909c:	f3 0f 58 c1          	addss  %xmm1,%xmm0
  4090a0:	f3 0f 11 85 68 f3 ff 	movss  %xmm0,-0xc98(%rbp)
  4090a7:	ff 
  4090a8:	f3 0f 10 8d 6c f3 ff 	movss  -0xc94(%rbp),%xmm1
  4090af:	ff 
  4090b0:	8b 85 20 f3 ff ff    	mov    -0xce0(%rbp),%eax
  4090b6:	48 98                	cltq   
  4090b8:	48 c1 e0 04          	shl    $0x4,%rax
  4090bc:	48 01 e8             	add    %rbp,%rax
  4090bf:	48 2d 84 0c 00 00    	sub    $0xc84,%rax
  4090c5:	f3 0f 10 00          	movss  (%rax),%xmm0
  4090c9:	f3 0f 58 c1          	addss  %xmm1,%xmm0
  4090cd:	f3 0f 11 85 6c f3 ff 	movss  %xmm0,-0xc94(%rbp)
  4090d4:	ff 
  4090d5:	83 85 20 f3 ff ff 01 	addl   $0x1,-0xce0(%rbp)
  4090dc:	f3 0f 10 8d 60 f3 ff 	movss  -0xca0(%rbp),%xmm1
  4090e3:	ff 
  4090e4:	8b 85 20 f3 ff ff    	mov    -0xce0(%rbp),%eax
  4090ea:	48 98                	cltq   
  4090ec:	48 c1 e0 04          	shl    $0x4,%rax
  4090f0:	48 01 e8             	add    %rbp,%rax
  4090f3:	48 2d 90 0c 00 00    	sub    $0xc90,%rax
  4090f9:	f3 0f 10 00          	movss  (%rax),%xmm0
  4090fd:	f3 0f 58 c1          	addss  %xmm1,%xmm0
  409101:	f3 0f 11 85 60 f3 ff 	movss  %xmm0,-0xca0(%rbp)
  409108:	ff 
  409109:	f3 0f 10 8d 64 f3 ff 	movss  -0xc9c(%rbp),%xmm1
  409110:	ff 
  409111:	8b 85 20 f3 ff ff    	mov    -0xce0(%rbp),%eax
  409117:	48 98                	cltq   
  409119:	48 c1 e0 04          	shl    $0x4,%rax
  40911d:	48 01 e8             	add    %rbp,%rax
  409120:	48 2d 8c 0c 00 00    	sub    $0xc8c,%rax
  409126:	f3 0f 10 00          	movss  (%rax),%xmm0
  40912a:	f3 0f 58 c1          	addss  %xmm1,%xmm0
  40912e:	f3 0f 11 85 64 f3 ff 	movss  %xmm0,-0xc9c(%rbp)
  409135:	ff 
  409136:	f3 0f 10 8d 68 f3 ff 	movss  -0xc98(%rbp),%xmm1
  40913d:	ff 
  40913e:	8b 85 20 f3 ff ff    	mov    -0xce0(%rbp),%eax
  409144:	48 98                	cltq   
  409146:	48 c1 e0 04          	shl    $0x4,%rax
  40914a:	48 01 e8             	add    %rbp,%rax
  40914d:	48 2d 88 0c 00 00    	sub    $0xc88,%rax
  409153:	f3 0f 10 00          	movss  (%rax),%xmm0
  409157:	f3 0f 58 c1          	addss  %xmm1,%xmm0
  40915b:	f3 0f 11 85 68 f3 ff 	movss  %xmm0,-0xc98(%rbp)
  409162:	ff 
  409163:	f3 0f 10 8d 6c f3 ff 	movss  -0xc94(%rbp),%xmm1
  40916a:	ff 
  40916b:	8b 85 20 f3 ff ff    	mov    -0xce0(%rbp),%eax
  409171:	48 98                	cltq   
  409173:	48 c1 e0 04          	shl    $0x4,%rax
  409177:	48 01 e8             	add    %rbp,%rax
  40917a:	48 2d 84 0c 00 00    	sub    $0xc84,%rax
  409180:	f3 0f 10 00          	movss  (%rax),%xmm0
  409184:	f3 0f 58 c1          	addss  %xmm1,%xmm0
  409188:	f3 0f 11 85 6c f3 ff 	movss  %xmm0,-0xc94(%rbp)
  40918f:	ff 
  409190:	83 85 20 f3 ff ff 01 	addl   $0x1,-0xce0(%rbp)
  409197:	f3 0f 10 8d 60 f3 ff 	movss  -0xca0(%rbp),%xmm1
  40919e:	ff 
  40919f:	8b 85 20 f3 ff ff    	mov    -0xce0(%rbp),%eax
  4091a5:	48 98                	cltq   
  4091a7:	48 c1 e0 04          	shl    $0x4,%rax
  4091ab:	48 01 e8             	add    %rbp,%rax
  4091ae:	48 2d 90 0c 00 00    	sub    $0xc90,%rax
  4091b4:	f3 0f 10 00          	movss  (%rax),%xmm0
  4091b8:	f3 0f 58 c1          	addss  %xmm1,%xmm0
  4091bc:	f3 0f 11 85 60 f3 ff 	movss  %xmm0,-0xca0(%rbp)
  4091c3:	ff 
  4091c4:	f3 0f 10 8d 64 f3 ff 	movss  -0xc9c(%rbp),%xmm1
  4091cb:	ff 
  4091cc:	8b 85 20 f3 ff ff    	mov    -0xce0(%rbp),%eax
  4091d2:	48 98                	cltq   
  4091d4:	48 c1 e0 04          	shl    $0x4,%rax
  4091d8:	48 01 e8             	add    %rbp,%rax
  4091db:	48 2d 8c 0c 00 00    	sub    $0xc8c,%rax
  4091e1:	f3 0f 10 00          	movss  (%rax),%xmm0
  4091e5:	f3 0f 58 c1          	addss  %xmm1,%xmm0
  4091e9:	f3 0f 11 85 64 f3 ff 	movss  %xmm0,-0xc9c(%rbp)
  4091f0:	ff 
  4091f1:	f3 0f 10 8d 68 f3 ff 	movss  -0xc98(%rbp),%xmm1
  4091f8:	ff 
  4091f9:	8b 85 20 f3 ff ff    	mov    -0xce0(%rbp),%eax
  4091ff:	48 98                	cltq   
  409201:	48 c1 e0 04          	shl    $0x4,%rax
  409205:	48 01 e8             	add    %rbp,%rax
  409208:	48 2d 88 0c 00 00    	sub    $0xc88,%rax
  40920e:	f3 0f 10 00          	movss  (%rax),%xmm0
  409212:	f3 0f 58 c1          	addss  %xmm1,%xmm0
  409216:	f3 0f 11 85 68 f3 ff 	movss  %xmm0,-0xc98(%rbp)
  40921d:	ff 
  40921e:	f3 0f 10 8d 6c f3 ff 	movss  -0xc94(%rbp),%xmm1
  409225:	ff 
  409226:	8b 85 20 f3 ff ff    	mov    -0xce0(%rbp),%eax
  40922c:	48 98                	cltq   
  40922e:	48 c1 e0 04          	shl    $0x4,%rax
  409232:	48 01 e8             	add    %rbp,%rax
  409235:	48 2d 84 0c 00 00    	sub    $0xc84,%rax
  40923b:	f3 0f 10 00          	movss  (%rax),%xmm0
  40923f:	f3 0f 58 c1          	addss  %xmm1,%xmm0
  409243:	f3 0f 11 85 6c f3 ff 	movss  %xmm0,-0xc94(%rbp)
  40924a:	ff 
  40924b:	83 85 20 f3 ff ff 01 	addl   $0x1,-0xce0(%rbp)
  409252:	f3 0f 10 8d 60 f3 ff 	movss  -0xca0(%rbp),%xmm1
  409259:	ff 
  40925a:	8b 85 20 f3 ff ff    	mov    -0xce0(%rbp),%eax
  409260:	48 98                	cltq   
  409262:	48 c1 e0 04          	shl    $0x4,%rax
  409266:	48 01 e8             	add    %rbp,%rax
  409269:	48 2d 90 0c 00 00    	sub    $0xc90,%rax
  40926f:	f3 0f 10 00          	movss  (%rax),%xmm0
  409273:	f3 0f 58 c1          	addss  %xmm1,%xmm0
  409277:	f3 0f 11 85 60 f3 ff 	movss  %xmm0,-0xca0(%rbp)
  40927e:	ff 
  40927f:	f3 0f 10 8d 64 f3 ff 	movss  -0xc9c(%rbp),%xmm1
  409286:	ff 
  409287:	8b 85 20 f3 ff ff    	mov    -0xce0(%rbp),%eax
  40928d:	48 98                	cltq   
  40928f:	48 c1 e0 04          	shl    $0x4,%rax
  409293:	48 01 e8             	add    %rbp,%rax
  409296:	48 2d 8c 0c 00 00    	sub    $0xc8c,%rax
  40929c:	f3 0f 10 00          	movss  (%rax),%xmm0
  4092a0:	f3 0f 58 c1          	addss  %xmm1,%xmm0
  4092a4:	f3 0f 11 85 64 f3 ff 	movss  %xmm0,-0xc9c(%rbp)
  4092ab:	ff 
  4092ac:	f3 0f 10 8d 68 f3 ff 	movss  -0xc98(%rbp),%xmm1
  4092b3:	ff 
  4092b4:	8b 85 20 f3 ff ff    	mov    -0xce0(%rbp),%eax
  4092ba:	48 98                	cltq   
  4092bc:	48 c1 e0 04          	shl    $0x4,%rax
  4092c0:	48 01 e8             	add    %rbp,%rax
  4092c3:	48 2d 88 0c 00 00    	sub    $0xc88,%rax
  4092c9:	f3 0f 10 00          	movss  (%rax),%xmm0
  4092cd:	f3 0f 58 c1          	addss  %xmm1,%xmm0
  4092d1:	f3 0f 11 85 68 f3 ff 	movss  %xmm0,-0xc98(%rbp)
  4092d8:	ff 
  4092d9:	f3 0f 10 8d 6c f3 ff 	movss  -0xc94(%rbp),%xmm1
  4092e0:	ff 
  4092e1:	8b 85 20 f3 ff ff    	mov    -0xce0(%rbp),%eax
  4092e7:	48 98                	cltq   
  4092e9:	48 c1 e0 04          	shl    $0x4,%rax
  4092ed:	48 01 e8             	add    %rbp,%rax
  4092f0:	48 2d 84 0c 00 00    	sub    $0xc84,%rax
  4092f6:	f3 0f 10 00          	movss  (%rax),%xmm0
  4092fa:	f3 0f 58 c1          	addss  %xmm1,%xmm0
  4092fe:	f3 0f 11 85 6c f3 ff 	movss  %xmm0,-0xc94(%rbp)
  409305:	ff 
  409306:	83 85 20 f3 ff ff 01 	addl   $0x1,-0xce0(%rbp)
  40930d:	f3 0f 10 8d 60 f3 ff 	movss  -0xca0(%rbp),%xmm1
  409314:	ff 
  409315:	8b 85 20 f3 ff ff    	mov    -0xce0(%rbp),%eax
  40931b:	48 98                	cltq   
  40931d:	48 c1 e0 04          	shl    $0x4,%rax
  409321:	48 01 e8             	add    %rbp,%rax
  409324:	48 2d 90 0c 00 00    	sub    $0xc90,%rax
  40932a:	f3 0f 10 00          	movss  (%rax),%xmm0
  40932e:	f3 0f 58 c1          	addss  %xmm1,%xmm0
  409332:	f3 0f 11 85 60 f3 ff 	movss  %xmm0,-0xca0(%rbp)
  409339:	ff 
  40933a:	f3 0f 10 8d 64 f3 ff 	movss  -0xc9c(%rbp),%xmm1
  409341:	ff 
  409342:	8b 85 20 f3 ff ff    	mov    -0xce0(%rbp),%eax
  409348:	48 98                	cltq   
  40934a:	48 c1 e0 04          	shl    $0x4,%rax
  40934e:	48 01 e8             	add    %rbp,%rax
  409351:	48 2d 8c 0c 00 00    	sub    $0xc8c,%rax
  409357:	f3 0f 10 00          	movss  (%rax),%xmm0
  40935b:	f3 0f 58 c1          	addss  %xmm1,%xmm0
  40935f:	f3 0f 11 85 64 f3 ff 	movss  %xmm0,-0xc9c(%rbp)
  409366:	ff 
  409367:	f3 0f 10 8d 68 f3 ff 	movss  -0xc98(%rbp),%xmm1
  40936e:	ff 
  40936f:	8b 85 20 f3 ff ff    	mov    -0xce0(%rbp),%eax
  409375:	48 98                	cltq   
  409377:	48 c1 e0 04          	shl    $0x4,%rax
  40937b:	48 01 e8             	add    %rbp,%rax
  40937e:	48 2d 88 0c 00 00    	sub    $0xc88,%rax
  409384:	f3 0f 10 00          	movss  (%rax),%xmm0
  409388:	f3 0f 58 c1          	addss  %xmm1,%xmm0
  40938c:	f3 0f 11 85 68 f3 ff 	movss  %xmm0,-0xc98(%rbp)
  409393:	ff 
  409394:	f3 0f 10 8d 6c f3 ff 	movss  -0xc94(%rbp),%xmm1
  40939b:	ff 
  40939c:	8b 85 20 f3 ff ff    	mov    -0xce0(%rbp),%eax
  4093a2:	48 98                	cltq   
  4093a4:	48 c1 e0 04          	shl    $0x4,%rax
  4093a8:	48 01 e8             	add    %rbp,%rax
  4093ab:	48 2d 84 0c 00 00    	sub    $0xc84,%rax
  4093b1:	f3 0f 10 00          	movss  (%rax),%xmm0
  4093b5:	f3 0f 58 c1          	addss  %xmm1,%xmm0
  4093b9:	f3 0f 11 85 6c f3 ff 	movss  %xmm0,-0xc94(%rbp)
  4093c0:	ff 
  4093c1:	83 85 20 f3 ff ff 01 	addl   $0x1,-0xce0(%rbp)
  4093c8:	f3 0f 10 8d 60 f3 ff 	movss  -0xca0(%rbp),%xmm1
  4093cf:	ff 
  4093d0:	8b 85 20 f3 ff ff    	mov    -0xce0(%rbp),%eax
  4093d6:	48 98                	cltq   
  4093d8:	48 c1 e0 04          	shl    $0x4,%rax
  4093dc:	48 01 e8             	add    %rbp,%rax
  4093df:	48 2d 90 0c 00 00    	sub    $0xc90,%rax
  4093e5:	f3 0f 10 00          	movss  (%rax),%xmm0
  4093e9:	f3 0f 58 c1          	addss  %xmm1,%xmm0
  4093ed:	f3 0f 11 85 60 f3 ff 	movss  %xmm0,-0xca0(%rbp)
  4093f4:	ff 
  4093f5:	f3 0f 10 8d 64 f3 ff 	movss  -0xc9c(%rbp),%xmm1
  4093fc:	ff 
  4093fd:	8b 85 20 f3 ff ff    	mov    -0xce0(%rbp),%eax
  409403:	48 98                	cltq   
  409405:	48 c1 e0 04          	shl    $0x4,%rax
  409409:	48 01 e8             	add    %rbp,%rax
  40940c:	48 2d 8c 0c 00 00    	sub    $0xc8c,%rax
  409412:	f3 0f 10 00          	movss  (%rax),%xmm0
  409416:	f3 0f 58 c1          	addss  %xmm1,%xmm0
  40941a:	f3 0f 11 85 64 f3 ff 	movss  %xmm0,-0xc9c(%rbp)
  409421:	ff 
  409422:	f3 0f 10 8d 68 f3 ff 	movss  -0xc98(%rbp),%xmm1
  409429:	ff 
  40942a:	8b 85 20 f3 ff ff    	mov    -0xce0(%rbp),%eax
  409430:	48 98                	cltq   
  409432:	48 c1 e0 04          	shl    $0x4,%rax
  409436:	48 01 e8             	add    %rbp,%rax
  409439:	48 2d 88 0c 00 00    	sub    $0xc88,%rax
  40943f:	f3 0f 10 00          	movss  (%rax),%xmm0
  409443:	f3 0f 58 c1          	addss  %xmm1,%xmm0
  409447:	f3 0f 11 85 68 f3 ff 	movss  %xmm0,-0xc98(%rbp)
  40944e:	ff 
  40944f:	f3 0f 10 8d 6c f3 ff 	movss  -0xc94(%rbp),%xmm1
  409456:	ff 
  409457:	8b 85 20 f3 ff ff    	mov    -0xce0(%rbp),%eax
  40945d:	48 98                	cltq   
  40945f:	48 c1 e0 04          	shl    $0x4,%rax
  409463:	48 01 e8             	add    %rbp,%rax
  409466:	48 2d 84 0c 00 00    	sub    $0xc84,%rax
  40946c:	f3 0f 10 00          	movss  (%rax),%xmm0
  409470:	f3 0f 58 c1          	addss  %xmm1,%xmm0
  409474:	f3 0f 11 85 6c f3 ff 	movss  %xmm0,-0xc94(%rbp)
  40947b:	ff 
  40947c:	83 85 20 f3 ff ff 01 	addl   $0x1,-0xce0(%rbp)
  409483:	f3 0f 10 8d 60 f3 ff 	movss  -0xca0(%rbp),%xmm1
  40948a:	ff 
  40948b:	8b 85 20 f3 ff ff    	mov    -0xce0(%rbp),%eax
  409491:	48 98                	cltq   
  409493:	48 c1 e0 04          	shl    $0x4,%rax
  409497:	48 01 e8             	add    %rbp,%rax
  40949a:	48 2d 90 0c 00 00    	sub    $0xc90,%rax
  4094a0:	f3 0f 10 00          	movss  (%rax),%xmm0
  4094a4:	f3 0f 58 c1          	addss  %xmm1,%xmm0
  4094a8:	f3 0f 11 85 60 f3 ff 	movss  %xmm0,-0xca0(%rbp)
  4094af:	ff 
  4094b0:	f3 0f 10 8d 64 f3 ff 	movss  -0xc9c(%rbp),%xmm1
  4094b7:	ff 
  4094b8:	8b 85 20 f3 ff ff    	mov    -0xce0(%rbp),%eax
  4094be:	48 98                	cltq   
  4094c0:	48 c1 e0 04          	shl    $0x4,%rax
  4094c4:	48 01 e8             	add    %rbp,%rax
  4094c7:	48 2d 8c 0c 00 00    	sub    $0xc8c,%rax
  4094cd:	f3 0f 10 00          	movss  (%rax),%xmm0
  4094d1:	f3 0f 58 c1          	addss  %xmm1,%xmm0
  4094d5:	f3 0f 11 85 64 f3 ff 	movss  %xmm0,-0xc9c(%rbp)
  4094dc:	ff 
  4094dd:	f3 0f 10 8d 68 f3 ff 	movss  -0xc98(%rbp),%xmm1
  4094e4:	ff 
  4094e5:	8b 85 20 f3 ff ff    	mov    -0xce0(%rbp),%eax
  4094eb:	48 98                	cltq   
  4094ed:	48 c1 e0 04          	shl    $0x4,%rax
  4094f1:	48 01 e8             	add    %rbp,%rax
  4094f4:	48 2d 88 0c 00 00    	sub    $0xc88,%rax
  4094fa:	f3 0f 10 00          	movss  (%rax),%xmm0
  4094fe:	f3 0f 58 c1          	addss  %xmm1,%xmm0
  409502:	f3 0f 11 85 68 f3 ff 	movss  %xmm0,-0xc98(%rbp)
  409509:	ff 
  40950a:	f3 0f 10 8d 6c f3 ff 	movss  -0xc94(%rbp),%xmm1
  409511:	ff 
  409512:	8b 85 20 f3 ff ff    	mov    -0xce0(%rbp),%eax
  409518:	48 98                	cltq   
  40951a:	48 c1 e0 04          	shl    $0x4,%rax
  40951e:	48 01 e8             	add    %rbp,%rax
  409521:	48 2d 84 0c 00 00    	sub    $0xc84,%rax
  409527:	f3 0f 10 00          	movss  (%rax),%xmm0
  40952b:	f3 0f 58 c1          	addss  %xmm1,%xmm0
  40952f:	f3 0f 11 85 6c f3 ff 	movss  %xmm0,-0xc94(%rbp)
  409536:	ff 
  409537:	83 85 20 f3 ff ff 01 	addl   $0x1,-0xce0(%rbp)
  40953e:	f3 0f 10 8d 60 f3 ff 	movss  -0xca0(%rbp),%xmm1
  409545:	ff 
  409546:	8b 85 20 f3 ff ff    	mov    -0xce0(%rbp),%eax
  40954c:	48 98                	cltq   
  40954e:	48 c1 e0 04          	shl    $0x4,%rax
  409552:	48 01 e8             	add    %rbp,%rax
  409555:	48 2d 90 0c 00 00    	sub    $0xc90,%rax
  40955b:	f3 0f 10 00          	movss  (%rax),%xmm0
  40955f:	f3 0f 58 c1          	addss  %xmm1,%xmm0
  409563:	f3 0f 11 85 60 f3 ff 	movss  %xmm0,-0xca0(%rbp)
  40956a:	ff 
  40956b:	f3 0f 10 8d 64 f3 ff 	movss  -0xc9c(%rbp),%xmm1
  409572:	ff 
  409573:	8b 85 20 f3 ff ff    	mov    -0xce0(%rbp),%eax
  409579:	48 98                	cltq   
  40957b:	48 c1 e0 04          	shl    $0x4,%rax
  40957f:	48 01 e8             	add    %rbp,%rax
  409582:	48 2d 8c 0c 00 00    	sub    $0xc8c,%rax
  409588:	f3 0f 10 00          	movss  (%rax),%xmm0
  40958c:	f3 0f 58 c1          	addss  %xmm1,%xmm0
  409590:	f3 0f 11 85 64 f3 ff 	movss  %xmm0,-0xc9c(%rbp)
  409597:	ff 
  409598:	f3 0f 10 8d 68 f3 ff 	movss  -0xc98(%rbp),%xmm1
  40959f:	ff 
  4095a0:	8b 85 20 f3 ff ff    	mov    -0xce0(%rbp),%eax
  4095a6:	48 98                	cltq   
  4095a8:	48 c1 e0 04          	shl    $0x4,%rax
  4095ac:	48 01 e8             	add    %rbp,%rax
  4095af:	48 2d 88 0c 00 00    	sub    $0xc88,%rax
  4095b5:	f3 0f 10 00          	movss  (%rax),%xmm0
  4095b9:	f3 0f 58 c1          	addss  %xmm1,%xmm0
  4095bd:	f3 0f 11 85 68 f3 ff 	movss  %xmm0,-0xc98(%rbp)
  4095c4:	ff 
  4095c5:	f3 0f 10 8d 6c f3 ff 	movss  -0xc94(%rbp),%xmm1
  4095cc:	ff 
  4095cd:	8b 85 20 f3 ff ff    	mov    -0xce0(%rbp),%eax
  4095d3:	48 98                	cltq   
  4095d5:	48 c1 e0 04          	shl    $0x4,%rax
  4095d9:	48 01 e8             	add    %rbp,%rax
  4095dc:	48 2d 84 0c 00 00    	sub    $0xc84,%rax
  4095e2:	f3 0f 10 00          	movss  (%rax),%xmm0
  4095e6:	f3 0f 58 c1          	addss  %xmm1,%xmm0
  4095ea:	f3 0f 11 85 6c f3 ff 	movss  %xmm0,-0xc94(%rbp)
  4095f1:	ff 
  4095f2:	83 85 20 f3 ff ff 01 	addl   $0x1,-0xce0(%rbp)
  4095f9:	f3 0f 10 85 1c f3 ff 	movss  -0xce4(%rbp),%xmm0
  409600:	ff 
  409601:	f3 0f 59 85 1c f3 ff 	mulss  -0xce4(%rbp),%xmm0
  409608:	ff 
  409609:	f3 0f 11 85 1c f3 ff 	movss  %xmm0,-0xce4(%rbp)
  409610:	ff 
  409611:	83 85 38 f3 ff ff 01 	addl   $0x1,-0xcc8(%rbp)
  409618:	83 85 20 f3 ff ff 01 	addl   $0x1,-0xce0(%rbp)
  40961f:	f3 0f 10 8d 60 f3 ff 	movss  -0xca0(%rbp),%xmm1
  409626:	ff 
  409627:	8b 85 20 f3 ff ff    	mov    -0xce0(%rbp),%eax
  40962d:	48 98                	cltq   
  40962f:	48 c1 e0 04          	shl    $0x4,%rax
  409633:	48 01 e8             	add    %rbp,%rax
  409636:	48 2d 90 0c 00 00    	sub    $0xc90,%rax
  40963c:	f3 0f 10 00          	movss  (%rax),%xmm0
  409640:	f3 0f 58 c1          	addss  %xmm1,%xmm0
  409644:	f3 0f 11 85 60 f3 ff 	movss  %xmm0,-0xca0(%rbp)
  40964b:	ff 
  40964c:	f3 0f 10 8d 64 f3 ff 	movss  -0xc9c(%rbp),%xmm1
  409653:	ff 
  409654:	8b 85 20 f3 ff ff    	mov    -0xce0(%rbp),%eax
  40965a:	48 98                	cltq   
  40965c:	48 c1 e0 04          	shl    $0x4,%rax
  409660:	48 01 e8             	add    %rbp,%rax
  409663:	48 2d 8c 0c 00 00    	sub    $0xc8c,%rax
  409669:	f3 0f 10 00          	movss  (%rax),%xmm0
  40966d:	f3 0f 58 c1          	addss  %xmm1,%xmm0
  409671:	f3 0f 11 85 64 f3 ff 	movss  %xmm0,-0xc9c(%rbp)
  409678:	ff 
  409679:	f3 0f 10 8d 68 f3 ff 	movss  -0xc98(%rbp),%xmm1
  409680:	ff 
  409681:	8b 85 20 f3 ff ff    	mov    -0xce0(%rbp),%eax
  409687:	48 98                	cltq   
  409689:	48 c1 e0 04          	shl    $0x4,%rax
  40968d:	48 01 e8             	add    %rbp,%rax
  409690:	48 2d 88 0c 00 00    	sub    $0xc88,%rax
  409696:	f3 0f 10 00          	movss  (%rax),%xmm0
  40969a:	f3 0f 58 c1          	addss  %xmm1,%xmm0
  40969e:	f3 0f 11 85 68 f3 ff 	movss  %xmm0,-0xc98(%rbp)
  4096a5:	ff 
  4096a6:	f3 0f 10 8d 6c f3 ff 	movss  -0xc94(%rbp),%xmm1
  4096ad:	ff 
  4096ae:	8b 85 20 f3 ff ff    	mov    -0xce0(%rbp),%eax
  4096b4:	48 98                	cltq   
  4096b6:	48 c1 e0 04          	shl    $0x4,%rax
  4096ba:	48 01 e8             	add    %rbp,%rax
  4096bd:	48 2d 84 0c 00 00    	sub    $0xc84,%rax
  4096c3:	f3 0f 10 00          	movss  (%rax),%xmm0
  4096c7:	f3 0f 58 c1          	addss  %xmm1,%xmm0
  4096cb:	f3 0f 11 85 6c f3 ff 	movss  %xmm0,-0xc94(%rbp)
  4096d2:	ff 
  4096d3:	83 85 20 f3 ff ff 01 	addl   $0x1,-0xce0(%rbp)
  4096da:	f3 0f 10 8d 60 f3 ff 	movss  -0xca0(%rbp),%xmm1
  4096e1:	ff 
  4096e2:	8b 85 20 f3 ff ff    	mov    -0xce0(%rbp),%eax
  4096e8:	48 98                	cltq   
  4096ea:	48 c1 e0 04          	shl    $0x4,%rax
  4096ee:	48 01 e8             	add    %rbp,%rax
  4096f1:	48 2d 90 0c 00 00    	sub    $0xc90,%rax
  4096f7:	f3 0f 10 00          	movss  (%rax),%xmm0
  4096fb:	f3 0f 58 c1          	addss  %xmm1,%xmm0
  4096ff:	f3 0f 11 85 60 f3 ff 	movss  %xmm0,-0xca0(%rbp)
  409706:	ff 
  409707:	f3 0f 10 8d 64 f3 ff 	movss  -0xc9c(%rbp),%xmm1
  40970e:	ff 
  40970f:	8b 85 20 f3 ff ff    	mov    -0xce0(%rbp),%eax
  409715:	48 98                	cltq   
  409717:	48 c1 e0 04          	shl    $0x4,%rax
  40971b:	48 01 e8             	add    %rbp,%rax
  40971e:	48 2d 8c 0c 00 00    	sub    $0xc8c,%rax
  409724:	f3 0f 10 00          	movss  (%rax),%xmm0
  409728:	f3 0f 58 c1          	addss  %xmm1,%xmm0
  40972c:	f3 0f 11 85 64 f3 ff 	movss  %xmm0,-0xc9c(%rbp)
  409733:	ff 
  409734:	f3 0f 10 8d 68 f3 ff 	movss  -0xc98(%rbp),%xmm1
  40973b:	ff 
  40973c:	8b 85 20 f3 ff ff    	mov    -0xce0(%rbp),%eax
  409742:	48 98                	cltq   
  409744:	48 c1 e0 04          	shl    $0x4,%rax
  409748:	48 01 e8             	add    %rbp,%rax
  40974b:	48 2d 88 0c 00 00    	sub    $0xc88,%rax
  409751:	f3 0f 10 00          	movss  (%rax),%xmm0
  409755:	f3 0f 58 c1          	addss  %xmm1,%xmm0
  409759:	f3 0f 11 85 68 f3 ff 	movss  %xmm0,-0xc98(%rbp)
  409760:	ff 
  409761:	f3 0f 10 8d 6c f3 ff 	movss  -0xc94(%rbp),%xmm1
  409768:	ff 
  409769:	8b 85 20 f3 ff ff    	mov    -0xce0(%rbp),%eax
  40976f:	48 98                	cltq   
  409771:	48 c1 e0 04          	shl    $0x4,%rax
  409775:	48 01 e8             	add    %rbp,%rax
  409778:	48 2d 84 0c 00 00    	sub    $0xc84,%rax
  40977e:	f3 0f 10 00          	movss  (%rax),%xmm0
  409782:	f3 0f 58 c1          	addss  %xmm1,%xmm0
  409786:	f3 0f 11 85 6c f3 ff 	movss  %xmm0,-0xc94(%rbp)
  40978d:	ff 
  40978e:	83 85 20 f3 ff ff 01 	addl   $0x1,-0xce0(%rbp)
  409795:	f3 0f 10 8d 60 f3 ff 	movss  -0xca0(%rbp),%xmm1
  40979c:	ff 
  40979d:	8b 85 20 f3 ff ff    	mov    -0xce0(%rbp),%eax
  4097a3:	48 98                	cltq   
  4097a5:	48 c1 e0 04          	shl    $0x4,%rax
  4097a9:	48 01 e8             	add    %rbp,%rax
  4097ac:	48 2d 90 0c 00 00    	sub    $0xc90,%rax
  4097b2:	f3 0f 10 00          	movss  (%rax),%xmm0
  4097b6:	f3 0f 58 c1          	addss  %xmm1,%xmm0
  4097ba:	f3 0f 11 85 60 f3 ff 	movss  %xmm0,-0xca0(%rbp)
  4097c1:	ff 
  4097c2:	f3 0f 10 8d 64 f3 ff 	movss  -0xc9c(%rbp),%xmm1
  4097c9:	ff 
  4097ca:	8b 85 20 f3 ff ff    	mov    -0xce0(%rbp),%eax
  4097d0:	48 98                	cltq   
  4097d2:	48 c1 e0 04          	shl    $0x4,%rax
  4097d6:	48 01 e8             	add    %rbp,%rax
  4097d9:	48 2d 8c 0c 00 00    	sub    $0xc8c,%rax
  4097df:	f3 0f 10 00          	movss  (%rax),%xmm0
  4097e3:	f3 0f 58 c1          	addss  %xmm1,%xmm0
  4097e7:	f3 0f 11 85 64 f3 ff 	movss  %xmm0,-0xc9c(%rbp)
  4097ee:	ff 
  4097ef:	f3 0f 10 8d 68 f3 ff 	movss  -0xc98(%rbp),%xmm1
  4097f6:	ff 
  4097f7:	8b 85 20 f3 ff ff    	mov    -0xce0(%rbp),%eax
  4097fd:	48 98                	cltq   
  4097ff:	48 c1 e0 04          	shl    $0x4,%rax
  409803:	48 01 e8             	add    %rbp,%rax
  409806:	48 2d 88 0c 00 00    	sub    $0xc88,%rax
  40980c:	f3 0f 10 00          	movss  (%rax),%xmm0
  409810:	f3 0f 58 c1          	addss  %xmm1,%xmm0
  409814:	f3 0f 11 85 68 f3 ff 	movss  %xmm0,-0xc98(%rbp)
  40981b:	ff 
  40981c:	f3 0f 10 8d 6c f3 ff 	movss  -0xc94(%rbp),%xmm1
  409823:	ff 
  409824:	8b 85 20 f3 ff ff    	mov    -0xce0(%rbp),%eax
  40982a:	48 98                	cltq   
  40982c:	48 c1 e0 04          	shl    $0x4,%rax
  409830:	48 01 e8             	add    %rbp,%rax
  409833:	48 2d 84 0c 00 00    	sub    $0xc84,%rax
  409839:	f3 0f 10 00          	movss  (%rax),%xmm0
  40983d:	f3 0f 58 c1          	addss  %xmm1,%xmm0
  409841:	f3 0f 11 85 6c f3 ff 	movss  %xmm0,-0xc94(%rbp)
  409848:	ff 
  409849:	83 85 20 f3 ff ff 01 	addl   $0x1,-0xce0(%rbp)
  409850:	f3 0f 10 8d 60 f3 ff 	movss  -0xca0(%rbp),%xmm1
  409857:	ff 
  409858:	8b 85 20 f3 ff ff    	mov    -0xce0(%rbp),%eax
  40985e:	48 98                	cltq   
  409860:	48 c1 e0 04          	shl    $0x4,%rax
  409864:	48 01 e8             	add    %rbp,%rax
  409867:	48 2d 90 0c 00 00    	sub    $0xc90,%rax
  40986d:	f3 0f 10 00          	movss  (%rax),%xmm0
  409871:	f3 0f 58 c1          	addss  %xmm1,%xmm0
  409875:	f3 0f 11 85 60 f3 ff 	movss  %xmm0,-0xca0(%rbp)
  40987c:	ff 
  40987d:	f3 0f 10 8d 64 f3 ff 	movss  -0xc9c(%rbp),%xmm1
  409884:	ff 
  409885:	8b 85 20 f3 ff ff    	mov    -0xce0(%rbp),%eax
  40988b:	48 98                	cltq   
  40988d:	48 c1 e0 04          	shl    $0x4,%rax
  409891:	48 01 e8             	add    %rbp,%rax
  409894:	48 2d 8c 0c 00 00    	sub    $0xc8c,%rax
  40989a:	f3 0f 10 00          	movss  (%rax),%xmm0
  40989e:	f3 0f 58 c1          	addss  %xmm1,%xmm0
  4098a2:	f3 0f 11 85 64 f3 ff 	movss  %xmm0,-0xc9c(%rbp)
  4098a9:	ff 
  4098aa:	f3 0f 10 8d 68 f3 ff 	movss  -0xc98(%rbp),%xmm1
  4098b1:	ff 
  4098b2:	8b 85 20 f3 ff ff    	mov    -0xce0(%rbp),%eax
  4098b8:	48 98                	cltq   
  4098ba:	48 c1 e0 04          	shl    $0x4,%rax
  4098be:	48 01 e8             	add    %rbp,%rax
  4098c1:	48 2d 88 0c 00 00    	sub    $0xc88,%rax
  4098c7:	f3 0f 10 00          	movss  (%rax),%xmm0
  4098cb:	f3 0f 58 c1          	addss  %xmm1,%xmm0
  4098cf:	f3 0f 11 85 68 f3 ff 	movss  %xmm0,-0xc98(%rbp)
  4098d6:	ff 
  4098d7:	f3 0f 10 8d 6c f3 ff 	movss  -0xc94(%rbp),%xmm1
  4098de:	ff 
  4098df:	8b 85 20 f3 ff ff    	mov    -0xce0(%rbp),%eax
  4098e5:	48 98                	cltq   
  4098e7:	48 c1 e0 04          	shl    $0x4,%rax
  4098eb:	48 01 e8             	add    %rbp,%rax
  4098ee:	48 2d 84 0c 00 00    	sub    $0xc84,%rax
  4098f4:	f3 0f 10 00          	movss  (%rax),%xmm0
  4098f8:	f3 0f 58 c1          	addss  %xmm1,%xmm0
  4098fc:	f3 0f 11 85 6c f3 ff 	movss  %xmm0,-0xc94(%rbp)
  409903:	ff 
  409904:	83 85 20 f3 ff ff 01 	addl   $0x1,-0xce0(%rbp)
  40990b:	f3 0f 10 8d 60 f3 ff 	movss  -0xca0(%rbp),%xmm1
  409912:	ff 
  409913:	8b 85 20 f3 ff ff    	mov    -0xce0(%rbp),%eax
  409919:	48 98                	cltq   
  40991b:	48 c1 e0 04          	shl    $0x4,%rax
  40991f:	48 01 e8             	add    %rbp,%rax
  409922:	48 2d 90 0c 00 00    	sub    $0xc90,%rax
  409928:	f3 0f 10 00          	movss  (%rax),%xmm0
  40992c:	f3 0f 58 c1          	addss  %xmm1,%xmm0
  409930:	f3 0f 11 85 60 f3 ff 	movss  %xmm0,-0xca0(%rbp)
  409937:	ff 
  409938:	f3 0f 10 8d 64 f3 ff 	movss  -0xc9c(%rbp),%xmm1
  40993f:	ff 
  409940:	8b 85 20 f3 ff ff    	mov    -0xce0(%rbp),%eax
  409946:	48 98                	cltq   
  409948:	48 c1 e0 04          	shl    $0x4,%rax
  40994c:	48 01 e8             	add    %rbp,%rax
  40994f:	48 2d 8c 0c 00 00    	sub    $0xc8c,%rax
  409955:	f3 0f 10 00          	movss  (%rax),%xmm0
  409959:	f3 0f 58 c1          	addss  %xmm1,%xmm0
  40995d:	f3 0f 11 85 64 f3 ff 	movss  %xmm0,-0xc9c(%rbp)
  409964:	ff 
  409965:	f3 0f 10 8d 68 f3 ff 	movss  -0xc98(%rbp),%xmm1
  40996c:	ff 
  40996d:	8b 85 20 f3 ff ff    	mov    -0xce0(%rbp),%eax
  409973:	48 98                	cltq   
  409975:	48 c1 e0 04          	shl    $0x4,%rax
  409979:	48 01 e8             	add    %rbp,%rax
  40997c:	48 2d 88 0c 00 00    	sub    $0xc88,%rax
  409982:	f3 0f 10 00          	movss  (%rax),%xmm0
  409986:	f3 0f 58 c1          	addss  %xmm1,%xmm0
  40998a:	f3 0f 11 85 68 f3 ff 	movss  %xmm0,-0xc98(%rbp)
  409991:	ff 
  409992:	f3 0f 10 8d 6c f3 ff 	movss  -0xc94(%rbp),%xmm1
  409999:	ff 
  40999a:	8b 85 20 f3 ff ff    	mov    -0xce0(%rbp),%eax
  4099a0:	48 98                	cltq   
  4099a2:	48 c1 e0 04          	shl    $0x4,%rax
  4099a6:	48 01 e8             	add    %rbp,%rax
  4099a9:	48 2d 84 0c 00 00    	sub    $0xc84,%rax
  4099af:	f3 0f 10 00          	movss  (%rax),%xmm0
  4099b3:	f3 0f 58 c1          	addss  %xmm1,%xmm0
  4099b7:	f3 0f 11 85 6c f3 ff 	movss  %xmm0,-0xc94(%rbp)
  4099be:	ff 
  4099bf:	83 85 20 f3 ff ff 01 	addl   $0x1,-0xce0(%rbp)
  4099c6:	f3 0f 10 8d 60 f3 ff 	movss  -0xca0(%rbp),%xmm1
  4099cd:	ff 
  4099ce:	8b 85 20 f3 ff ff    	mov    -0xce0(%rbp),%eax
  4099d4:	48 98                	cltq   
  4099d6:	48 c1 e0 04          	shl    $0x4,%rax
  4099da:	48 01 e8             	add    %rbp,%rax
  4099dd:	48 2d 90 0c 00 00    	sub    $0xc90,%rax
  4099e3:	f3 0f 10 00          	movss  (%rax),%xmm0
  4099e7:	f3 0f 58 c1          	addss  %xmm1,%xmm0
  4099eb:	f3 0f 11 85 60 f3 ff 	movss  %xmm0,-0xca0(%rbp)
  4099f2:	ff 
  4099f3:	f3 0f 10 8d 64 f3 ff 	movss  -0xc9c(%rbp),%xmm1
  4099fa:	ff 
  4099fb:	8b 85 20 f3 ff ff    	mov    -0xce0(%rbp),%eax
  409a01:	48 98                	cltq   
  409a03:	48 c1 e0 04          	shl    $0x4,%rax
  409a07:	48 01 e8             	add    %rbp,%rax
  409a0a:	48 2d 8c 0c 00 00    	sub    $0xc8c,%rax
  409a10:	f3 0f 10 00          	movss  (%rax),%xmm0
  409a14:	f3 0f 58 c1          	addss  %xmm1,%xmm0
  409a18:	f3 0f 11 85 64 f3 ff 	movss  %xmm0,-0xc9c(%rbp)
  409a1f:	ff 
  409a20:	f3 0f 10 8d 68 f3 ff 	movss  -0xc98(%rbp),%xmm1
  409a27:	ff 
  409a28:	8b 85 20 f3 ff ff    	mov    -0xce0(%rbp),%eax
  409a2e:	48 98                	cltq   
  409a30:	48 c1 e0 04          	shl    $0x4,%rax
  409a34:	48 01 e8             	add    %rbp,%rax
  409a37:	48 2d 88 0c 00 00    	sub    $0xc88,%rax
  409a3d:	f3 0f 10 00          	movss  (%rax),%xmm0
  409a41:	f3 0f 58 c1          	addss  %xmm1,%xmm0
  409a45:	f3 0f 11 85 68 f3 ff 	movss  %xmm0,-0xc98(%rbp)
  409a4c:	ff 
  409a4d:	f3 0f 10 8d 6c f3 ff 	movss  -0xc94(%rbp),%xmm1
  409a54:	ff 
  409a55:	8b 85 20 f3 ff ff    	mov    -0xce0(%rbp),%eax
  409a5b:	48 98                	cltq   
  409a5d:	48 c1 e0 04          	shl    $0x4,%rax
  409a61:	48 01 e8             	add    %rbp,%rax
  409a64:	48 2d 84 0c 00 00    	sub    $0xc84,%rax
  409a6a:	f3 0f 10 00          	movss  (%rax),%xmm0
  409a6e:	f3 0f 58 c1          	addss  %xmm1,%xmm0
  409a72:	f3 0f 11 85 6c f3 ff 	movss  %xmm0,-0xc94(%rbp)
  409a79:	ff 
  409a7a:	83 85 20 f3 ff ff 01 	addl   $0x1,-0xce0(%rbp)
  409a81:	c7 85 20 f3 ff ff 00 	movl   $0x0,-0xce0(%rbp)
  409a88:	00 00 00 
  409a8b:	c7 85 38 f3 ff ff 00 	movl   $0x0,-0xcc8(%rbp)
  409a92:	00 00 00 
  409a95:	f3 0f 10 8d 60 f3 ff 	movss  -0xca0(%rbp),%xmm1
  409a9c:	ff 
  409a9d:	8b 85 20 f3 ff ff    	mov    -0xce0(%rbp),%eax
  409aa3:	48 98                	cltq   
  409aa5:	48 c1 e0 04          	shl    $0x4,%rax
  409aa9:	48 01 e8             	add    %rbp,%rax
  409aac:	48 2d 90 0c 00 00    	sub    $0xc90,%rax
  409ab2:	f3 0f 10 00          	movss  (%rax),%xmm0
  409ab6:	f3 0f 58 c1          	addss  %xmm1,%xmm0
  409aba:	f3 0f 11 85 60 f3 ff 	movss  %xmm0,-0xca0(%rbp)
  409ac1:	ff 
  409ac2:	f3 0f 10 8d 64 f3 ff 	movss  -0xc9c(%rbp),%xmm1
  409ac9:	ff 
  409aca:	8b 85 20 f3 ff ff    	mov    -0xce0(%rbp),%eax
  409ad0:	48 98                	cltq   
  409ad2:	48 c1 e0 04          	shl    $0x4,%rax
  409ad6:	48 01 e8             	add    %rbp,%rax
  409ad9:	48 2d 8c 0c 00 00    	sub    $0xc8c,%rax
  409adf:	f3 0f 10 00          	movss  (%rax),%xmm0
  409ae3:	f3 0f 58 c1          	addss  %xmm1,%xmm0
  409ae7:	f3 0f 11 85 64 f3 ff 	movss  %xmm0,-0xc9c(%rbp)
  409aee:	ff 
  409aef:	f3 0f 10 8d 68 f3 ff 	movss  -0xc98(%rbp),%xmm1
  409af6:	ff 
  409af7:	8b 85 20 f3 ff ff    	mov    -0xce0(%rbp),%eax
  409afd:	48 98                	cltq   
  409aff:	48 c1 e0 04          	shl    $0x4,%rax
  409b03:	48 01 e8             	add    %rbp,%rax
  409b06:	48 2d 88 0c 00 00    	sub    $0xc88,%rax
  409b0c:	f3 0f 10 00          	movss  (%rax),%xmm0
  409b10:	f3 0f 58 c1          	addss  %xmm1,%xmm0
  409b14:	f3 0f 11 85 68 f3 ff 	movss  %xmm0,-0xc98(%rbp)
  409b1b:	ff 
  409b1c:	f3 0f 10 8d 6c f3 ff 	movss  -0xc94(%rbp),%xmm1
  409b23:	ff 
  409b24:	8b 85 20 f3 ff ff    	mov    -0xce0(%rbp),%eax
  409b2a:	48 98                	cltq   
  409b2c:	48 c1 e0 04          	shl    $0x4,%rax
  409b30:	48 01 e8             	add    %rbp,%rax
  409b33:	48 2d 84 0c 00 00    	sub    $0xc84,%rax
  409b39:	f3 0f 10 00          	movss  (%rax),%xmm0
  409b3d:	f3 0f 58 c1          	addss  %xmm1,%xmm0
  409b41:	f3 0f 11 85 6c f3 ff 	movss  %xmm0,-0xc94(%rbp)
  409b48:	ff 
  409b49:	83 85 20 f3 ff ff 01 	addl   $0x1,-0xce0(%rbp)
  409b50:	f3 0f 10 8d 60 f3 ff 	movss  -0xca0(%rbp),%xmm1
  409b57:	ff 
  409b58:	8b 85 20 f3 ff ff    	mov    -0xce0(%rbp),%eax
  409b5e:	48 98                	cltq   
  409b60:	48 c1 e0 04          	shl    $0x4,%rax
  409b64:	48 01 e8             	add    %rbp,%rax
  409b67:	48 2d 90 0c 00 00    	sub    $0xc90,%rax
  409b6d:	f3 0f 10 00          	movss  (%rax),%xmm0
  409b71:	f3 0f 58 c1          	addss  %xmm1,%xmm0
  409b75:	f3 0f 11 85 60 f3 ff 	movss  %xmm0,-0xca0(%rbp)
  409b7c:	ff 
  409b7d:	f3 0f 10 8d 64 f3 ff 	movss  -0xc9c(%rbp),%xmm1
  409b84:	ff 
  409b85:	8b 85 20 f3 ff ff    	mov    -0xce0(%rbp),%eax
  409b8b:	48 98                	cltq   
  409b8d:	48 c1 e0 04          	shl    $0x4,%rax
  409b91:	48 01 e8             	add    %rbp,%rax
  409b94:	48 2d 8c 0c 00 00    	sub    $0xc8c,%rax
  409b9a:	f3 0f 10 00          	movss  (%rax),%xmm0
  409b9e:	f3 0f 58 c1          	addss  %xmm1,%xmm0
  409ba2:	f3 0f 11 85 64 f3 ff 	movss  %xmm0,-0xc9c(%rbp)
  409ba9:	ff 
  409baa:	f3 0f 10 8d 68 f3 ff 	movss  -0xc98(%rbp),%xmm1
  409bb1:	ff 
  409bb2:	8b 85 20 f3 ff ff    	mov    -0xce0(%rbp),%eax
  409bb8:	48 98                	cltq   
  409bba:	48 c1 e0 04          	shl    $0x4,%rax
  409bbe:	48 01 e8             	add    %rbp,%rax
  409bc1:	48 2d 88 0c 00 00    	sub    $0xc88,%rax
  409bc7:	f3 0f 10 00          	movss  (%rax),%xmm0
  409bcb:	f3 0f 58 c1          	addss  %xmm1,%xmm0
  409bcf:	f3 0f 11 85 68 f3 ff 	movss  %xmm0,-0xc98(%rbp)
  409bd6:	ff 
  409bd7:	f3 0f 10 8d 6c f3 ff 	movss  -0xc94(%rbp),%xmm1
  409bde:	ff 
  409bdf:	8b 85 20 f3 ff ff    	mov    -0xce0(%rbp),%eax
  409be5:	48 98                	cltq   
  409be7:	48 c1 e0 04          	shl    $0x4,%rax
  409beb:	48 01 e8             	add    %rbp,%rax
  409bee:	48 2d 84 0c 00 00    	sub    $0xc84,%rax
  409bf4:	f3 0f 10 00          	movss  (%rax),%xmm0
  409bf8:	f3 0f 58 c1          	addss  %xmm1,%xmm0
  409bfc:	f3 0f 11 85 6c f3 ff 	movss  %xmm0,-0xc94(%rbp)
  409c03:	ff 
  409c04:	83 85 20 f3 ff ff 01 	addl   $0x1,-0xce0(%rbp)
  409c0b:	f3 0f 10 8d 60 f3 ff 	movss  -0xca0(%rbp),%xmm1
  409c12:	ff 
  409c13:	8b 85 20 f3 ff ff    	mov    -0xce0(%rbp),%eax
  409c19:	48 98                	cltq   
  409c1b:	48 c1 e0 04          	shl    $0x4,%rax
  409c1f:	48 01 e8             	add    %rbp,%rax
  409c22:	48 2d 90 0c 00 00    	sub    $0xc90,%rax
  409c28:	f3 0f 10 00          	movss  (%rax),%xmm0
  409c2c:	f3 0f 58 c1          	addss  %xmm1,%xmm0
  409c30:	f3 0f 11 85 60 f3 ff 	movss  %xmm0,-0xca0(%rbp)
  409c37:	ff 
  409c38:	f3 0f 10 8d 64 f3 ff 	movss  -0xc9c(%rbp),%xmm1
  409c3f:	ff 
  409c40:	8b 85 20 f3 ff ff    	mov    -0xce0(%rbp),%eax
  409c46:	48 98                	cltq   
  409c48:	48 c1 e0 04          	shl    $0x4,%rax
  409c4c:	48 01 e8             	add    %rbp,%rax
  409c4f:	48 2d 8c 0c 00 00    	sub    $0xc8c,%rax
  409c55:	f3 0f 10 00          	movss  (%rax),%xmm0
  409c59:	f3 0f 58 c1          	addss  %xmm1,%xmm0
  409c5d:	f3 0f 11 85 64 f3 ff 	movss  %xmm0,-0xc9c(%rbp)
  409c64:	ff 
  409c65:	f3 0f 10 8d 68 f3 ff 	movss  -0xc98(%rbp),%xmm1
  409c6c:	ff 
  409c6d:	8b 85 20 f3 ff ff    	mov    -0xce0(%rbp),%eax
  409c73:	48 98                	cltq   
  409c75:	48 c1 e0 04          	shl    $0x4,%rax
  409c79:	48 01 e8             	add    %rbp,%rax
  409c7c:	48 2d 88 0c 00 00    	sub    $0xc88,%rax
  409c82:	f3 0f 10 00          	movss  (%rax),%xmm0
  409c86:	f3 0f 58 c1          	addss  %xmm1,%xmm0
  409c8a:	f3 0f 11 85 68 f3 ff 	movss  %xmm0,-0xc98(%rbp)
  409c91:	ff 
  409c92:	f3 0f 10 8d 6c f3 ff 	movss  -0xc94(%rbp),%xmm1
  409c99:	ff 
  409c9a:	8b 85 20 f3 ff ff    	mov    -0xce0(%rbp),%eax
  409ca0:	48 98                	cltq   
  409ca2:	48 c1 e0 04          	shl    $0x4,%rax
  409ca6:	48 01 e8             	add    %rbp,%rax
  409ca9:	48 2d 84 0c 00 00    	sub    $0xc84,%rax
  409caf:	f3 0f 10 00          	movss  (%rax),%xmm0
  409cb3:	f3 0f 58 c1          	addss  %xmm1,%xmm0
  409cb7:	f3 0f 11 85 6c f3 ff 	movss  %xmm0,-0xc94(%rbp)
  409cbe:	ff 
  409cbf:	83 85 20 f3 ff ff 01 	addl   $0x1,-0xce0(%rbp)
  409cc6:	f3 0f 10 8d 60 f3 ff 	movss  -0xca0(%rbp),%xmm1
  409ccd:	ff 
  409cce:	8b 85 20 f3 ff ff    	mov    -0xce0(%rbp),%eax
  409cd4:	48 98                	cltq   
  409cd6:	48 c1 e0 04          	shl    $0x4,%rax
  409cda:	48 01 e8             	add    %rbp,%rax
  409cdd:	48 2d 90 0c 00 00    	sub    $0xc90,%rax
  409ce3:	f3 0f 10 00          	movss  (%rax),%xmm0
  409ce7:	f3 0f 58 c1          	addss  %xmm1,%xmm0
  409ceb:	f3 0f 11 85 60 f3 ff 	movss  %xmm0,-0xca0(%rbp)
  409cf2:	ff 
  409cf3:	f3 0f 10 8d 64 f3 ff 	movss  -0xc9c(%rbp),%xmm1
  409cfa:	ff 
  409cfb:	8b 85 20 f3 ff ff    	mov    -0xce0(%rbp),%eax
  409d01:	48 98                	cltq   
  409d03:	48 c1 e0 04          	shl    $0x4,%rax
  409d07:	48 01 e8             	add    %rbp,%rax
  409d0a:	48 2d 8c 0c 00 00    	sub    $0xc8c,%rax
  409d10:	f3 0f 10 00          	movss  (%rax),%xmm0
  409d14:	f3 0f 58 c1          	addss  %xmm1,%xmm0
  409d18:	f3 0f 11 85 64 f3 ff 	movss  %xmm0,-0xc9c(%rbp)
  409d1f:	ff 
  409d20:	f3 0f 10 8d 68 f3 ff 	movss  -0xc98(%rbp),%xmm1
  409d27:	ff 
  409d28:	8b 85 20 f3 ff ff    	mov    -0xce0(%rbp),%eax
  409d2e:	48 98                	cltq   
  409d30:	48 c1 e0 04          	shl    $0x4,%rax
  409d34:	48 01 e8             	add    %rbp,%rax
  409d37:	48 2d 88 0c 00 00    	sub    $0xc88,%rax
  409d3d:	f3 0f 10 00          	movss  (%rax),%xmm0
  409d41:	f3 0f 58 c1          	addss  %xmm1,%xmm0
  409d45:	f3 0f 11 85 68 f3 ff 	movss  %xmm0,-0xc98(%rbp)
  409d4c:	ff 
  409d4d:	f3 0f 10 8d 6c f3 ff 	movss  -0xc94(%rbp),%xmm1
  409d54:	ff 
  409d55:	8b 85 20 f3 ff ff    	mov    -0xce0(%rbp),%eax
  409d5b:	48 98                	cltq   
  409d5d:	48 c1 e0 04          	shl    $0x4,%rax
  409d61:	48 01 e8             	add    %rbp,%rax
  409d64:	48 2d 84 0c 00 00    	sub    $0xc84,%rax
  409d6a:	f3 0f 10 00          	movss  (%rax),%xmm0
  409d6e:	f3 0f 58 c1          	addss  %xmm1,%xmm0
  409d72:	f3 0f 11 85 6c f3 ff 	movss  %xmm0,-0xc94(%rbp)
  409d79:	ff 
  409d7a:	83 85 20 f3 ff ff 01 	addl   $0x1,-0xce0(%rbp)
  409d81:	f3 0f 10 8d 60 f3 ff 	movss  -0xca0(%rbp),%xmm1
  409d88:	ff 
  409d89:	8b 85 20 f3 ff ff    	mov    -0xce0(%rbp),%eax
  409d8f:	48 98                	cltq   
  409d91:	48 c1 e0 04          	shl    $0x4,%rax
  409d95:	48 01 e8             	add    %rbp,%rax
  409d98:	48 2d 90 0c 00 00    	sub    $0xc90,%rax
  409d9e:	f3 0f 10 00          	movss  (%rax),%xmm0
  409da2:	f3 0f 58 c1          	addss  %xmm1,%xmm0
  409da6:	f3 0f 11 85 60 f3 ff 	movss  %xmm0,-0xca0(%rbp)
  409dad:	ff 
  409dae:	f3 0f 10 8d 64 f3 ff 	movss  -0xc9c(%rbp),%xmm1
  409db5:	ff 
  409db6:	8b 85 20 f3 ff ff    	mov    -0xce0(%rbp),%eax
  409dbc:	48 98                	cltq   
  409dbe:	48 c1 e0 04          	shl    $0x4,%rax
  409dc2:	48 01 e8             	add    %rbp,%rax
  409dc5:	48 2d 8c 0c 00 00    	sub    $0xc8c,%rax
  409dcb:	f3 0f 10 00          	movss  (%rax),%xmm0
  409dcf:	f3 0f 58 c1          	addss  %xmm1,%xmm0
  409dd3:	f3 0f 11 85 64 f3 ff 	movss  %xmm0,-0xc9c(%rbp)
  409dda:	ff 
  409ddb:	f3 0f 10 8d 68 f3 ff 	movss  -0xc98(%rbp),%xmm1
  409de2:	ff 
  409de3:	8b 85 20 f3 ff ff    	mov    -0xce0(%rbp),%eax
  409de9:	48 98                	cltq   
  409deb:	48 c1 e0 04          	shl    $0x4,%rax
  409def:	48 01 e8             	add    %rbp,%rax
  409df2:	48 2d 88 0c 00 00    	sub    $0xc88,%rax
  409df8:	f3 0f 10 00          	movss  (%rax),%xmm0
  409dfc:	f3 0f 58 c1          	addss  %xmm1,%xmm0
  409e00:	f3 0f 11 85 68 f3 ff 	movss  %xmm0,-0xc98(%rbp)
  409e07:	ff 
  409e08:	f3 0f 10 8d 6c f3 ff 	movss  -0xc94(%rbp),%xmm1
  409e0f:	ff 
  409e10:	8b 85 20 f3 ff ff    	mov    -0xce0(%rbp),%eax
  409e16:	48 98                	cltq   
  409e18:	48 c1 e0 04          	shl    $0x4,%rax
  409e1c:	48 01 e8             	add    %rbp,%rax
  409e1f:	48 2d 84 0c 00 00    	sub    $0xc84,%rax
  409e25:	f3 0f 10 00          	movss  (%rax),%xmm0
  409e29:	f3 0f 58 c1          	addss  %xmm1,%xmm0
  409e2d:	f3 0f 11 85 6c f3 ff 	movss  %xmm0,-0xc94(%rbp)
  409e34:	ff 
  409e35:	83 85 20 f3 ff ff 01 	addl   $0x1,-0xce0(%rbp)
  409e3c:	f3 0f 10 8d 60 f3 ff 	movss  -0xca0(%rbp),%xmm1
  409e43:	ff 
  409e44:	8b 85 20 f3 ff ff    	mov    -0xce0(%rbp),%eax
  409e4a:	48 98                	cltq   
  409e4c:	48 c1 e0 04          	shl    $0x4,%rax
  409e50:	48 01 e8             	add    %rbp,%rax
  409e53:	48 2d 90 0c 00 00    	sub    $0xc90,%rax
  409e59:	f3 0f 10 00          	movss  (%rax),%xmm0
  409e5d:	f3 0f 58 c1          	addss  %xmm1,%xmm0
  409e61:	f3 0f 11 85 60 f3 ff 	movss  %xmm0,-0xca0(%rbp)
  409e68:	ff 
  409e69:	f3 0f 10 8d 64 f3 ff 	movss  -0xc9c(%rbp),%xmm1
  409e70:	ff 
  409e71:	8b 85 20 f3 ff ff    	mov    -0xce0(%rbp),%eax
  409e77:	48 98                	cltq   
  409e79:	48 c1 e0 04          	shl    $0x4,%rax
  409e7d:	48 01 e8             	add    %rbp,%rax
  409e80:	48 2d 8c 0c 00 00    	sub    $0xc8c,%rax
  409e86:	f3 0f 10 00          	movss  (%rax),%xmm0
  409e8a:	f3 0f 58 c1          	addss  %xmm1,%xmm0
  409e8e:	f3 0f 11 85 64 f3 ff 	movss  %xmm0,-0xc9c(%rbp)
  409e95:	ff 
  409e96:	f3 0f 10 8d 68 f3 ff 	movss  -0xc98(%rbp),%xmm1
  409e9d:	ff 
  409e9e:	8b 85 20 f3 ff ff    	mov    -0xce0(%rbp),%eax
  409ea4:	48 98                	cltq   
  409ea6:	48 c1 e0 04          	shl    $0x4,%rax
  409eaa:	48 01 e8             	add    %rbp,%rax
  409ead:	48 2d 88 0c 00 00    	sub    $0xc88,%rax
  409eb3:	f3 0f 10 00          	movss  (%rax),%xmm0
  409eb7:	f3 0f 58 c1          	addss  %xmm1,%xmm0
  409ebb:	f3 0f 11 85 68 f3 ff 	movss  %xmm0,-0xc98(%rbp)
  409ec2:	ff 
  409ec3:	f3 0f 10 8d 6c f3 ff 	movss  -0xc94(%rbp),%xmm1
  409eca:	ff 
  409ecb:	8b 85 20 f3 ff ff    	mov    -0xce0(%rbp),%eax
  409ed1:	48 98                	cltq   
  409ed3:	48 c1 e0 04          	shl    $0x4,%rax
  409ed7:	48 01 e8             	add    %rbp,%rax
  409eda:	48 2d 84 0c 00 00    	sub    $0xc84,%rax
  409ee0:	f3 0f 10 00          	movss  (%rax),%xmm0
  409ee4:	f3 0f 58 c1          	addss  %xmm1,%xmm0
  409ee8:	f3 0f 11 85 6c f3 ff 	movss  %xmm0,-0xc94(%rbp)
  409eef:	ff 
  409ef0:	83 85 20 f3 ff ff 01 	addl   $0x1,-0xce0(%rbp)
  409ef7:	f3 0f 10 8d 60 f3 ff 	movss  -0xca0(%rbp),%xmm1
  409efe:	ff 
  409eff:	8b 85 20 f3 ff ff    	mov    -0xce0(%rbp),%eax
  409f05:	48 98                	cltq   
  409f07:	48 c1 e0 04          	shl    $0x4,%rax
  409f0b:	48 01 e8             	add    %rbp,%rax
  409f0e:	48 2d 90 0c 00 00    	sub    $0xc90,%rax
  409f14:	f3 0f 10 00          	movss  (%rax),%xmm0
  409f18:	f3 0f 58 c1          	addss  %xmm1,%xmm0
  409f1c:	f3 0f 11 85 60 f3 ff 	movss  %xmm0,-0xca0(%rbp)
  409f23:	ff 
  409f24:	f3 0f 10 8d 64 f3 ff 	movss  -0xc9c(%rbp),%xmm1
  409f2b:	ff 
  409f2c:	8b 85 20 f3 ff ff    	mov    -0xce0(%rbp),%eax
  409f32:	48 98                	cltq   
  409f34:	48 c1 e0 04          	shl    $0x4,%rax
  409f38:	48 01 e8             	add    %rbp,%rax
  409f3b:	48 2d 8c 0c 00 00    	sub    $0xc8c,%rax
  409f41:	f3 0f 10 00          	movss  (%rax),%xmm0
  409f45:	f3 0f 58 c1          	addss  %xmm1,%xmm0
  409f49:	f3 0f 11 85 64 f3 ff 	movss  %xmm0,-0xc9c(%rbp)
  409f50:	ff 
  409f51:	f3 0f 10 8d 68 f3 ff 	movss  -0xc98(%rbp),%xmm1
  409f58:	ff 
  409f59:	8b 85 20 f3 ff ff    	mov    -0xce0(%rbp),%eax
  409f5f:	48 98                	cltq   
  409f61:	48 c1 e0 04          	shl    $0x4,%rax
  409f65:	48 01 e8             	add    %rbp,%rax
  409f68:	48 2d 88 0c 00 00    	sub    $0xc88,%rax
  409f6e:	f3 0f 10 00          	movss  (%rax),%xmm0
  409f72:	f3 0f 58 c1          	addss  %xmm1,%xmm0
  409f76:	f3 0f 11 85 68 f3 ff 	movss  %xmm0,-0xc98(%rbp)
  409f7d:	ff 
  409f7e:	f3 0f 10 8d 6c f3 ff 	movss  -0xc94(%rbp),%xmm1
  409f85:	ff 
  409f86:	8b 85 20 f3 ff ff    	mov    -0xce0(%rbp),%eax
  409f8c:	48 98                	cltq   
  409f8e:	48 c1 e0 04          	shl    $0x4,%rax
  409f92:	48 01 e8             	add    %rbp,%rax
  409f95:	48 2d 84 0c 00 00    	sub    $0xc84,%rax
  409f9b:	f3 0f 10 00          	movss  (%rax),%xmm0
  409f9f:	f3 0f 58 c1          	addss  %xmm1,%xmm0
  409fa3:	f3 0f 11 85 6c f3 ff 	movss  %xmm0,-0xc94(%rbp)
  409faa:	ff 
  409fab:	83 85 20 f3 ff ff 01 	addl   $0x1,-0xce0(%rbp)
  409fb2:	f3 0f 10 8d 60 f3 ff 	movss  -0xca0(%rbp),%xmm1
  409fb9:	ff 
  409fba:	8b 85 20 f3 ff ff    	mov    -0xce0(%rbp),%eax
  409fc0:	48 98                	cltq   
  409fc2:	48 c1 e0 04          	shl    $0x4,%rax
  409fc6:	48 01 e8             	add    %rbp,%rax
  409fc9:	48 2d 90 0c 00 00    	sub    $0xc90,%rax
  409fcf:	f3 0f 10 00          	movss  (%rax),%xmm0
  409fd3:	f3 0f 58 c1          	addss  %xmm1,%xmm0
  409fd7:	f3 0f 11 85 60 f3 ff 	movss  %xmm0,-0xca0(%rbp)
  409fde:	ff 
  409fdf:	f3 0f 10 8d 64 f3 ff 	movss  -0xc9c(%rbp),%xmm1
  409fe6:	ff 
  409fe7:	8b 85 20 f3 ff ff    	mov    -0xce0(%rbp),%eax
  409fed:	48 98                	cltq   
  409fef:	48 c1 e0 04          	shl    $0x4,%rax
  409ff3:	48 01 e8             	add    %rbp,%rax
  409ff6:	48 2d 8c 0c 00 00    	sub    $0xc8c,%rax
  409ffc:	f3 0f 10 00          	movss  (%rax),%xmm0
  40a000:	f3 0f 58 c1          	addss  %xmm1,%xmm0
  40a004:	f3 0f 11 85 64 f3 ff 	movss  %xmm0,-0xc9c(%rbp)
  40a00b:	ff 
  40a00c:	f3 0f 10 8d 68 f3 ff 	movss  -0xc98(%rbp),%xmm1
  40a013:	ff 
  40a014:	8b 85 20 f3 ff ff    	mov    -0xce0(%rbp),%eax
  40a01a:	48 98                	cltq   
  40a01c:	48 c1 e0 04          	shl    $0x4,%rax
  40a020:	48 01 e8             	add    %rbp,%rax
  40a023:	48 2d 88 0c 00 00    	sub    $0xc88,%rax
  40a029:	f3 0f 10 00          	movss  (%rax),%xmm0
  40a02d:	f3 0f 58 c1          	addss  %xmm1,%xmm0
  40a031:	f3 0f 11 85 68 f3 ff 	movss  %xmm0,-0xc98(%rbp)
  40a038:	ff 
  40a039:	f3 0f 10 8d 6c f3 ff 	movss  -0xc94(%rbp),%xmm1
  40a040:	ff 
  40a041:	8b 85 20 f3 ff ff    	mov    -0xce0(%rbp),%eax
  40a047:	48 98                	cltq   
  40a049:	48 c1 e0 04          	shl    $0x4,%rax
  40a04d:	48 01 e8             	add    %rbp,%rax
  40a050:	48 2d 84 0c 00 00    	sub    $0xc84,%rax
  40a056:	f3 0f 10 00          	movss  (%rax),%xmm0
  40a05a:	f3 0f 58 c1          	addss  %xmm1,%xmm0
  40a05e:	f3 0f 11 85 6c f3 ff 	movss  %xmm0,-0xc94(%rbp)
  40a065:	ff 
  40a066:	83 85 20 f3 ff ff 01 	addl   $0x1,-0xce0(%rbp)
  40a06d:	f3 0f 10 8d 60 f3 ff 	movss  -0xca0(%rbp),%xmm1
  40a074:	ff 
  40a075:	8b 85 20 f3 ff ff    	mov    -0xce0(%rbp),%eax
  40a07b:	48 98                	cltq   
  40a07d:	48 c1 e0 04          	shl    $0x4,%rax
  40a081:	48 01 e8             	add    %rbp,%rax
  40a084:	48 2d 90 0c 00 00    	sub    $0xc90,%rax
  40a08a:	f3 0f 10 00          	movss  (%rax),%xmm0
  40a08e:	f3 0f 58 c1          	addss  %xmm1,%xmm0
  40a092:	f3 0f 11 85 60 f3 ff 	movss  %xmm0,-0xca0(%rbp)
  40a099:	ff 
  40a09a:	f3 0f 10 8d 64 f3 ff 	movss  -0xc9c(%rbp),%xmm1
  40a0a1:	ff 
  40a0a2:	8b 85 20 f3 ff ff    	mov    -0xce0(%rbp),%eax
  40a0a8:	48 98                	cltq   
  40a0aa:	48 c1 e0 04          	shl    $0x4,%rax
  40a0ae:	48 01 e8             	add    %rbp,%rax
  40a0b1:	48 2d 8c 0c 00 00    	sub    $0xc8c,%rax
  40a0b7:	f3 0f 10 00          	movss  (%rax),%xmm0
  40a0bb:	f3 0f 58 c1          	addss  %xmm1,%xmm0
  40a0bf:	f3 0f 11 85 64 f3 ff 	movss  %xmm0,-0xc9c(%rbp)
  40a0c6:	ff 
  40a0c7:	f3 0f 10 8d 68 f3 ff 	movss  -0xc98(%rbp),%xmm1
  40a0ce:	ff 
  40a0cf:	8b 85 20 f3 ff ff    	mov    -0xce0(%rbp),%eax
  40a0d5:	48 98                	cltq   
  40a0d7:	48 c1 e0 04          	shl    $0x4,%rax
  40a0db:	48 01 e8             	add    %rbp,%rax
  40a0de:	48 2d 88 0c 00 00    	sub    $0xc88,%rax
  40a0e4:	f3 0f 10 00          	movss  (%rax),%xmm0
  40a0e8:	f3 0f 58 c1          	addss  %xmm1,%xmm0
  40a0ec:	f3 0f 11 85 68 f3 ff 	movss  %xmm0,-0xc98(%rbp)
  40a0f3:	ff 
  40a0f4:	f3 0f 10 8d 6c f3 ff 	movss  -0xc94(%rbp),%xmm1
  40a0fb:	ff 
  40a0fc:	8b 85 20 f3 ff ff    	mov    -0xce0(%rbp),%eax
  40a102:	48 98                	cltq   
  40a104:	48 c1 e0 04          	shl    $0x4,%rax
  40a108:	48 01 e8             	add    %rbp,%rax
  40a10b:	48 2d 84 0c 00 00    	sub    $0xc84,%rax
  40a111:	f3 0f 10 00          	movss  (%rax),%xmm0
  40a115:	f3 0f 58 c1          	addss  %xmm1,%xmm0
  40a119:	f3 0f 11 85 6c f3 ff 	movss  %xmm0,-0xc94(%rbp)
  40a120:	ff 
  40a121:	83 85 20 f3 ff ff 01 	addl   $0x1,-0xce0(%rbp)
  40a128:	f3 0f 10 8d 60 f3 ff 	movss  -0xca0(%rbp),%xmm1
  40a12f:	ff 
  40a130:	8b 85 20 f3 ff ff    	mov    -0xce0(%rbp),%eax
  40a136:	48 98                	cltq   
  40a138:	48 c1 e0 04          	shl    $0x4,%rax
  40a13c:	48 01 e8             	add    %rbp,%rax
  40a13f:	48 2d 90 0c 00 00    	sub    $0xc90,%rax
  40a145:	f3 0f 10 00          	movss  (%rax),%xmm0
  40a149:	f3 0f 58 c1          	addss  %xmm1,%xmm0
  40a14d:	f3 0f 11 85 60 f3 ff 	movss  %xmm0,-0xca0(%rbp)
  40a154:	ff 
  40a155:	f3 0f 10 8d 64 f3 ff 	movss  -0xc9c(%rbp),%xmm1
  40a15c:	ff 
  40a15d:	8b 85 20 f3 ff ff    	mov    -0xce0(%rbp),%eax
  40a163:	48 98                	cltq   
  40a165:	48 c1 e0 04          	shl    $0x4,%rax
  40a169:	48 01 e8             	add    %rbp,%rax
  40a16c:	48 2d 8c 0c 00 00    	sub    $0xc8c,%rax
  40a172:	f3 0f 10 00          	movss  (%rax),%xmm0
  40a176:	f3 0f 58 c1          	addss  %xmm1,%xmm0
  40a17a:	f3 0f 11 85 64 f3 ff 	movss  %xmm0,-0xc9c(%rbp)
  40a181:	ff 
  40a182:	f3 0f 10 8d 68 f3 ff 	movss  -0xc98(%rbp),%xmm1
  40a189:	ff 
  40a18a:	8b 85 20 f3 ff ff    	mov    -0xce0(%rbp),%eax
  40a190:	48 98                	cltq   
  40a192:	48 c1 e0 04          	shl    $0x4,%rax
  40a196:	48 01 e8             	add    %rbp,%rax
  40a199:	48 2d 88 0c 00 00    	sub    $0xc88,%rax
  40a19f:	f3 0f 10 00          	movss  (%rax),%xmm0
  40a1a3:	f3 0f 58 c1          	addss  %xmm1,%xmm0
  40a1a7:	f3 0f 11 85 68 f3 ff 	movss  %xmm0,-0xc98(%rbp)
  40a1ae:	ff 
  40a1af:	f3 0f 10 8d 6c f3 ff 	movss  -0xc94(%rbp),%xmm1
  40a1b6:	ff 
  40a1b7:	8b 85 20 f3 ff ff    	mov    -0xce0(%rbp),%eax
  40a1bd:	48 98                	cltq   
  40a1bf:	48 c1 e0 04          	shl    $0x4,%rax
  40a1c3:	48 01 e8             	add    %rbp,%rax
  40a1c6:	48 2d 84 0c 00 00    	sub    $0xc84,%rax
  40a1cc:	f3 0f 10 00          	movss  (%rax),%xmm0
  40a1d0:	f3 0f 58 c1          	addss  %xmm1,%xmm0
  40a1d4:	f3 0f 11 85 6c f3 ff 	movss  %xmm0,-0xc94(%rbp)
  40a1db:	ff 
  40a1dc:	83 85 20 f3 ff ff 01 	addl   $0x1,-0xce0(%rbp)
  40a1e3:	f3 0f 10 8d 60 f3 ff 	movss  -0xca0(%rbp),%xmm1
  40a1ea:	ff 
  40a1eb:	8b 85 20 f3 ff ff    	mov    -0xce0(%rbp),%eax
  40a1f1:	48 98                	cltq   
  40a1f3:	48 c1 e0 04          	shl    $0x4,%rax
  40a1f7:	48 01 e8             	add    %rbp,%rax
  40a1fa:	48 2d 90 0c 00 00    	sub    $0xc90,%rax
  40a200:	f3 0f 10 00          	movss  (%rax),%xmm0
  40a204:	f3 0f 58 c1          	addss  %xmm1,%xmm0
  40a208:	f3 0f 11 85 60 f3 ff 	movss  %xmm0,-0xca0(%rbp)
  40a20f:	ff 
  40a210:	f3 0f 10 8d 64 f3 ff 	movss  -0xc9c(%rbp),%xmm1
  40a217:	ff 
  40a218:	8b 85 20 f3 ff ff    	mov    -0xce0(%rbp),%eax
  40a21e:	48 98                	cltq   
  40a220:	48 c1 e0 04          	shl    $0x4,%rax
  40a224:	48 01 e8             	add    %rbp,%rax
  40a227:	48 2d 8c 0c 00 00    	sub    $0xc8c,%rax
  40a22d:	f3 0f 10 00          	movss  (%rax),%xmm0
  40a231:	f3 0f 58 c1          	addss  %xmm1,%xmm0
  40a235:	f3 0f 11 85 64 f3 ff 	movss  %xmm0,-0xc9c(%rbp)
  40a23c:	ff 
  40a23d:	f3 0f 10 8d 68 f3 ff 	movss  -0xc98(%rbp),%xmm1
  40a244:	ff 
  40a245:	8b 85 20 f3 ff ff    	mov    -0xce0(%rbp),%eax
  40a24b:	48 98                	cltq   
  40a24d:	48 c1 e0 04          	shl    $0x4,%rax
  40a251:	48 01 e8             	add    %rbp,%rax
  40a254:	48 2d 88 0c 00 00    	sub    $0xc88,%rax
  40a25a:	f3 0f 10 00          	movss  (%rax),%xmm0
  40a25e:	f3 0f 58 c1          	addss  %xmm1,%xmm0
  40a262:	f3 0f 11 85 68 f3 ff 	movss  %xmm0,-0xc98(%rbp)
  40a269:	ff 
  40a26a:	f3 0f 10 8d 6c f3 ff 	movss  -0xc94(%rbp),%xmm1
  40a271:	ff 
  40a272:	8b 85 20 f3 ff ff    	mov    -0xce0(%rbp),%eax
  40a278:	48 98                	cltq   
  40a27a:	48 c1 e0 04          	shl    $0x4,%rax
  40a27e:	48 01 e8             	add    %rbp,%rax
  40a281:	48 2d 84 0c 00 00    	sub    $0xc84,%rax
  40a287:	f3 0f 10 00          	movss  (%rax),%xmm0
  40a28b:	f3 0f 58 c1          	addss  %xmm1,%xmm0
  40a28f:	f3 0f 11 85 6c f3 ff 	movss  %xmm0,-0xc94(%rbp)
  40a296:	ff 
  40a297:	83 85 20 f3 ff ff 01 	addl   $0x1,-0xce0(%rbp)
  40a29e:	f3 0f 10 8d 60 f3 ff 	movss  -0xca0(%rbp),%xmm1
  40a2a5:	ff 
  40a2a6:	8b 85 20 f3 ff ff    	mov    -0xce0(%rbp),%eax
  40a2ac:	48 98                	cltq   
  40a2ae:	48 c1 e0 04          	shl    $0x4,%rax
  40a2b2:	48 01 e8             	add    %rbp,%rax
  40a2b5:	48 2d 90 0c 00 00    	sub    $0xc90,%rax
  40a2bb:	f3 0f 10 00          	movss  (%rax),%xmm0
  40a2bf:	f3 0f 58 c1          	addss  %xmm1,%xmm0
  40a2c3:	f3 0f 11 85 60 f3 ff 	movss  %xmm0,-0xca0(%rbp)
  40a2ca:	ff 
  40a2cb:	f3 0f 10 8d 64 f3 ff 	movss  -0xc9c(%rbp),%xmm1
  40a2d2:	ff 
  40a2d3:	8b 85 20 f3 ff ff    	mov    -0xce0(%rbp),%eax
  40a2d9:	48 98                	cltq   
  40a2db:	48 c1 e0 04          	shl    $0x4,%rax
  40a2df:	48 01 e8             	add    %rbp,%rax
  40a2e2:	48 2d 8c 0c 00 00    	sub    $0xc8c,%rax
  40a2e8:	f3 0f 10 00          	movss  (%rax),%xmm0
  40a2ec:	f3 0f 58 c1          	addss  %xmm1,%xmm0
  40a2f0:	f3 0f 11 85 64 f3 ff 	movss  %xmm0,-0xc9c(%rbp)
  40a2f7:	ff 
  40a2f8:	f3 0f 10 8d 68 f3 ff 	movss  -0xc98(%rbp),%xmm1
  40a2ff:	ff 
  40a300:	8b 85 20 f3 ff ff    	mov    -0xce0(%rbp),%eax
  40a306:	48 98                	cltq   
  40a308:	48 c1 e0 04          	shl    $0x4,%rax
  40a30c:	48 01 e8             	add    %rbp,%rax
  40a30f:	48 2d 88 0c 00 00    	sub    $0xc88,%rax
  40a315:	f3 0f 10 00          	movss  (%rax),%xmm0
  40a319:	f3 0f 58 c1          	addss  %xmm1,%xmm0
  40a31d:	f3 0f 11 85 68 f3 ff 	movss  %xmm0,-0xc98(%rbp)
  40a324:	ff 
  40a325:	f3 0f 10 8d 6c f3 ff 	movss  -0xc94(%rbp),%xmm1
  40a32c:	ff 
  40a32d:	8b 85 20 f3 ff ff    	mov    -0xce0(%rbp),%eax
  40a333:	48 98                	cltq   
  40a335:	48 c1 e0 04          	shl    $0x4,%rax
  40a339:	48 01 e8             	add    %rbp,%rax
  40a33c:	48 2d 84 0c 00 00    	sub    $0xc84,%rax
  40a342:	f3 0f 10 00          	movss  (%rax),%xmm0
  40a346:	f3 0f 58 c1          	addss  %xmm1,%xmm0
  40a34a:	f3 0f 11 85 6c f3 ff 	movss  %xmm0,-0xc94(%rbp)
  40a351:	ff 
  40a352:	83 85 20 f3 ff ff 01 	addl   $0x1,-0xce0(%rbp)
  40a359:	f3 0f 10 8d 60 f3 ff 	movss  -0xca0(%rbp),%xmm1
  40a360:	ff 
  40a361:	8b 85 20 f3 ff ff    	mov    -0xce0(%rbp),%eax
  40a367:	48 98                	cltq   
  40a369:	48 c1 e0 04          	shl    $0x4,%rax
  40a36d:	48 01 e8             	add    %rbp,%rax
  40a370:	48 2d 90 0c 00 00    	sub    $0xc90,%rax
  40a376:	f3 0f 10 00          	movss  (%rax),%xmm0
  40a37a:	f3 0f 58 c1          	addss  %xmm1,%xmm0
  40a37e:	f3 0f 11 85 60 f3 ff 	movss  %xmm0,-0xca0(%rbp)
  40a385:	ff 
  40a386:	f3 0f 10 8d 64 f3 ff 	movss  -0xc9c(%rbp),%xmm1
  40a38d:	ff 
  40a38e:	8b 85 20 f3 ff ff    	mov    -0xce0(%rbp),%eax
  40a394:	48 98                	cltq   
  40a396:	48 c1 e0 04          	shl    $0x4,%rax
  40a39a:	48 01 e8             	add    %rbp,%rax
  40a39d:	48 2d 8c 0c 00 00    	sub    $0xc8c,%rax
  40a3a3:	f3 0f 10 00          	movss  (%rax),%xmm0
  40a3a7:	f3 0f 58 c1          	addss  %xmm1,%xmm0
  40a3ab:	f3 0f 11 85 64 f3 ff 	movss  %xmm0,-0xc9c(%rbp)
  40a3b2:	ff 
  40a3b3:	f3 0f 10 8d 68 f3 ff 	movss  -0xc98(%rbp),%xmm1
  40a3ba:	ff 
  40a3bb:	8b 85 20 f3 ff ff    	mov    -0xce0(%rbp),%eax
  40a3c1:	48 98                	cltq   
  40a3c3:	48 c1 e0 04          	shl    $0x4,%rax
  40a3c7:	48 01 e8             	add    %rbp,%rax
  40a3ca:	48 2d 88 0c 00 00    	sub    $0xc88,%rax
  40a3d0:	f3 0f 10 00          	movss  (%rax),%xmm0
  40a3d4:	f3 0f 58 c1          	addss  %xmm1,%xmm0
  40a3d8:	f3 0f 11 85 68 f3 ff 	movss  %xmm0,-0xc98(%rbp)
  40a3df:	ff 
  40a3e0:	f3 0f 10 8d 6c f3 ff 	movss  -0xc94(%rbp),%xmm1
  40a3e7:	ff 
  40a3e8:	8b 85 20 f3 ff ff    	mov    -0xce0(%rbp),%eax
  40a3ee:	48 98                	cltq   
  40a3f0:	48 c1 e0 04          	shl    $0x4,%rax
  40a3f4:	48 01 e8             	add    %rbp,%rax
  40a3f7:	48 2d 84 0c 00 00    	sub    $0xc84,%rax
  40a3fd:	f3 0f 10 00          	movss  (%rax),%xmm0
  40a401:	f3 0f 58 c1          	addss  %xmm1,%xmm0
  40a405:	f3 0f 11 85 6c f3 ff 	movss  %xmm0,-0xc94(%rbp)
  40a40c:	ff 
  40a40d:	83 85 20 f3 ff ff 01 	addl   $0x1,-0xce0(%rbp)
  40a414:	f3 0f 10 8d 60 f3 ff 	movss  -0xca0(%rbp),%xmm1
  40a41b:	ff 
  40a41c:	8b 85 20 f3 ff ff    	mov    -0xce0(%rbp),%eax
  40a422:	48 98                	cltq   
  40a424:	48 c1 e0 04          	shl    $0x4,%rax
  40a428:	48 01 e8             	add    %rbp,%rax
  40a42b:	48 2d 90 0c 00 00    	sub    $0xc90,%rax
  40a431:	f3 0f 10 00          	movss  (%rax),%xmm0
  40a435:	f3 0f 58 c1          	addss  %xmm1,%xmm0
  40a439:	f3 0f 11 85 60 f3 ff 	movss  %xmm0,-0xca0(%rbp)
  40a440:	ff 
  40a441:	f3 0f 10 8d 64 f3 ff 	movss  -0xc9c(%rbp),%xmm1
  40a448:	ff 
  40a449:	8b 85 20 f3 ff ff    	mov    -0xce0(%rbp),%eax
  40a44f:	48 98                	cltq   
  40a451:	48 c1 e0 04          	shl    $0x4,%rax
  40a455:	48 01 e8             	add    %rbp,%rax
  40a458:	48 2d 8c 0c 00 00    	sub    $0xc8c,%rax
  40a45e:	f3 0f 10 00          	movss  (%rax),%xmm0
  40a462:	f3 0f 58 c1          	addss  %xmm1,%xmm0
  40a466:	f3 0f 11 85 64 f3 ff 	movss  %xmm0,-0xc9c(%rbp)
  40a46d:	ff 
  40a46e:	f3 0f 10 8d 68 f3 ff 	movss  -0xc98(%rbp),%xmm1
  40a475:	ff 
  40a476:	8b 85 20 f3 ff ff    	mov    -0xce0(%rbp),%eax
  40a47c:	48 98                	cltq   
  40a47e:	48 c1 e0 04          	shl    $0x4,%rax
  40a482:	48 01 e8             	add    %rbp,%rax
  40a485:	48 2d 88 0c 00 00    	sub    $0xc88,%rax
  40a48b:	f3 0f 10 00          	movss  (%rax),%xmm0
  40a48f:	f3 0f 58 c1          	addss  %xmm1,%xmm0
  40a493:	f3 0f 11 85 68 f3 ff 	movss  %xmm0,-0xc98(%rbp)
  40a49a:	ff 
  40a49b:	f3 0f 10 8d 6c f3 ff 	movss  -0xc94(%rbp),%xmm1
  40a4a2:	ff 
  40a4a3:	8b 85 20 f3 ff ff    	mov    -0xce0(%rbp),%eax
  40a4a9:	48 98                	cltq   
  40a4ab:	48 c1 e0 04          	shl    $0x4,%rax
  40a4af:	48 01 e8             	add    %rbp,%rax
  40a4b2:	48 2d 84 0c 00 00    	sub    $0xc84,%rax
  40a4b8:	f3 0f 10 00          	movss  (%rax),%xmm0
  40a4bc:	f3 0f 58 c1          	addss  %xmm1,%xmm0
  40a4c0:	f3 0f 11 85 6c f3 ff 	movss  %xmm0,-0xc94(%rbp)
  40a4c7:	ff 
  40a4c8:	83 85 20 f3 ff ff 01 	addl   $0x1,-0xce0(%rbp)
  40a4cf:	f3 0f 10 8d 60 f3 ff 	movss  -0xca0(%rbp),%xmm1
  40a4d6:	ff 
  40a4d7:	8b 85 20 f3 ff ff    	mov    -0xce0(%rbp),%eax
  40a4dd:	48 98                	cltq   
  40a4df:	48 c1 e0 04          	shl    $0x4,%rax
  40a4e3:	48 01 e8             	add    %rbp,%rax
  40a4e6:	48 2d 90 0c 00 00    	sub    $0xc90,%rax
  40a4ec:	f3 0f 10 00          	movss  (%rax),%xmm0
  40a4f0:	f3 0f 58 c1          	addss  %xmm1,%xmm0
  40a4f4:	f3 0f 11 85 60 f3 ff 	movss  %xmm0,-0xca0(%rbp)
  40a4fb:	ff 
  40a4fc:	f3 0f 10 8d 64 f3 ff 	movss  -0xc9c(%rbp),%xmm1
  40a503:	ff 
  40a504:	8b 85 20 f3 ff ff    	mov    -0xce0(%rbp),%eax
  40a50a:	48 98                	cltq   
  40a50c:	48 c1 e0 04          	shl    $0x4,%rax
  40a510:	48 01 e8             	add    %rbp,%rax
  40a513:	48 2d 8c 0c 00 00    	sub    $0xc8c,%rax
  40a519:	f3 0f 10 00          	movss  (%rax),%xmm0
  40a51d:	f3 0f 58 c1          	addss  %xmm1,%xmm0
  40a521:	f3 0f 11 85 64 f3 ff 	movss  %xmm0,-0xc9c(%rbp)
  40a528:	ff 
  40a529:	f3 0f 10 8d 68 f3 ff 	movss  -0xc98(%rbp),%xmm1
  40a530:	ff 
  40a531:	8b 85 20 f3 ff ff    	mov    -0xce0(%rbp),%eax
  40a537:	48 98                	cltq   
  40a539:	48 c1 e0 04          	shl    $0x4,%rax
  40a53d:	48 01 e8             	add    %rbp,%rax
  40a540:	48 2d 88 0c 00 00    	sub    $0xc88,%rax
  40a546:	f3 0f 10 00          	movss  (%rax),%xmm0
  40a54a:	f3 0f 58 c1          	addss  %xmm1,%xmm0
  40a54e:	f3 0f 11 85 68 f3 ff 	movss  %xmm0,-0xc98(%rbp)
  40a555:	ff 
  40a556:	f3 0f 10 8d 6c f3 ff 	movss  -0xc94(%rbp),%xmm1
  40a55d:	ff 
  40a55e:	8b 85 20 f3 ff ff    	mov    -0xce0(%rbp),%eax
  40a564:	48 98                	cltq   
  40a566:	48 c1 e0 04          	shl    $0x4,%rax
  40a56a:	48 01 e8             	add    %rbp,%rax
  40a56d:	48 2d 84 0c 00 00    	sub    $0xc84,%rax
  40a573:	f3 0f 10 00          	movss  (%rax),%xmm0
  40a577:	f3 0f 58 c1          	addss  %xmm1,%xmm0
  40a57b:	f3 0f 11 85 6c f3 ff 	movss  %xmm0,-0xc94(%rbp)
  40a582:	ff 
  40a583:	83 85 20 f3 ff ff 01 	addl   $0x1,-0xce0(%rbp)
  40a58a:	f3 0f 10 8d 60 f3 ff 	movss  -0xca0(%rbp),%xmm1
  40a591:	ff 
  40a592:	8b 85 20 f3 ff ff    	mov    -0xce0(%rbp),%eax
  40a598:	48 98                	cltq   
  40a59a:	48 c1 e0 04          	shl    $0x4,%rax
  40a59e:	48 01 e8             	add    %rbp,%rax
  40a5a1:	48 2d 90 0c 00 00    	sub    $0xc90,%rax
  40a5a7:	f3 0f 10 00          	movss  (%rax),%xmm0
  40a5ab:	f3 0f 58 c1          	addss  %xmm1,%xmm0
  40a5af:	f3 0f 11 85 60 f3 ff 	movss  %xmm0,-0xca0(%rbp)
  40a5b6:	ff 
  40a5b7:	f3 0f 10 8d 64 f3 ff 	movss  -0xc9c(%rbp),%xmm1
  40a5be:	ff 
  40a5bf:	8b 85 20 f3 ff ff    	mov    -0xce0(%rbp),%eax
  40a5c5:	48 98                	cltq   
  40a5c7:	48 c1 e0 04          	shl    $0x4,%rax
  40a5cb:	48 01 e8             	add    %rbp,%rax
  40a5ce:	48 2d 8c 0c 00 00    	sub    $0xc8c,%rax
  40a5d4:	f3 0f 10 00          	movss  (%rax),%xmm0
  40a5d8:	f3 0f 58 c1          	addss  %xmm1,%xmm0
  40a5dc:	f3 0f 11 85 64 f3 ff 	movss  %xmm0,-0xc9c(%rbp)
  40a5e3:	ff 
  40a5e4:	f3 0f 10 8d 68 f3 ff 	movss  -0xc98(%rbp),%xmm1
  40a5eb:	ff 
  40a5ec:	8b 85 20 f3 ff ff    	mov    -0xce0(%rbp),%eax
  40a5f2:	48 98                	cltq   
  40a5f4:	48 c1 e0 04          	shl    $0x4,%rax
  40a5f8:	48 01 e8             	add    %rbp,%rax
  40a5fb:	48 2d 88 0c 00 00    	sub    $0xc88,%rax
  40a601:	f3 0f 10 00          	movss  (%rax),%xmm0
  40a605:	f3 0f 58 c1          	addss  %xmm1,%xmm0
  40a609:	f3 0f 11 85 68 f3 ff 	movss  %xmm0,-0xc98(%rbp)
  40a610:	ff 
  40a611:	f3 0f 10 8d 6c f3 ff 	movss  -0xc94(%rbp),%xmm1
  40a618:	ff 
  40a619:	8b 85 20 f3 ff ff    	mov    -0xce0(%rbp),%eax
  40a61f:	48 98                	cltq   
  40a621:	48 c1 e0 04          	shl    $0x4,%rax
  40a625:	48 01 e8             	add    %rbp,%rax
  40a628:	48 2d 84 0c 00 00    	sub    $0xc84,%rax
  40a62e:	f3 0f 10 00          	movss  (%rax),%xmm0
  40a632:	f3 0f 58 c1          	addss  %xmm1,%xmm0
  40a636:	f3 0f 11 85 6c f3 ff 	movss  %xmm0,-0xc94(%rbp)
  40a63d:	ff 
  40a63e:	83 85 20 f3 ff ff 01 	addl   $0x1,-0xce0(%rbp)
  40a645:	f3 0f 10 8d 60 f3 ff 	movss  -0xca0(%rbp),%xmm1
  40a64c:	ff 
  40a64d:	8b 85 20 f3 ff ff    	mov    -0xce0(%rbp),%eax
  40a653:	48 98                	cltq   
  40a655:	48 c1 e0 04          	shl    $0x4,%rax
  40a659:	48 01 e8             	add    %rbp,%rax
  40a65c:	48 2d 90 0c 00 00    	sub    $0xc90,%rax
  40a662:	f3 0f 10 00          	movss  (%rax),%xmm0
  40a666:	f3 0f 58 c1          	addss  %xmm1,%xmm0
  40a66a:	f3 0f 11 85 60 f3 ff 	movss  %xmm0,-0xca0(%rbp)
  40a671:	ff 
  40a672:	f3 0f 10 8d 64 f3 ff 	movss  -0xc9c(%rbp),%xmm1
  40a679:	ff 
  40a67a:	8b 85 20 f3 ff ff    	mov    -0xce0(%rbp),%eax
  40a680:	48 98                	cltq   
  40a682:	48 c1 e0 04          	shl    $0x4,%rax
  40a686:	48 01 e8             	add    %rbp,%rax
  40a689:	48 2d 8c 0c 00 00    	sub    $0xc8c,%rax
  40a68f:	f3 0f 10 00          	movss  (%rax),%xmm0
  40a693:	f3 0f 58 c1          	addss  %xmm1,%xmm0
  40a697:	f3 0f 11 85 64 f3 ff 	movss  %xmm0,-0xc9c(%rbp)
  40a69e:	ff 
  40a69f:	f3 0f 10 8d 68 f3 ff 	movss  -0xc98(%rbp),%xmm1
  40a6a6:	ff 
  40a6a7:	8b 85 20 f3 ff ff    	mov    -0xce0(%rbp),%eax
  40a6ad:	48 98                	cltq   
  40a6af:	48 c1 e0 04          	shl    $0x4,%rax
  40a6b3:	48 01 e8             	add    %rbp,%rax
  40a6b6:	48 2d 88 0c 00 00    	sub    $0xc88,%rax
  40a6bc:	f3 0f 10 00          	movss  (%rax),%xmm0
  40a6c0:	f3 0f 58 c1          	addss  %xmm1,%xmm0
  40a6c4:	f3 0f 11 85 68 f3 ff 	movss  %xmm0,-0xc98(%rbp)
  40a6cb:	ff 
  40a6cc:	f3 0f 10 8d 6c f3 ff 	movss  -0xc94(%rbp),%xmm1
  40a6d3:	ff 
  40a6d4:	8b 85 20 f3 ff ff    	mov    -0xce0(%rbp),%eax
  40a6da:	48 98                	cltq   
  40a6dc:	48 c1 e0 04          	shl    $0x4,%rax
  40a6e0:	48 01 e8             	add    %rbp,%rax
  40a6e3:	48 2d 84 0c 00 00    	sub    $0xc84,%rax
  40a6e9:	f3 0f 10 00          	movss  (%rax),%xmm0
  40a6ed:	f3 0f 58 c1          	addss  %xmm1,%xmm0
  40a6f1:	f3 0f 11 85 6c f3 ff 	movss  %xmm0,-0xc94(%rbp)
  40a6f8:	ff 
  40a6f9:	83 85 20 f3 ff ff 01 	addl   $0x1,-0xce0(%rbp)
  40a700:	f3 0f 10 8d 60 f3 ff 	movss  -0xca0(%rbp),%xmm1
  40a707:	ff 
  40a708:	8b 85 20 f3 ff ff    	mov    -0xce0(%rbp),%eax
  40a70e:	48 98                	cltq   
  40a710:	48 c1 e0 04          	shl    $0x4,%rax
  40a714:	48 01 e8             	add    %rbp,%rax
  40a717:	48 2d 90 0c 00 00    	sub    $0xc90,%rax
  40a71d:	f3 0f 10 00          	movss  (%rax),%xmm0
  40a721:	f3 0f 58 c1          	addss  %xmm1,%xmm0
  40a725:	f3 0f 11 85 60 f3 ff 	movss  %xmm0,-0xca0(%rbp)
  40a72c:	ff 
  40a72d:	f3 0f 10 8d 64 f3 ff 	movss  -0xc9c(%rbp),%xmm1
  40a734:	ff 
  40a735:	8b 85 20 f3 ff ff    	mov    -0xce0(%rbp),%eax
  40a73b:	48 98                	cltq   
  40a73d:	48 c1 e0 04          	shl    $0x4,%rax
  40a741:	48 01 e8             	add    %rbp,%rax
  40a744:	48 2d 8c 0c 00 00    	sub    $0xc8c,%rax
  40a74a:	f3 0f 10 00          	movss  (%rax),%xmm0
  40a74e:	f3 0f 58 c1          	addss  %xmm1,%xmm0
  40a752:	f3 0f 11 85 64 f3 ff 	movss  %xmm0,-0xc9c(%rbp)
  40a759:	ff 
  40a75a:	f3 0f 10 8d 68 f3 ff 	movss  -0xc98(%rbp),%xmm1
  40a761:	ff 
  40a762:	8b 85 20 f3 ff ff    	mov    -0xce0(%rbp),%eax
  40a768:	48 98                	cltq   
  40a76a:	48 c1 e0 04          	shl    $0x4,%rax
  40a76e:	48 01 e8             	add    %rbp,%rax
  40a771:	48 2d 88 0c 00 00    	sub    $0xc88,%rax
  40a777:	f3 0f 10 00          	movss  (%rax),%xmm0
  40a77b:	f3 0f 58 c1          	addss  %xmm1,%xmm0
  40a77f:	f3 0f 11 85 68 f3 ff 	movss  %xmm0,-0xc98(%rbp)
  40a786:	ff 
  40a787:	f3 0f 10 8d 6c f3 ff 	movss  -0xc94(%rbp),%xmm1
  40a78e:	ff 
  40a78f:	8b 85 20 f3 ff ff    	mov    -0xce0(%rbp),%eax
  40a795:	48 98                	cltq   
  40a797:	48 c1 e0 04          	shl    $0x4,%rax
  40a79b:	48 01 e8             	add    %rbp,%rax
  40a79e:	48 2d 84 0c 00 00    	sub    $0xc84,%rax
  40a7a4:	f3 0f 10 00          	movss  (%rax),%xmm0
  40a7a8:	f3 0f 58 c1          	addss  %xmm1,%xmm0
  40a7ac:	f3 0f 11 85 6c f3 ff 	movss  %xmm0,-0xc94(%rbp)
  40a7b3:	ff 
  40a7b4:	83 85 20 f3 ff ff 01 	addl   $0x1,-0xce0(%rbp)
  40a7bb:	f3 0f 10 8d 60 f3 ff 	movss  -0xca0(%rbp),%xmm1
  40a7c2:	ff 
  40a7c3:	8b 85 20 f3 ff ff    	mov    -0xce0(%rbp),%eax
  40a7c9:	48 98                	cltq   
  40a7cb:	48 c1 e0 04          	shl    $0x4,%rax
  40a7cf:	48 01 e8             	add    %rbp,%rax
  40a7d2:	48 2d 90 0c 00 00    	sub    $0xc90,%rax
  40a7d8:	f3 0f 10 00          	movss  (%rax),%xmm0
  40a7dc:	f3 0f 58 c1          	addss  %xmm1,%xmm0
  40a7e0:	f3 0f 11 85 60 f3 ff 	movss  %xmm0,-0xca0(%rbp)
  40a7e7:	ff 
  40a7e8:	f3 0f 10 8d 64 f3 ff 	movss  -0xc9c(%rbp),%xmm1
  40a7ef:	ff 
  40a7f0:	8b 85 20 f3 ff ff    	mov    -0xce0(%rbp),%eax
  40a7f6:	48 98                	cltq   
  40a7f8:	48 c1 e0 04          	shl    $0x4,%rax
  40a7fc:	48 01 e8             	add    %rbp,%rax
  40a7ff:	48 2d 8c 0c 00 00    	sub    $0xc8c,%rax
  40a805:	f3 0f 10 00          	movss  (%rax),%xmm0
  40a809:	f3 0f 58 c1          	addss  %xmm1,%xmm0
  40a80d:	f3 0f 11 85 64 f3 ff 	movss  %xmm0,-0xc9c(%rbp)
  40a814:	ff 
  40a815:	f3 0f 10 8d 68 f3 ff 	movss  -0xc98(%rbp),%xmm1
  40a81c:	ff 
  40a81d:	8b 85 20 f3 ff ff    	mov    -0xce0(%rbp),%eax
  40a823:	48 98                	cltq   
  40a825:	48 c1 e0 04          	shl    $0x4,%rax
  40a829:	48 01 e8             	add    %rbp,%rax
  40a82c:	48 2d 88 0c 00 00    	sub    $0xc88,%rax
  40a832:	f3 0f 10 00          	movss  (%rax),%xmm0
  40a836:	f3 0f 58 c1          	addss  %xmm1,%xmm0
  40a83a:	f3 0f 11 85 68 f3 ff 	movss  %xmm0,-0xc98(%rbp)
  40a841:	ff 
  40a842:	f3 0f 10 8d 6c f3 ff 	movss  -0xc94(%rbp),%xmm1
  40a849:	ff 
  40a84a:	8b 85 20 f3 ff ff    	mov    -0xce0(%rbp),%eax
  40a850:	48 98                	cltq   
  40a852:	48 c1 e0 04          	shl    $0x4,%rax
  40a856:	48 01 e8             	add    %rbp,%rax
  40a859:	48 2d 84 0c 00 00    	sub    $0xc84,%rax
  40a85f:	f3 0f 10 00          	movss  (%rax),%xmm0
  40a863:	f3 0f 58 c1          	addss  %xmm1,%xmm0
  40a867:	f3 0f 11 85 6c f3 ff 	movss  %xmm0,-0xc94(%rbp)
  40a86e:	ff 
  40a86f:	83 85 20 f3 ff ff 01 	addl   $0x1,-0xce0(%rbp)
  40a876:	f3 0f 10 8d 60 f3 ff 	movss  -0xca0(%rbp),%xmm1
  40a87d:	ff 
  40a87e:	8b 85 20 f3 ff ff    	mov    -0xce0(%rbp),%eax
  40a884:	48 98                	cltq   
  40a886:	48 c1 e0 04          	shl    $0x4,%rax
  40a88a:	48 01 e8             	add    %rbp,%rax
  40a88d:	48 2d 90 0c 00 00    	sub    $0xc90,%rax
  40a893:	f3 0f 10 00          	movss  (%rax),%xmm0
  40a897:	f3 0f 58 c1          	addss  %xmm1,%xmm0
  40a89b:	f3 0f 11 85 60 f3 ff 	movss  %xmm0,-0xca0(%rbp)
  40a8a2:	ff 
  40a8a3:	f3 0f 10 8d 64 f3 ff 	movss  -0xc9c(%rbp),%xmm1
  40a8aa:	ff 
  40a8ab:	8b 85 20 f3 ff ff    	mov    -0xce0(%rbp),%eax
  40a8b1:	48 98                	cltq   
  40a8b3:	48 c1 e0 04          	shl    $0x4,%rax
  40a8b7:	48 01 e8             	add    %rbp,%rax
  40a8ba:	48 2d 8c 0c 00 00    	sub    $0xc8c,%rax
  40a8c0:	f3 0f 10 00          	movss  (%rax),%xmm0
  40a8c4:	f3 0f 58 c1          	addss  %xmm1,%xmm0
  40a8c8:	f3 0f 11 85 64 f3 ff 	movss  %xmm0,-0xc9c(%rbp)
  40a8cf:	ff 
  40a8d0:	f3 0f 10 8d 68 f3 ff 	movss  -0xc98(%rbp),%xmm1
  40a8d7:	ff 
  40a8d8:	8b 85 20 f3 ff ff    	mov    -0xce0(%rbp),%eax
  40a8de:	48 98                	cltq   
  40a8e0:	48 c1 e0 04          	shl    $0x4,%rax
  40a8e4:	48 01 e8             	add    %rbp,%rax
  40a8e7:	48 2d 88 0c 00 00    	sub    $0xc88,%rax
  40a8ed:	f3 0f 10 00          	movss  (%rax),%xmm0
  40a8f1:	f3 0f 58 c1          	addss  %xmm1,%xmm0
  40a8f5:	f3 0f 11 85 68 f3 ff 	movss  %xmm0,-0xc98(%rbp)
  40a8fc:	ff 
  40a8fd:	f3 0f 10 8d 6c f3 ff 	movss  -0xc94(%rbp),%xmm1
  40a904:	ff 
  40a905:	8b 85 20 f3 ff ff    	mov    -0xce0(%rbp),%eax
  40a90b:	48 98                	cltq   
  40a90d:	48 c1 e0 04          	shl    $0x4,%rax
  40a911:	48 01 e8             	add    %rbp,%rax
  40a914:	48 2d 84 0c 00 00    	sub    $0xc84,%rax
  40a91a:	f3 0f 10 00          	movss  (%rax),%xmm0
  40a91e:	f3 0f 58 c1          	addss  %xmm1,%xmm0
  40a922:	f3 0f 11 85 6c f3 ff 	movss  %xmm0,-0xc94(%rbp)
  40a929:	ff 
  40a92a:	83 85 20 f3 ff ff 01 	addl   $0x1,-0xce0(%rbp)
  40a931:	f3 0f 10 8d 60 f3 ff 	movss  -0xca0(%rbp),%xmm1
  40a938:	ff 
  40a939:	8b 85 20 f3 ff ff    	mov    -0xce0(%rbp),%eax
  40a93f:	48 98                	cltq   
  40a941:	48 c1 e0 04          	shl    $0x4,%rax
  40a945:	48 01 e8             	add    %rbp,%rax
  40a948:	48 2d 90 0c 00 00    	sub    $0xc90,%rax
  40a94e:	f3 0f 10 00          	movss  (%rax),%xmm0
  40a952:	f3 0f 58 c1          	addss  %xmm1,%xmm0
  40a956:	f3 0f 11 85 60 f3 ff 	movss  %xmm0,-0xca0(%rbp)
  40a95d:	ff 
  40a95e:	f3 0f 10 8d 64 f3 ff 	movss  -0xc9c(%rbp),%xmm1
  40a965:	ff 
  40a966:	8b 85 20 f3 ff ff    	mov    -0xce0(%rbp),%eax
  40a96c:	48 98                	cltq   
  40a96e:	48 c1 e0 04          	shl    $0x4,%rax
  40a972:	48 01 e8             	add    %rbp,%rax
  40a975:	48 2d 8c 0c 00 00    	sub    $0xc8c,%rax
  40a97b:	f3 0f 10 00          	movss  (%rax),%xmm0
  40a97f:	f3 0f 58 c1          	addss  %xmm1,%xmm0
  40a983:	f3 0f 11 85 64 f3 ff 	movss  %xmm0,-0xc9c(%rbp)
  40a98a:	ff 
  40a98b:	f3 0f 10 8d 68 f3 ff 	movss  -0xc98(%rbp),%xmm1
  40a992:	ff 
  40a993:	8b 85 20 f3 ff ff    	mov    -0xce0(%rbp),%eax
  40a999:	48 98                	cltq   
  40a99b:	48 c1 e0 04          	shl    $0x4,%rax
  40a99f:	48 01 e8             	add    %rbp,%rax
  40a9a2:	48 2d 88 0c 00 00    	sub    $0xc88,%rax
  40a9a8:	f3 0f 10 00          	movss  (%rax),%xmm0
  40a9ac:	f3 0f 58 c1          	addss  %xmm1,%xmm0
  40a9b0:	f3 0f 11 85 68 f3 ff 	movss  %xmm0,-0xc98(%rbp)
  40a9b7:	ff 
  40a9b8:	f3 0f 10 8d 6c f3 ff 	movss  -0xc94(%rbp),%xmm1
  40a9bf:	ff 
  40a9c0:	8b 85 20 f3 ff ff    	mov    -0xce0(%rbp),%eax
  40a9c6:	48 98                	cltq   
  40a9c8:	48 c1 e0 04          	shl    $0x4,%rax
  40a9cc:	48 01 e8             	add    %rbp,%rax
  40a9cf:	48 2d 84 0c 00 00    	sub    $0xc84,%rax
  40a9d5:	f3 0f 10 00          	movss  (%rax),%xmm0
  40a9d9:	f3 0f 58 c1          	addss  %xmm1,%xmm0
  40a9dd:	f3 0f 11 85 6c f3 ff 	movss  %xmm0,-0xc94(%rbp)
  40a9e4:	ff 
  40a9e5:	83 85 20 f3 ff ff 01 	addl   $0x1,-0xce0(%rbp)
  40a9ec:	f3 0f 10 8d 60 f3 ff 	movss  -0xca0(%rbp),%xmm1
  40a9f3:	ff 
  40a9f4:	8b 85 20 f3 ff ff    	mov    -0xce0(%rbp),%eax
  40a9fa:	48 98                	cltq   
  40a9fc:	48 c1 e0 04          	shl    $0x4,%rax
  40aa00:	48 01 e8             	add    %rbp,%rax
  40aa03:	48 2d 90 0c 00 00    	sub    $0xc90,%rax
  40aa09:	f3 0f 10 00          	movss  (%rax),%xmm0
  40aa0d:	f3 0f 58 c1          	addss  %xmm1,%xmm0
  40aa11:	f3 0f 11 85 60 f3 ff 	movss  %xmm0,-0xca0(%rbp)
  40aa18:	ff 
  40aa19:	f3 0f 10 8d 64 f3 ff 	movss  -0xc9c(%rbp),%xmm1
  40aa20:	ff 
  40aa21:	8b 85 20 f3 ff ff    	mov    -0xce0(%rbp),%eax
  40aa27:	48 98                	cltq   
  40aa29:	48 c1 e0 04          	shl    $0x4,%rax
  40aa2d:	48 01 e8             	add    %rbp,%rax
  40aa30:	48 2d 8c 0c 00 00    	sub    $0xc8c,%rax
  40aa36:	f3 0f 10 00          	movss  (%rax),%xmm0
  40aa3a:	f3 0f 58 c1          	addss  %xmm1,%xmm0
  40aa3e:	f3 0f 11 85 64 f3 ff 	movss  %xmm0,-0xc9c(%rbp)
  40aa45:	ff 
  40aa46:	f3 0f 10 8d 68 f3 ff 	movss  -0xc98(%rbp),%xmm1
  40aa4d:	ff 
  40aa4e:	8b 85 20 f3 ff ff    	mov    -0xce0(%rbp),%eax
  40aa54:	48 98                	cltq   
  40aa56:	48 c1 e0 04          	shl    $0x4,%rax
  40aa5a:	48 01 e8             	add    %rbp,%rax
  40aa5d:	48 2d 88 0c 00 00    	sub    $0xc88,%rax
  40aa63:	f3 0f 10 00          	movss  (%rax),%xmm0
  40aa67:	f3 0f 58 c1          	addss  %xmm1,%xmm0
  40aa6b:	f3 0f 11 85 68 f3 ff 	movss  %xmm0,-0xc98(%rbp)
  40aa72:	ff 
  40aa73:	f3 0f 10 8d 6c f3 ff 	movss  -0xc94(%rbp),%xmm1
  40aa7a:	ff 
  40aa7b:	8b 85 20 f3 ff ff    	mov    -0xce0(%rbp),%eax
  40aa81:	48 98                	cltq   
  40aa83:	48 c1 e0 04          	shl    $0x4,%rax
  40aa87:	48 01 e8             	add    %rbp,%rax
  40aa8a:	48 2d 84 0c 00 00    	sub    $0xc84,%rax
  40aa90:	f3 0f 10 00          	movss  (%rax),%xmm0
  40aa94:	f3 0f 58 c1          	addss  %xmm1,%xmm0
  40aa98:	f3 0f 11 85 6c f3 ff 	movss  %xmm0,-0xc94(%rbp)
  40aa9f:	ff 
  40aaa0:	83 85 20 f3 ff ff 01 	addl   $0x1,-0xce0(%rbp)
  40aaa7:	f3 0f 10 8d 60 f3 ff 	movss  -0xca0(%rbp),%xmm1
  40aaae:	ff 
  40aaaf:	8b 85 20 f3 ff ff    	mov    -0xce0(%rbp),%eax
  40aab5:	48 98                	cltq   
  40aab7:	48 c1 e0 04          	shl    $0x4,%rax
  40aabb:	48 01 e8             	add    %rbp,%rax
  40aabe:	48 2d 90 0c 00 00    	sub    $0xc90,%rax
  40aac4:	f3 0f 10 00          	movss  (%rax),%xmm0
  40aac8:	f3 0f 58 c1          	addss  %xmm1,%xmm0
  40aacc:	f3 0f 11 85 60 f3 ff 	movss  %xmm0,-0xca0(%rbp)
  40aad3:	ff 
  40aad4:	f3 0f 10 8d 64 f3 ff 	movss  -0xc9c(%rbp),%xmm1
  40aadb:	ff 
  40aadc:	8b 85 20 f3 ff ff    	mov    -0xce0(%rbp),%eax
  40aae2:	48 98                	cltq   
  40aae4:	48 c1 e0 04          	shl    $0x4,%rax
  40aae8:	48 01 e8             	add    %rbp,%rax
  40aaeb:	48 2d 8c 0c 00 00    	sub    $0xc8c,%rax
  40aaf1:	f3 0f 10 00          	movss  (%rax),%xmm0
  40aaf5:	f3 0f 58 c1          	addss  %xmm1,%xmm0
  40aaf9:	f3 0f 11 85 64 f3 ff 	movss  %xmm0,-0xc9c(%rbp)
  40ab00:	ff 
  40ab01:	f3 0f 10 8d 68 f3 ff 	movss  -0xc98(%rbp),%xmm1
  40ab08:	ff 
  40ab09:	8b 85 20 f3 ff ff    	mov    -0xce0(%rbp),%eax
  40ab0f:	48 98                	cltq   
  40ab11:	48 c1 e0 04          	shl    $0x4,%rax
  40ab15:	48 01 e8             	add    %rbp,%rax
  40ab18:	48 2d 88 0c 00 00    	sub    $0xc88,%rax
  40ab1e:	f3 0f 10 00          	movss  (%rax),%xmm0
  40ab22:	f3 0f 58 c1          	addss  %xmm1,%xmm0
  40ab26:	f3 0f 11 85 68 f3 ff 	movss  %xmm0,-0xc98(%rbp)
  40ab2d:	ff 
  40ab2e:	f3 0f 10 8d 6c f3 ff 	movss  -0xc94(%rbp),%xmm1
  40ab35:	ff 
  40ab36:	8b 85 20 f3 ff ff    	mov    -0xce0(%rbp),%eax
  40ab3c:	48 98                	cltq   
  40ab3e:	48 c1 e0 04          	shl    $0x4,%rax
  40ab42:	48 01 e8             	add    %rbp,%rax
  40ab45:	48 2d 84 0c 00 00    	sub    $0xc84,%rax
  40ab4b:	f3 0f 10 00          	movss  (%rax),%xmm0
  40ab4f:	f3 0f 58 c1          	addss  %xmm1,%xmm0
  40ab53:	f3 0f 11 85 6c f3 ff 	movss  %xmm0,-0xc94(%rbp)
  40ab5a:	ff 
  40ab5b:	83 85 20 f3 ff ff 01 	addl   $0x1,-0xce0(%rbp)
  40ab62:	f3 0f 10 8d 60 f3 ff 	movss  -0xca0(%rbp),%xmm1
  40ab69:	ff 
  40ab6a:	8b 85 20 f3 ff ff    	mov    -0xce0(%rbp),%eax
  40ab70:	48 98                	cltq   
  40ab72:	48 c1 e0 04          	shl    $0x4,%rax
  40ab76:	48 01 e8             	add    %rbp,%rax
  40ab79:	48 2d 90 0c 00 00    	sub    $0xc90,%rax
  40ab7f:	f3 0f 10 00          	movss  (%rax),%xmm0
  40ab83:	f3 0f 58 c1          	addss  %xmm1,%xmm0
  40ab87:	f3 0f 11 85 60 f3 ff 	movss  %xmm0,-0xca0(%rbp)
  40ab8e:	ff 
  40ab8f:	f3 0f 10 8d 64 f3 ff 	movss  -0xc9c(%rbp),%xmm1
  40ab96:	ff 
  40ab97:	8b 85 20 f3 ff ff    	mov    -0xce0(%rbp),%eax
  40ab9d:	48 98                	cltq   
  40ab9f:	48 c1 e0 04          	shl    $0x4,%rax
  40aba3:	48 01 e8             	add    %rbp,%rax
  40aba6:	48 2d 8c 0c 00 00    	sub    $0xc8c,%rax
  40abac:	f3 0f 10 00          	movss  (%rax),%xmm0
  40abb0:	f3 0f 58 c1          	addss  %xmm1,%xmm0
  40abb4:	f3 0f 11 85 64 f3 ff 	movss  %xmm0,-0xc9c(%rbp)
  40abbb:	ff 
  40abbc:	f3 0f 10 8d 68 f3 ff 	movss  -0xc98(%rbp),%xmm1
  40abc3:	ff 
  40abc4:	8b 85 20 f3 ff ff    	mov    -0xce0(%rbp),%eax
  40abca:	48 98                	cltq   
  40abcc:	48 c1 e0 04          	shl    $0x4,%rax
  40abd0:	48 01 e8             	add    %rbp,%rax
  40abd3:	48 2d 88 0c 00 00    	sub    $0xc88,%rax
  40abd9:	f3 0f 10 00          	movss  (%rax),%xmm0
  40abdd:	f3 0f 58 c1          	addss  %xmm1,%xmm0
  40abe1:	f3 0f 11 85 68 f3 ff 	movss  %xmm0,-0xc98(%rbp)
  40abe8:	ff 
  40abe9:	f3 0f 10 8d 6c f3 ff 	movss  -0xc94(%rbp),%xmm1
  40abf0:	ff 
  40abf1:	8b 85 20 f3 ff ff    	mov    -0xce0(%rbp),%eax
  40abf7:	48 98                	cltq   
  40abf9:	48 c1 e0 04          	shl    $0x4,%rax
  40abfd:	48 01 e8             	add    %rbp,%rax
  40ac00:	48 2d 84 0c 00 00    	sub    $0xc84,%rax
  40ac06:	f3 0f 10 00          	movss  (%rax),%xmm0
  40ac0a:	f3 0f 58 c1          	addss  %xmm1,%xmm0
  40ac0e:	f3 0f 11 85 6c f3 ff 	movss  %xmm0,-0xc94(%rbp)
  40ac15:	ff 
  40ac16:	83 85 20 f3 ff ff 01 	addl   $0x1,-0xce0(%rbp)
  40ac1d:	f3 0f 10 8d 60 f3 ff 	movss  -0xca0(%rbp),%xmm1
  40ac24:	ff 
  40ac25:	8b 85 20 f3 ff ff    	mov    -0xce0(%rbp),%eax
  40ac2b:	48 98                	cltq   
  40ac2d:	48 c1 e0 04          	shl    $0x4,%rax
  40ac31:	48 01 e8             	add    %rbp,%rax
  40ac34:	48 2d 90 0c 00 00    	sub    $0xc90,%rax
  40ac3a:	f3 0f 10 00          	movss  (%rax),%xmm0
  40ac3e:	f3 0f 58 c1          	addss  %xmm1,%xmm0
  40ac42:	f3 0f 11 85 60 f3 ff 	movss  %xmm0,-0xca0(%rbp)
  40ac49:	ff 
  40ac4a:	f3 0f 10 8d 64 f3 ff 	movss  -0xc9c(%rbp),%xmm1
  40ac51:	ff 
  40ac52:	8b 85 20 f3 ff ff    	mov    -0xce0(%rbp),%eax
  40ac58:	48 98                	cltq   
  40ac5a:	48 c1 e0 04          	shl    $0x4,%rax
  40ac5e:	48 01 e8             	add    %rbp,%rax
  40ac61:	48 2d 8c 0c 00 00    	sub    $0xc8c,%rax
  40ac67:	f3 0f 10 00          	movss  (%rax),%xmm0
  40ac6b:	f3 0f 58 c1          	addss  %xmm1,%xmm0
  40ac6f:	f3 0f 11 85 64 f3 ff 	movss  %xmm0,-0xc9c(%rbp)
  40ac76:	ff 
  40ac77:	f3 0f 10 8d 68 f3 ff 	movss  -0xc98(%rbp),%xmm1
  40ac7e:	ff 
  40ac7f:	8b 85 20 f3 ff ff    	mov    -0xce0(%rbp),%eax
  40ac85:	48 98                	cltq   
  40ac87:	48 c1 e0 04          	shl    $0x4,%rax
  40ac8b:	48 01 e8             	add    %rbp,%rax
  40ac8e:	48 2d 88 0c 00 00    	sub    $0xc88,%rax
  40ac94:	f3 0f 10 00          	movss  (%rax),%xmm0
  40ac98:	f3 0f 58 c1          	addss  %xmm1,%xmm0
  40ac9c:	f3 0f 11 85 68 f3 ff 	movss  %xmm0,-0xc98(%rbp)
  40aca3:	ff 
  40aca4:	f3 0f 10 8d 6c f3 ff 	movss  -0xc94(%rbp),%xmm1
  40acab:	ff 
  40acac:	8b 85 20 f3 ff ff    	mov    -0xce0(%rbp),%eax
  40acb2:	48 98                	cltq   
  40acb4:	48 c1 e0 04          	shl    $0x4,%rax
  40acb8:	48 01 e8             	add    %rbp,%rax
  40acbb:	48 2d 84 0c 00 00    	sub    $0xc84,%rax
  40acc1:	f3 0f 10 00          	movss  (%rax),%xmm0
  40acc5:	f3 0f 58 c1          	addss  %xmm1,%xmm0
  40acc9:	f3 0f 11 85 6c f3 ff 	movss  %xmm0,-0xc94(%rbp)
  40acd0:	ff 
  40acd1:	83 85 20 f3 ff ff 01 	addl   $0x1,-0xce0(%rbp)
  40acd8:	f3 0f 10 8d 60 f3 ff 	movss  -0xca0(%rbp),%xmm1
  40acdf:	ff 
  40ace0:	8b 85 20 f3 ff ff    	mov    -0xce0(%rbp),%eax
  40ace6:	48 98                	cltq   
  40ace8:	48 c1 e0 04          	shl    $0x4,%rax
  40acec:	48 01 e8             	add    %rbp,%rax
  40acef:	48 2d 90 0c 00 00    	sub    $0xc90,%rax
  40acf5:	f3 0f 10 00          	movss  (%rax),%xmm0
  40acf9:	f3 0f 58 c1          	addss  %xmm1,%xmm0
  40acfd:	f3 0f 11 85 60 f3 ff 	movss  %xmm0,-0xca0(%rbp)
  40ad04:	ff 
  40ad05:	f3 0f 10 8d 64 f3 ff 	movss  -0xc9c(%rbp),%xmm1
  40ad0c:	ff 
  40ad0d:	8b 85 20 f3 ff ff    	mov    -0xce0(%rbp),%eax
  40ad13:	48 98                	cltq   
  40ad15:	48 c1 e0 04          	shl    $0x4,%rax
  40ad19:	48 01 e8             	add    %rbp,%rax
  40ad1c:	48 2d 8c 0c 00 00    	sub    $0xc8c,%rax
  40ad22:	f3 0f 10 00          	movss  (%rax),%xmm0
  40ad26:	f3 0f 58 c1          	addss  %xmm1,%xmm0
  40ad2a:	f3 0f 11 85 64 f3 ff 	movss  %xmm0,-0xc9c(%rbp)
  40ad31:	ff 
  40ad32:	f3 0f 10 8d 68 f3 ff 	movss  -0xc98(%rbp),%xmm1
  40ad39:	ff 
  40ad3a:	8b 85 20 f3 ff ff    	mov    -0xce0(%rbp),%eax
  40ad40:	48 98                	cltq   
  40ad42:	48 c1 e0 04          	shl    $0x4,%rax
  40ad46:	48 01 e8             	add    %rbp,%rax
  40ad49:	48 2d 88 0c 00 00    	sub    $0xc88,%rax
  40ad4f:	f3 0f 10 00          	movss  (%rax),%xmm0
  40ad53:	f3 0f 58 c1          	addss  %xmm1,%xmm0
  40ad57:	f3 0f 11 85 68 f3 ff 	movss  %xmm0,-0xc98(%rbp)
  40ad5e:	ff 
  40ad5f:	f3 0f 10 8d 6c f3 ff 	movss  -0xc94(%rbp),%xmm1
  40ad66:	ff 
  40ad67:	8b 85 20 f3 ff ff    	mov    -0xce0(%rbp),%eax
  40ad6d:	48 98                	cltq   
  40ad6f:	48 c1 e0 04          	shl    $0x4,%rax
  40ad73:	48 01 e8             	add    %rbp,%rax
  40ad76:	48 2d 84 0c 00 00    	sub    $0xc84,%rax
  40ad7c:	f3 0f 10 00          	movss  (%rax),%xmm0
  40ad80:	f3 0f 58 c1          	addss  %xmm1,%xmm0
  40ad84:	f3 0f 11 85 6c f3 ff 	movss  %xmm0,-0xc94(%rbp)
  40ad8b:	ff 
  40ad8c:	83 85 20 f3 ff ff 01 	addl   $0x1,-0xce0(%rbp)
  40ad93:	f3 0f 10 8d 60 f3 ff 	movss  -0xca0(%rbp),%xmm1
  40ad9a:	ff 
  40ad9b:	8b 85 20 f3 ff ff    	mov    -0xce0(%rbp),%eax
  40ada1:	48 98                	cltq   
  40ada3:	48 c1 e0 04          	shl    $0x4,%rax
  40ada7:	48 01 e8             	add    %rbp,%rax
  40adaa:	48 2d 90 0c 00 00    	sub    $0xc90,%rax
  40adb0:	f3 0f 10 00          	movss  (%rax),%xmm0
  40adb4:	f3 0f 58 c1          	addss  %xmm1,%xmm0
  40adb8:	f3 0f 11 85 60 f3 ff 	movss  %xmm0,-0xca0(%rbp)
  40adbf:	ff 
  40adc0:	f3 0f 10 8d 64 f3 ff 	movss  -0xc9c(%rbp),%xmm1
  40adc7:	ff 
  40adc8:	8b 85 20 f3 ff ff    	mov    -0xce0(%rbp),%eax
  40adce:	48 98                	cltq   
  40add0:	48 c1 e0 04          	shl    $0x4,%rax
  40add4:	48 01 e8             	add    %rbp,%rax
  40add7:	48 2d 8c 0c 00 00    	sub    $0xc8c,%rax
  40addd:	f3 0f 10 00          	movss  (%rax),%xmm0
  40ade1:	f3 0f 58 c1          	addss  %xmm1,%xmm0
  40ade5:	f3 0f 11 85 64 f3 ff 	movss  %xmm0,-0xc9c(%rbp)
  40adec:	ff 
  40aded:	f3 0f 10 8d 68 f3 ff 	movss  -0xc98(%rbp),%xmm1
  40adf4:	ff 
  40adf5:	8b 85 20 f3 ff ff    	mov    -0xce0(%rbp),%eax
  40adfb:	48 98                	cltq   
  40adfd:	48 c1 e0 04          	shl    $0x4,%rax
  40ae01:	48 01 e8             	add    %rbp,%rax
  40ae04:	48 2d 88 0c 00 00    	sub    $0xc88,%rax
  40ae0a:	f3 0f 10 00          	movss  (%rax),%xmm0
  40ae0e:	f3 0f 58 c1          	addss  %xmm1,%xmm0
  40ae12:	f3 0f 11 85 68 f3 ff 	movss  %xmm0,-0xc98(%rbp)
  40ae19:	ff 
  40ae1a:	f3 0f 10 8d 6c f3 ff 	movss  -0xc94(%rbp),%xmm1
  40ae21:	ff 
  40ae22:	8b 85 20 f3 ff ff    	mov    -0xce0(%rbp),%eax
  40ae28:	48 98                	cltq   
  40ae2a:	48 c1 e0 04          	shl    $0x4,%rax
  40ae2e:	48 01 e8             	add    %rbp,%rax
  40ae31:	48 2d 84 0c 00 00    	sub    $0xc84,%rax
  40ae37:	f3 0f 10 00          	movss  (%rax),%xmm0
  40ae3b:	f3 0f 58 c1          	addss  %xmm1,%xmm0
  40ae3f:	f3 0f 11 85 6c f3 ff 	movss  %xmm0,-0xc94(%rbp)
  40ae46:	ff 
  40ae47:	83 85 20 f3 ff ff 01 	addl   $0x1,-0xce0(%rbp)
  40ae4e:	f3 0f 10 8d 60 f3 ff 	movss  -0xca0(%rbp),%xmm1
  40ae55:	ff 
  40ae56:	8b 85 20 f3 ff ff    	mov    -0xce0(%rbp),%eax
  40ae5c:	48 98                	cltq   
  40ae5e:	48 c1 e0 04          	shl    $0x4,%rax
  40ae62:	48 01 e8             	add    %rbp,%rax
  40ae65:	48 2d 90 0c 00 00    	sub    $0xc90,%rax
  40ae6b:	f3 0f 10 00          	movss  (%rax),%xmm0
  40ae6f:	f3 0f 58 c1          	addss  %xmm1,%xmm0
  40ae73:	f3 0f 11 85 60 f3 ff 	movss  %xmm0,-0xca0(%rbp)
  40ae7a:	ff 
  40ae7b:	f3 0f 10 8d 64 f3 ff 	movss  -0xc9c(%rbp),%xmm1
  40ae82:	ff 
  40ae83:	8b 85 20 f3 ff ff    	mov    -0xce0(%rbp),%eax
  40ae89:	48 98                	cltq   
  40ae8b:	48 c1 e0 04          	shl    $0x4,%rax
  40ae8f:	48 01 e8             	add    %rbp,%rax
  40ae92:	48 2d 8c 0c 00 00    	sub    $0xc8c,%rax
  40ae98:	f3 0f 10 00          	movss  (%rax),%xmm0
  40ae9c:	f3 0f 58 c1          	addss  %xmm1,%xmm0
  40aea0:	f3 0f 11 85 64 f3 ff 	movss  %xmm0,-0xc9c(%rbp)
  40aea7:	ff 
  40aea8:	f3 0f 10 8d 68 f3 ff 	movss  -0xc98(%rbp),%xmm1
  40aeaf:	ff 
  40aeb0:	8b 85 20 f3 ff ff    	mov    -0xce0(%rbp),%eax
  40aeb6:	48 98                	cltq   
  40aeb8:	48 c1 e0 04          	shl    $0x4,%rax
  40aebc:	48 01 e8             	add    %rbp,%rax
  40aebf:	48 2d 88 0c 00 00    	sub    $0xc88,%rax
  40aec5:	f3 0f 10 00          	movss  (%rax),%xmm0
  40aec9:	f3 0f 58 c1          	addss  %xmm1,%xmm0
  40aecd:	f3 0f 11 85 68 f3 ff 	movss  %xmm0,-0xc98(%rbp)
  40aed4:	ff 
  40aed5:	f3 0f 10 8d 6c f3 ff 	movss  -0xc94(%rbp),%xmm1
  40aedc:	ff 
  40aedd:	8b 85 20 f3 ff ff    	mov    -0xce0(%rbp),%eax
  40aee3:	48 98                	cltq   
  40aee5:	48 c1 e0 04          	shl    $0x4,%rax
  40aee9:	48 01 e8             	add    %rbp,%rax
  40aeec:	48 2d 84 0c 00 00    	sub    $0xc84,%rax
  40aef2:	f3 0f 10 00          	movss  (%rax),%xmm0
  40aef6:	f3 0f 58 c1          	addss  %xmm1,%xmm0
  40aefa:	f3 0f 11 85 6c f3 ff 	movss  %xmm0,-0xc94(%rbp)
  40af01:	ff 
  40af02:	83 85 20 f3 ff ff 01 	addl   $0x1,-0xce0(%rbp)
  40af09:	f3 0f 10 8d 60 f3 ff 	movss  -0xca0(%rbp),%xmm1
  40af10:	ff 
  40af11:	8b 85 20 f3 ff ff    	mov    -0xce0(%rbp),%eax
  40af17:	48 98                	cltq   
  40af19:	48 c1 e0 04          	shl    $0x4,%rax
  40af1d:	48 01 e8             	add    %rbp,%rax
  40af20:	48 2d 90 0c 00 00    	sub    $0xc90,%rax
  40af26:	f3 0f 10 00          	movss  (%rax),%xmm0
  40af2a:	f3 0f 58 c1          	addss  %xmm1,%xmm0
  40af2e:	f3 0f 11 85 60 f3 ff 	movss  %xmm0,-0xca0(%rbp)
  40af35:	ff 
  40af36:	f3 0f 10 8d 64 f3 ff 	movss  -0xc9c(%rbp),%xmm1
  40af3d:	ff 
  40af3e:	8b 85 20 f3 ff ff    	mov    -0xce0(%rbp),%eax
  40af44:	48 98                	cltq   
  40af46:	48 c1 e0 04          	shl    $0x4,%rax
  40af4a:	48 01 e8             	add    %rbp,%rax
  40af4d:	48 2d 8c 0c 00 00    	sub    $0xc8c,%rax
  40af53:	f3 0f 10 00          	movss  (%rax),%xmm0
  40af57:	f3 0f 58 c1          	addss  %xmm1,%xmm0
  40af5b:	f3 0f 11 85 64 f3 ff 	movss  %xmm0,-0xc9c(%rbp)
  40af62:	ff 
  40af63:	f3 0f 10 8d 68 f3 ff 	movss  -0xc98(%rbp),%xmm1
  40af6a:	ff 
  40af6b:	8b 85 20 f3 ff ff    	mov    -0xce0(%rbp),%eax
  40af71:	48 98                	cltq   
  40af73:	48 c1 e0 04          	shl    $0x4,%rax
  40af77:	48 01 e8             	add    %rbp,%rax
  40af7a:	48 2d 88 0c 00 00    	sub    $0xc88,%rax
  40af80:	f3 0f 10 00          	movss  (%rax),%xmm0
  40af84:	f3 0f 58 c1          	addss  %xmm1,%xmm0
  40af88:	f3 0f 11 85 68 f3 ff 	movss  %xmm0,-0xc98(%rbp)
  40af8f:	ff 
  40af90:	f3 0f 10 8d 6c f3 ff 	movss  -0xc94(%rbp),%xmm1
  40af97:	ff 
  40af98:	8b 85 20 f3 ff ff    	mov    -0xce0(%rbp),%eax
  40af9e:	48 98                	cltq   
  40afa0:	48 c1 e0 04          	shl    $0x4,%rax
  40afa4:	48 01 e8             	add    %rbp,%rax
  40afa7:	48 2d 84 0c 00 00    	sub    $0xc84,%rax
  40afad:	f3 0f 10 00          	movss  (%rax),%xmm0
  40afb1:	f3 0f 58 c1          	addss  %xmm1,%xmm0
  40afb5:	f3 0f 11 85 6c f3 ff 	movss  %xmm0,-0xc94(%rbp)
  40afbc:	ff 
  40afbd:	83 85 20 f3 ff ff 01 	addl   $0x1,-0xce0(%rbp)
  40afc4:	f3 0f 10 8d 60 f3 ff 	movss  -0xca0(%rbp),%xmm1
  40afcb:	ff 
  40afcc:	8b 85 20 f3 ff ff    	mov    -0xce0(%rbp),%eax
  40afd2:	48 98                	cltq   
  40afd4:	48 c1 e0 04          	shl    $0x4,%rax
  40afd8:	48 01 e8             	add    %rbp,%rax
  40afdb:	48 2d 90 0c 00 00    	sub    $0xc90,%rax
  40afe1:	f3 0f 10 00          	movss  (%rax),%xmm0
  40afe5:	f3 0f 58 c1          	addss  %xmm1,%xmm0
  40afe9:	f3 0f 11 85 60 f3 ff 	movss  %xmm0,-0xca0(%rbp)
  40aff0:	ff 
  40aff1:	f3 0f 10 8d 64 f3 ff 	movss  -0xc9c(%rbp),%xmm1
  40aff8:	ff 
  40aff9:	8b 85 20 f3 ff ff    	mov    -0xce0(%rbp),%eax
  40afff:	48 98                	cltq   
  40b001:	48 c1 e0 04          	shl    $0x4,%rax
  40b005:	48 01 e8             	add    %rbp,%rax
  40b008:	48 2d 8c 0c 00 00    	sub    $0xc8c,%rax
  40b00e:	f3 0f 10 00          	movss  (%rax),%xmm0
  40b012:	f3 0f 58 c1          	addss  %xmm1,%xmm0
  40b016:	f3 0f 11 85 64 f3 ff 	movss  %xmm0,-0xc9c(%rbp)
  40b01d:	ff 
  40b01e:	f3 0f 10 8d 68 f3 ff 	movss  -0xc98(%rbp),%xmm1
  40b025:	ff 
  40b026:	8b 85 20 f3 ff ff    	mov    -0xce0(%rbp),%eax
  40b02c:	48 98                	cltq   
  40b02e:	48 c1 e0 04          	shl    $0x4,%rax
  40b032:	48 01 e8             	add    %rbp,%rax
  40b035:	48 2d 88 0c 00 00    	sub    $0xc88,%rax
  40b03b:	f3 0f 10 00          	movss  (%rax),%xmm0
  40b03f:	f3 0f 58 c1          	addss  %xmm1,%xmm0
  40b043:	f3 0f 11 85 68 f3 ff 	movss  %xmm0,-0xc98(%rbp)
  40b04a:	ff 
  40b04b:	f3 0f 10 8d 6c f3 ff 	movss  -0xc94(%rbp),%xmm1
  40b052:	ff 
  40b053:	8b 85 20 f3 ff ff    	mov    -0xce0(%rbp),%eax
  40b059:	48 98                	cltq   
  40b05b:	48 c1 e0 04          	shl    $0x4,%rax
  40b05f:	48 01 e8             	add    %rbp,%rax
  40b062:	48 2d 84 0c 00 00    	sub    $0xc84,%rax
  40b068:	f3 0f 10 00          	movss  (%rax),%xmm0
  40b06c:	f3 0f 58 c1          	addss  %xmm1,%xmm0
  40b070:	f3 0f 11 85 6c f3 ff 	movss  %xmm0,-0xc94(%rbp)
  40b077:	ff 
  40b078:	83 85 20 f3 ff ff 01 	addl   $0x1,-0xce0(%rbp)
  40b07f:	f3 0f 10 8d 60 f3 ff 	movss  -0xca0(%rbp),%xmm1
  40b086:	ff 
  40b087:	8b 85 20 f3 ff ff    	mov    -0xce0(%rbp),%eax
  40b08d:	48 98                	cltq   
  40b08f:	48 c1 e0 04          	shl    $0x4,%rax
  40b093:	48 01 e8             	add    %rbp,%rax
  40b096:	48 2d 90 0c 00 00    	sub    $0xc90,%rax
  40b09c:	f3 0f 10 00          	movss  (%rax),%xmm0
  40b0a0:	f3 0f 58 c1          	addss  %xmm1,%xmm0
  40b0a4:	f3 0f 11 85 60 f3 ff 	movss  %xmm0,-0xca0(%rbp)
  40b0ab:	ff 
  40b0ac:	f3 0f 10 8d 64 f3 ff 	movss  -0xc9c(%rbp),%xmm1
  40b0b3:	ff 
  40b0b4:	8b 85 20 f3 ff ff    	mov    -0xce0(%rbp),%eax
  40b0ba:	48 98                	cltq   
  40b0bc:	48 c1 e0 04          	shl    $0x4,%rax
  40b0c0:	48 01 e8             	add    %rbp,%rax
  40b0c3:	48 2d 8c 0c 00 00    	sub    $0xc8c,%rax
  40b0c9:	f3 0f 10 00          	movss  (%rax),%xmm0
  40b0cd:	f3 0f 58 c1          	addss  %xmm1,%xmm0
  40b0d1:	f3 0f 11 85 64 f3 ff 	movss  %xmm0,-0xc9c(%rbp)
  40b0d8:	ff 
  40b0d9:	f3 0f 10 8d 68 f3 ff 	movss  -0xc98(%rbp),%xmm1
  40b0e0:	ff 
  40b0e1:	8b 85 20 f3 ff ff    	mov    -0xce0(%rbp),%eax
  40b0e7:	48 98                	cltq   
  40b0e9:	48 c1 e0 04          	shl    $0x4,%rax
  40b0ed:	48 01 e8             	add    %rbp,%rax
  40b0f0:	48 2d 88 0c 00 00    	sub    $0xc88,%rax
  40b0f6:	f3 0f 10 00          	movss  (%rax),%xmm0
  40b0fa:	f3 0f 58 c1          	addss  %xmm1,%xmm0
  40b0fe:	f3 0f 11 85 68 f3 ff 	movss  %xmm0,-0xc98(%rbp)
  40b105:	ff 
  40b106:	f3 0f 10 8d 6c f3 ff 	movss  -0xc94(%rbp),%xmm1
  40b10d:	ff 
  40b10e:	8b 85 20 f3 ff ff    	mov    -0xce0(%rbp),%eax
  40b114:	48 98                	cltq   
  40b116:	48 c1 e0 04          	shl    $0x4,%rax
  40b11a:	48 01 e8             	add    %rbp,%rax
  40b11d:	48 2d 84 0c 00 00    	sub    $0xc84,%rax
  40b123:	f3 0f 10 00          	movss  (%rax),%xmm0
  40b127:	f3 0f 58 c1          	addss  %xmm1,%xmm0
  40b12b:	f3 0f 11 85 6c f3 ff 	movss  %xmm0,-0xc94(%rbp)
  40b132:	ff 
  40b133:	83 85 20 f3 ff ff 01 	addl   $0x1,-0xce0(%rbp)
  40b13a:	f3 0f 10 8d 60 f3 ff 	movss  -0xca0(%rbp),%xmm1
  40b141:	ff 
  40b142:	8b 85 20 f3 ff ff    	mov    -0xce0(%rbp),%eax
  40b148:	48 98                	cltq   
  40b14a:	48 c1 e0 04          	shl    $0x4,%rax
  40b14e:	48 01 e8             	add    %rbp,%rax
  40b151:	48 2d 90 0c 00 00    	sub    $0xc90,%rax
  40b157:	f3 0f 10 00          	movss  (%rax),%xmm0
  40b15b:	f3 0f 58 c1          	addss  %xmm1,%xmm0
  40b15f:	f3 0f 11 85 60 f3 ff 	movss  %xmm0,-0xca0(%rbp)
  40b166:	ff 
  40b167:	f3 0f 10 8d 64 f3 ff 	movss  -0xc9c(%rbp),%xmm1
  40b16e:	ff 
  40b16f:	8b 85 20 f3 ff ff    	mov    -0xce0(%rbp),%eax
  40b175:	48 98                	cltq   
  40b177:	48 c1 e0 04          	shl    $0x4,%rax
  40b17b:	48 01 e8             	add    %rbp,%rax
  40b17e:	48 2d 8c 0c 00 00    	sub    $0xc8c,%rax
  40b184:	f3 0f 10 00          	movss  (%rax),%xmm0
  40b188:	f3 0f 58 c1          	addss  %xmm1,%xmm0
  40b18c:	f3 0f 11 85 64 f3 ff 	movss  %xmm0,-0xc9c(%rbp)
  40b193:	ff 
  40b194:	f3 0f 10 8d 68 f3 ff 	movss  -0xc98(%rbp),%xmm1
  40b19b:	ff 
  40b19c:	8b 85 20 f3 ff ff    	mov    -0xce0(%rbp),%eax
  40b1a2:	48 98                	cltq   
  40b1a4:	48 c1 e0 04          	shl    $0x4,%rax
  40b1a8:	48 01 e8             	add    %rbp,%rax
  40b1ab:	48 2d 88 0c 00 00    	sub    $0xc88,%rax
  40b1b1:	f3 0f 10 00          	movss  (%rax),%xmm0
  40b1b5:	f3 0f 58 c1          	addss  %xmm1,%xmm0
  40b1b9:	f3 0f 11 85 68 f3 ff 	movss  %xmm0,-0xc98(%rbp)
  40b1c0:	ff 
  40b1c1:	f3 0f 10 8d 6c f3 ff 	movss  -0xc94(%rbp),%xmm1
  40b1c8:	ff 
  40b1c9:	8b 85 20 f3 ff ff    	mov    -0xce0(%rbp),%eax
  40b1cf:	48 98                	cltq   
  40b1d1:	48 c1 e0 04          	shl    $0x4,%rax
  40b1d5:	48 01 e8             	add    %rbp,%rax
  40b1d8:	48 2d 84 0c 00 00    	sub    $0xc84,%rax
  40b1de:	f3 0f 10 00          	movss  (%rax),%xmm0
  40b1e2:	f3 0f 58 c1          	addss  %xmm1,%xmm0
  40b1e6:	f3 0f 11 85 6c f3 ff 	movss  %xmm0,-0xc94(%rbp)
  40b1ed:	ff 
  40b1ee:	83 85 20 f3 ff ff 01 	addl   $0x1,-0xce0(%rbp)
  40b1f5:	f3 0f 10 8d 60 f3 ff 	movss  -0xca0(%rbp),%xmm1
  40b1fc:	ff 
  40b1fd:	8b 85 20 f3 ff ff    	mov    -0xce0(%rbp),%eax
  40b203:	48 98                	cltq   
  40b205:	48 c1 e0 04          	shl    $0x4,%rax
  40b209:	48 01 e8             	add    %rbp,%rax
  40b20c:	48 2d 90 0c 00 00    	sub    $0xc90,%rax
  40b212:	f3 0f 10 00          	movss  (%rax),%xmm0
  40b216:	f3 0f 58 c1          	addss  %xmm1,%xmm0
  40b21a:	f3 0f 11 85 60 f3 ff 	movss  %xmm0,-0xca0(%rbp)
  40b221:	ff 
  40b222:	f3 0f 10 8d 64 f3 ff 	movss  -0xc9c(%rbp),%xmm1
  40b229:	ff 
  40b22a:	8b 85 20 f3 ff ff    	mov    -0xce0(%rbp),%eax
  40b230:	48 98                	cltq   
  40b232:	48 c1 e0 04          	shl    $0x4,%rax
  40b236:	48 01 e8             	add    %rbp,%rax
  40b239:	48 2d 8c 0c 00 00    	sub    $0xc8c,%rax
  40b23f:	f3 0f 10 00          	movss  (%rax),%xmm0
  40b243:	f3 0f 58 c1          	addss  %xmm1,%xmm0
  40b247:	f3 0f 11 85 64 f3 ff 	movss  %xmm0,-0xc9c(%rbp)
  40b24e:	ff 
  40b24f:	f3 0f 10 8d 68 f3 ff 	movss  -0xc98(%rbp),%xmm1
  40b256:	ff 
  40b257:	8b 85 20 f3 ff ff    	mov    -0xce0(%rbp),%eax
  40b25d:	48 98                	cltq   
  40b25f:	48 c1 e0 04          	shl    $0x4,%rax
  40b263:	48 01 e8             	add    %rbp,%rax
  40b266:	48 2d 88 0c 00 00    	sub    $0xc88,%rax
  40b26c:	f3 0f 10 00          	movss  (%rax),%xmm0
  40b270:	f3 0f 58 c1          	addss  %xmm1,%xmm0
  40b274:	f3 0f 11 85 68 f3 ff 	movss  %xmm0,-0xc98(%rbp)
  40b27b:	ff 
  40b27c:	f3 0f 10 8d 6c f3 ff 	movss  -0xc94(%rbp),%xmm1
  40b283:	ff 
  40b284:	8b 85 20 f3 ff ff    	mov    -0xce0(%rbp),%eax
  40b28a:	48 98                	cltq   
  40b28c:	48 c1 e0 04          	shl    $0x4,%rax
  40b290:	48 01 e8             	add    %rbp,%rax
  40b293:	48 2d 84 0c 00 00    	sub    $0xc84,%rax
  40b299:	f3 0f 10 00          	movss  (%rax),%xmm0
  40b29d:	f3 0f 58 c1          	addss  %xmm1,%xmm0
  40b2a1:	f3 0f 11 85 6c f3 ff 	movss  %xmm0,-0xc94(%rbp)
  40b2a8:	ff 
  40b2a9:	83 85 20 f3 ff ff 01 	addl   $0x1,-0xce0(%rbp)
  40b2b0:	f3 0f 10 8d 60 f3 ff 	movss  -0xca0(%rbp),%xmm1
  40b2b7:	ff 
  40b2b8:	8b 85 20 f3 ff ff    	mov    -0xce0(%rbp),%eax
  40b2be:	48 98                	cltq   
  40b2c0:	48 c1 e0 04          	shl    $0x4,%rax
  40b2c4:	48 01 e8             	add    %rbp,%rax
  40b2c7:	48 2d 90 0c 00 00    	sub    $0xc90,%rax
  40b2cd:	f3 0f 10 00          	movss  (%rax),%xmm0
  40b2d1:	f3 0f 58 c1          	addss  %xmm1,%xmm0
  40b2d5:	f3 0f 11 85 60 f3 ff 	movss  %xmm0,-0xca0(%rbp)
  40b2dc:	ff 
  40b2dd:	f3 0f 10 8d 64 f3 ff 	movss  -0xc9c(%rbp),%xmm1
  40b2e4:	ff 
  40b2e5:	8b 85 20 f3 ff ff    	mov    -0xce0(%rbp),%eax
  40b2eb:	48 98                	cltq   
  40b2ed:	48 c1 e0 04          	shl    $0x4,%rax
  40b2f1:	48 01 e8             	add    %rbp,%rax
  40b2f4:	48 2d 8c 0c 00 00    	sub    $0xc8c,%rax
  40b2fa:	f3 0f 10 00          	movss  (%rax),%xmm0
  40b2fe:	f3 0f 58 c1          	addss  %xmm1,%xmm0
  40b302:	f3 0f 11 85 64 f3 ff 	movss  %xmm0,-0xc9c(%rbp)
  40b309:	ff 
  40b30a:	f3 0f 10 8d 68 f3 ff 	movss  -0xc98(%rbp),%xmm1
  40b311:	ff 
  40b312:	8b 85 20 f3 ff ff    	mov    -0xce0(%rbp),%eax
  40b318:	48 98                	cltq   
  40b31a:	48 c1 e0 04          	shl    $0x4,%rax
  40b31e:	48 01 e8             	add    %rbp,%rax
  40b321:	48 2d 88 0c 00 00    	sub    $0xc88,%rax
  40b327:	f3 0f 10 00          	movss  (%rax),%xmm0
  40b32b:	f3 0f 58 c1          	addss  %xmm1,%xmm0
  40b32f:	f3 0f 11 85 68 f3 ff 	movss  %xmm0,-0xc98(%rbp)
  40b336:	ff 
  40b337:	f3 0f 10 8d 6c f3 ff 	movss  -0xc94(%rbp),%xmm1
  40b33e:	ff 
  40b33f:	8b 85 20 f3 ff ff    	mov    -0xce0(%rbp),%eax
  40b345:	48 98                	cltq   
  40b347:	48 c1 e0 04          	shl    $0x4,%rax
  40b34b:	48 01 e8             	add    %rbp,%rax
  40b34e:	48 2d 84 0c 00 00    	sub    $0xc84,%rax
  40b354:	f3 0f 10 00          	movss  (%rax),%xmm0
  40b358:	f3 0f 58 c1          	addss  %xmm1,%xmm0
  40b35c:	f3 0f 11 85 6c f3 ff 	movss  %xmm0,-0xc94(%rbp)
  40b363:	ff 
  40b364:	83 85 20 f3 ff ff 01 	addl   $0x1,-0xce0(%rbp)
  40b36b:	f3 0f 10 8d 60 f3 ff 	movss  -0xca0(%rbp),%xmm1
  40b372:	ff 
  40b373:	8b 85 20 f3 ff ff    	mov    -0xce0(%rbp),%eax
  40b379:	48 98                	cltq   
  40b37b:	48 c1 e0 04          	shl    $0x4,%rax
  40b37f:	48 01 e8             	add    %rbp,%rax
  40b382:	48 2d 90 0c 00 00    	sub    $0xc90,%rax
  40b388:	f3 0f 10 00          	movss  (%rax),%xmm0
  40b38c:	f3 0f 58 c1          	addss  %xmm1,%xmm0
  40b390:	f3 0f 11 85 60 f3 ff 	movss  %xmm0,-0xca0(%rbp)
  40b397:	ff 
  40b398:	f3 0f 10 8d 64 f3 ff 	movss  -0xc9c(%rbp),%xmm1
  40b39f:	ff 
  40b3a0:	8b 85 20 f3 ff ff    	mov    -0xce0(%rbp),%eax
  40b3a6:	48 98                	cltq   
  40b3a8:	48 c1 e0 04          	shl    $0x4,%rax
  40b3ac:	48 01 e8             	add    %rbp,%rax
  40b3af:	48 2d 8c 0c 00 00    	sub    $0xc8c,%rax
  40b3b5:	f3 0f 10 00          	movss  (%rax),%xmm0
  40b3b9:	f3 0f 58 c1          	addss  %xmm1,%xmm0
  40b3bd:	f3 0f 11 85 64 f3 ff 	movss  %xmm0,-0xc9c(%rbp)
  40b3c4:	ff 
  40b3c5:	f3 0f 10 8d 68 f3 ff 	movss  -0xc98(%rbp),%xmm1
  40b3cc:	ff 
  40b3cd:	8b 85 20 f3 ff ff    	mov    -0xce0(%rbp),%eax
  40b3d3:	48 98                	cltq   
  40b3d5:	48 c1 e0 04          	shl    $0x4,%rax
  40b3d9:	48 01 e8             	add    %rbp,%rax
  40b3dc:	48 2d 88 0c 00 00    	sub    $0xc88,%rax
  40b3e2:	f3 0f 10 00          	movss  (%rax),%xmm0
  40b3e6:	f3 0f 58 c1          	addss  %xmm1,%xmm0
  40b3ea:	f3 0f 11 85 68 f3 ff 	movss  %xmm0,-0xc98(%rbp)
  40b3f1:	ff 
  40b3f2:	f3 0f 10 8d 6c f3 ff 	movss  -0xc94(%rbp),%xmm1
  40b3f9:	ff 
  40b3fa:	8b 85 20 f3 ff ff    	mov    -0xce0(%rbp),%eax
  40b400:	48 98                	cltq   
  40b402:	48 c1 e0 04          	shl    $0x4,%rax
  40b406:	48 01 e8             	add    %rbp,%rax
  40b409:	48 2d 84 0c 00 00    	sub    $0xc84,%rax
  40b40f:	f3 0f 10 00          	movss  (%rax),%xmm0
  40b413:	f3 0f 58 c1          	addss  %xmm1,%xmm0
  40b417:	f3 0f 11 85 6c f3 ff 	movss  %xmm0,-0xc94(%rbp)
  40b41e:	ff 
  40b41f:	83 85 20 f3 ff ff 01 	addl   $0x1,-0xce0(%rbp)
  40b426:	f3 0f 10 8d 60 f3 ff 	movss  -0xca0(%rbp),%xmm1
  40b42d:	ff 
  40b42e:	8b 85 20 f3 ff ff    	mov    -0xce0(%rbp),%eax
  40b434:	48 98                	cltq   
  40b436:	48 c1 e0 04          	shl    $0x4,%rax
  40b43a:	48 01 e8             	add    %rbp,%rax
  40b43d:	48 2d 90 0c 00 00    	sub    $0xc90,%rax
  40b443:	f3 0f 10 00          	movss  (%rax),%xmm0
  40b447:	f3 0f 58 c1          	addss  %xmm1,%xmm0
  40b44b:	f3 0f 11 85 60 f3 ff 	movss  %xmm0,-0xca0(%rbp)
  40b452:	ff 
  40b453:	f3 0f 10 8d 64 f3 ff 	movss  -0xc9c(%rbp),%xmm1
  40b45a:	ff 
  40b45b:	8b 85 20 f3 ff ff    	mov    -0xce0(%rbp),%eax
  40b461:	48 98                	cltq   
  40b463:	48 c1 e0 04          	shl    $0x4,%rax
  40b467:	48 01 e8             	add    %rbp,%rax
  40b46a:	48 2d 8c 0c 00 00    	sub    $0xc8c,%rax
  40b470:	f3 0f 10 00          	movss  (%rax),%xmm0
  40b474:	f3 0f 58 c1          	addss  %xmm1,%xmm0
  40b478:	f3 0f 11 85 64 f3 ff 	movss  %xmm0,-0xc9c(%rbp)
  40b47f:	ff 
  40b480:	f3 0f 10 8d 68 f3 ff 	movss  -0xc98(%rbp),%xmm1
  40b487:	ff 
  40b488:	8b 85 20 f3 ff ff    	mov    -0xce0(%rbp),%eax
  40b48e:	48 98                	cltq   
  40b490:	48 c1 e0 04          	shl    $0x4,%rax
  40b494:	48 01 e8             	add    %rbp,%rax
  40b497:	48 2d 88 0c 00 00    	sub    $0xc88,%rax
  40b49d:	f3 0f 10 00          	movss  (%rax),%xmm0
  40b4a1:	f3 0f 58 c1          	addss  %xmm1,%xmm0
  40b4a5:	f3 0f 11 85 68 f3 ff 	movss  %xmm0,-0xc98(%rbp)
  40b4ac:	ff 
  40b4ad:	f3 0f 10 8d 6c f3 ff 	movss  -0xc94(%rbp),%xmm1
  40b4b4:	ff 
  40b4b5:	8b 85 20 f3 ff ff    	mov    -0xce0(%rbp),%eax
  40b4bb:	48 98                	cltq   
  40b4bd:	48 c1 e0 04          	shl    $0x4,%rax
  40b4c1:	48 01 e8             	add    %rbp,%rax
  40b4c4:	48 2d 84 0c 00 00    	sub    $0xc84,%rax
  40b4ca:	f3 0f 10 00          	movss  (%rax),%xmm0
  40b4ce:	f3 0f 58 c1          	addss  %xmm1,%xmm0
  40b4d2:	f3 0f 11 85 6c f3 ff 	movss  %xmm0,-0xc94(%rbp)
  40b4d9:	ff 
  40b4da:	83 85 20 f3 ff ff 01 	addl   $0x1,-0xce0(%rbp)
  40b4e1:	f3 0f 10 8d 60 f3 ff 	movss  -0xca0(%rbp),%xmm1
  40b4e8:	ff 
  40b4e9:	8b 85 20 f3 ff ff    	mov    -0xce0(%rbp),%eax
  40b4ef:	48 98                	cltq   
  40b4f1:	48 c1 e0 04          	shl    $0x4,%rax
  40b4f5:	48 01 e8             	add    %rbp,%rax
  40b4f8:	48 2d 90 0c 00 00    	sub    $0xc90,%rax
  40b4fe:	f3 0f 10 00          	movss  (%rax),%xmm0
  40b502:	f3 0f 58 c1          	addss  %xmm1,%xmm0
  40b506:	f3 0f 11 85 60 f3 ff 	movss  %xmm0,-0xca0(%rbp)
  40b50d:	ff 
  40b50e:	f3 0f 10 8d 64 f3 ff 	movss  -0xc9c(%rbp),%xmm1
  40b515:	ff 
  40b516:	8b 85 20 f3 ff ff    	mov    -0xce0(%rbp),%eax
  40b51c:	48 98                	cltq   
  40b51e:	48 c1 e0 04          	shl    $0x4,%rax
  40b522:	48 01 e8             	add    %rbp,%rax
  40b525:	48 2d 8c 0c 00 00    	sub    $0xc8c,%rax
  40b52b:	f3 0f 10 00          	movss  (%rax),%xmm0
  40b52f:	f3 0f 58 c1          	addss  %xmm1,%xmm0
  40b533:	f3 0f 11 85 64 f3 ff 	movss  %xmm0,-0xc9c(%rbp)
  40b53a:	ff 
  40b53b:	f3 0f 10 8d 68 f3 ff 	movss  -0xc98(%rbp),%xmm1
  40b542:	ff 
  40b543:	8b 85 20 f3 ff ff    	mov    -0xce0(%rbp),%eax
  40b549:	48 98                	cltq   
  40b54b:	48 c1 e0 04          	shl    $0x4,%rax
  40b54f:	48 01 e8             	add    %rbp,%rax
  40b552:	48 2d 88 0c 00 00    	sub    $0xc88,%rax
  40b558:	f3 0f 10 00          	movss  (%rax),%xmm0
  40b55c:	f3 0f 58 c1          	addss  %xmm1,%xmm0
  40b560:	f3 0f 11 85 68 f3 ff 	movss  %xmm0,-0xc98(%rbp)
  40b567:	ff 
  40b568:	f3 0f 10 8d 6c f3 ff 	movss  -0xc94(%rbp),%xmm1
  40b56f:	ff 
  40b570:	8b 85 20 f3 ff ff    	mov    -0xce0(%rbp),%eax
  40b576:	48 98                	cltq   
  40b578:	48 c1 e0 04          	shl    $0x4,%rax
  40b57c:	48 01 e8             	add    %rbp,%rax
  40b57f:	48 2d 84 0c 00 00    	sub    $0xc84,%rax
  40b585:	f3 0f 10 00          	movss  (%rax),%xmm0
  40b589:	f3 0f 58 c1          	addss  %xmm1,%xmm0
  40b58d:	f3 0f 11 85 6c f3 ff 	movss  %xmm0,-0xc94(%rbp)
  40b594:	ff 
  40b595:	83 85 20 f3 ff ff 01 	addl   $0x1,-0xce0(%rbp)
  40b59c:	f3 0f 10 8d 60 f3 ff 	movss  -0xca0(%rbp),%xmm1
  40b5a3:	ff 
  40b5a4:	8b 85 20 f3 ff ff    	mov    -0xce0(%rbp),%eax
  40b5aa:	48 98                	cltq   
  40b5ac:	48 c1 e0 04          	shl    $0x4,%rax
  40b5b0:	48 01 e8             	add    %rbp,%rax
  40b5b3:	48 2d 90 0c 00 00    	sub    $0xc90,%rax
  40b5b9:	f3 0f 10 00          	movss  (%rax),%xmm0
  40b5bd:	f3 0f 58 c1          	addss  %xmm1,%xmm0
  40b5c1:	f3 0f 11 85 60 f3 ff 	movss  %xmm0,-0xca0(%rbp)
  40b5c8:	ff 
  40b5c9:	f3 0f 10 8d 64 f3 ff 	movss  -0xc9c(%rbp),%xmm1
  40b5d0:	ff 
  40b5d1:	8b 85 20 f3 ff ff    	mov    -0xce0(%rbp),%eax
  40b5d7:	48 98                	cltq   
  40b5d9:	48 c1 e0 04          	shl    $0x4,%rax
  40b5dd:	48 01 e8             	add    %rbp,%rax
  40b5e0:	48 2d 8c 0c 00 00    	sub    $0xc8c,%rax
  40b5e6:	f3 0f 10 00          	movss  (%rax),%xmm0
  40b5ea:	f3 0f 58 c1          	addss  %xmm1,%xmm0
  40b5ee:	f3 0f 11 85 64 f3 ff 	movss  %xmm0,-0xc9c(%rbp)
  40b5f5:	ff 
  40b5f6:	f3 0f 10 8d 68 f3 ff 	movss  -0xc98(%rbp),%xmm1
  40b5fd:	ff 
  40b5fe:	8b 85 20 f3 ff ff    	mov    -0xce0(%rbp),%eax
  40b604:	48 98                	cltq   
  40b606:	48 c1 e0 04          	shl    $0x4,%rax
  40b60a:	48 01 e8             	add    %rbp,%rax
  40b60d:	48 2d 88 0c 00 00    	sub    $0xc88,%rax
  40b613:	f3 0f 10 00          	movss  (%rax),%xmm0
  40b617:	f3 0f 58 c1          	addss  %xmm1,%xmm0
  40b61b:	f3 0f 11 85 68 f3 ff 	movss  %xmm0,-0xc98(%rbp)
  40b622:	ff 
  40b623:	f3 0f 10 8d 6c f3 ff 	movss  -0xc94(%rbp),%xmm1
  40b62a:	ff 
  40b62b:	8b 85 20 f3 ff ff    	mov    -0xce0(%rbp),%eax
  40b631:	48 98                	cltq   
  40b633:	48 c1 e0 04          	shl    $0x4,%rax
  40b637:	48 01 e8             	add    %rbp,%rax
  40b63a:	48 2d 84 0c 00 00    	sub    $0xc84,%rax
  40b640:	f3 0f 10 00          	movss  (%rax),%xmm0
  40b644:	f3 0f 58 c1          	addss  %xmm1,%xmm0
  40b648:	f3 0f 11 85 6c f3 ff 	movss  %xmm0,-0xc94(%rbp)
  40b64f:	ff 
  40b650:	83 85 20 f3 ff ff 01 	addl   $0x1,-0xce0(%rbp)
  40b657:	f3 0f 10 8d 60 f3 ff 	movss  -0xca0(%rbp),%xmm1
  40b65e:	ff 
  40b65f:	8b 85 20 f3 ff ff    	mov    -0xce0(%rbp),%eax
  40b665:	48 98                	cltq   
  40b667:	48 c1 e0 04          	shl    $0x4,%rax
  40b66b:	48 01 e8             	add    %rbp,%rax
  40b66e:	48 2d 90 0c 00 00    	sub    $0xc90,%rax
  40b674:	f3 0f 10 00          	movss  (%rax),%xmm0
  40b678:	f3 0f 58 c1          	addss  %xmm1,%xmm0
  40b67c:	f3 0f 11 85 60 f3 ff 	movss  %xmm0,-0xca0(%rbp)
  40b683:	ff 
  40b684:	f3 0f 10 8d 64 f3 ff 	movss  -0xc9c(%rbp),%xmm1
  40b68b:	ff 
  40b68c:	8b 85 20 f3 ff ff    	mov    -0xce0(%rbp),%eax
  40b692:	48 98                	cltq   
  40b694:	48 c1 e0 04          	shl    $0x4,%rax
  40b698:	48 01 e8             	add    %rbp,%rax
  40b69b:	48 2d 8c 0c 00 00    	sub    $0xc8c,%rax
  40b6a1:	f3 0f 10 00          	movss  (%rax),%xmm0
  40b6a5:	f3 0f 58 c1          	addss  %xmm1,%xmm0
  40b6a9:	f3 0f 11 85 64 f3 ff 	movss  %xmm0,-0xc9c(%rbp)
  40b6b0:	ff 
  40b6b1:	f3 0f 10 8d 68 f3 ff 	movss  -0xc98(%rbp),%xmm1
  40b6b8:	ff 
  40b6b9:	8b 85 20 f3 ff ff    	mov    -0xce0(%rbp),%eax
  40b6bf:	48 98                	cltq   
  40b6c1:	48 c1 e0 04          	shl    $0x4,%rax
  40b6c5:	48 01 e8             	add    %rbp,%rax
  40b6c8:	48 2d 88 0c 00 00    	sub    $0xc88,%rax
  40b6ce:	f3 0f 10 00          	movss  (%rax),%xmm0
  40b6d2:	f3 0f 58 c1          	addss  %xmm1,%xmm0
  40b6d6:	f3 0f 11 85 68 f3 ff 	movss  %xmm0,-0xc98(%rbp)
  40b6dd:	ff 
  40b6de:	f3 0f 10 8d 6c f3 ff 	movss  -0xc94(%rbp),%xmm1
  40b6e5:	ff 
  40b6e6:	8b 85 20 f3 ff ff    	mov    -0xce0(%rbp),%eax
  40b6ec:	48 98                	cltq   
  40b6ee:	48 c1 e0 04          	shl    $0x4,%rax
  40b6f2:	48 01 e8             	add    %rbp,%rax
  40b6f5:	48 2d 84 0c 00 00    	sub    $0xc84,%rax
  40b6fb:	f3 0f 10 00          	movss  (%rax),%xmm0
  40b6ff:	f3 0f 58 c1          	addss  %xmm1,%xmm0
  40b703:	f3 0f 11 85 6c f3 ff 	movss  %xmm0,-0xc94(%rbp)
  40b70a:	ff 
  40b70b:	83 85 20 f3 ff ff 01 	addl   $0x1,-0xce0(%rbp)
  40b712:	f3 0f 10 8d 60 f3 ff 	movss  -0xca0(%rbp),%xmm1
  40b719:	ff 
  40b71a:	8b 85 20 f3 ff ff    	mov    -0xce0(%rbp),%eax
  40b720:	48 98                	cltq   
  40b722:	48 c1 e0 04          	shl    $0x4,%rax
  40b726:	48 01 e8             	add    %rbp,%rax
  40b729:	48 2d 90 0c 00 00    	sub    $0xc90,%rax
  40b72f:	f3 0f 10 00          	movss  (%rax),%xmm0
  40b733:	f3 0f 58 c1          	addss  %xmm1,%xmm0
  40b737:	f3 0f 11 85 60 f3 ff 	movss  %xmm0,-0xca0(%rbp)
  40b73e:	ff 
  40b73f:	f3 0f 10 8d 64 f3 ff 	movss  -0xc9c(%rbp),%xmm1
  40b746:	ff 
  40b747:	8b 85 20 f3 ff ff    	mov    -0xce0(%rbp),%eax
  40b74d:	48 98                	cltq   
  40b74f:	48 c1 e0 04          	shl    $0x4,%rax
  40b753:	48 01 e8             	add    %rbp,%rax
  40b756:	48 2d 8c 0c 00 00    	sub    $0xc8c,%rax
  40b75c:	f3 0f 10 00          	movss  (%rax),%xmm0
  40b760:	f3 0f 58 c1          	addss  %xmm1,%xmm0
  40b764:	f3 0f 11 85 64 f3 ff 	movss  %xmm0,-0xc9c(%rbp)
  40b76b:	ff 
  40b76c:	f3 0f 10 8d 68 f3 ff 	movss  -0xc98(%rbp),%xmm1
  40b773:	ff 
  40b774:	8b 85 20 f3 ff ff    	mov    -0xce0(%rbp),%eax
  40b77a:	48 98                	cltq   
  40b77c:	48 c1 e0 04          	shl    $0x4,%rax
  40b780:	48 01 e8             	add    %rbp,%rax
  40b783:	48 2d 88 0c 00 00    	sub    $0xc88,%rax
  40b789:	f3 0f 10 00          	movss  (%rax),%xmm0
  40b78d:	f3 0f 58 c1          	addss  %xmm1,%xmm0
  40b791:	f3 0f 11 85 68 f3 ff 	movss  %xmm0,-0xc98(%rbp)
  40b798:	ff 
  40b799:	f3 0f 10 8d 6c f3 ff 	movss  -0xc94(%rbp),%xmm1
  40b7a0:	ff 
  40b7a1:	8b 85 20 f3 ff ff    	mov    -0xce0(%rbp),%eax
  40b7a7:	48 98                	cltq   
  40b7a9:	48 c1 e0 04          	shl    $0x4,%rax
  40b7ad:	48 01 e8             	add    %rbp,%rax
  40b7b0:	48 2d 84 0c 00 00    	sub    $0xc84,%rax
  40b7b6:	f3 0f 10 00          	movss  (%rax),%xmm0
  40b7ba:	f3 0f 58 c1          	addss  %xmm1,%xmm0
  40b7be:	f3 0f 11 85 6c f3 ff 	movss  %xmm0,-0xc94(%rbp)
  40b7c5:	ff 
  40b7c6:	83 85 20 f3 ff ff 01 	addl   $0x1,-0xce0(%rbp)
  40b7cd:	f3 0f 10 8d 60 f3 ff 	movss  -0xca0(%rbp),%xmm1
  40b7d4:	ff 
  40b7d5:	8b 85 20 f3 ff ff    	mov    -0xce0(%rbp),%eax
  40b7db:	48 98                	cltq   
  40b7dd:	48 c1 e0 04          	shl    $0x4,%rax
  40b7e1:	48 01 e8             	add    %rbp,%rax
  40b7e4:	48 2d 90 0c 00 00    	sub    $0xc90,%rax
  40b7ea:	f3 0f 10 00          	movss  (%rax),%xmm0
  40b7ee:	f3 0f 58 c1          	addss  %xmm1,%xmm0
  40b7f2:	f3 0f 11 85 60 f3 ff 	movss  %xmm0,-0xca0(%rbp)
  40b7f9:	ff 
  40b7fa:	f3 0f 10 8d 64 f3 ff 	movss  -0xc9c(%rbp),%xmm1
  40b801:	ff 
  40b802:	8b 85 20 f3 ff ff    	mov    -0xce0(%rbp),%eax
  40b808:	48 98                	cltq   
  40b80a:	48 c1 e0 04          	shl    $0x4,%rax
  40b80e:	48 01 e8             	add    %rbp,%rax
  40b811:	48 2d 8c 0c 00 00    	sub    $0xc8c,%rax
  40b817:	f3 0f 10 00          	movss  (%rax),%xmm0
  40b81b:	f3 0f 58 c1          	addss  %xmm1,%xmm0
  40b81f:	f3 0f 11 85 64 f3 ff 	movss  %xmm0,-0xc9c(%rbp)
  40b826:	ff 
  40b827:	f3 0f 10 8d 68 f3 ff 	movss  -0xc98(%rbp),%xmm1
  40b82e:	ff 
  40b82f:	8b 85 20 f3 ff ff    	mov    -0xce0(%rbp),%eax
  40b835:	48 98                	cltq   
  40b837:	48 c1 e0 04          	shl    $0x4,%rax
  40b83b:	48 01 e8             	add    %rbp,%rax
  40b83e:	48 2d 88 0c 00 00    	sub    $0xc88,%rax
  40b844:	f3 0f 10 00          	movss  (%rax),%xmm0
  40b848:	f3 0f 58 c1          	addss  %xmm1,%xmm0
  40b84c:	f3 0f 11 85 68 f3 ff 	movss  %xmm0,-0xc98(%rbp)
  40b853:	ff 
  40b854:	f3 0f 10 8d 6c f3 ff 	movss  -0xc94(%rbp),%xmm1
  40b85b:	ff 
  40b85c:	8b 85 20 f3 ff ff    	mov    -0xce0(%rbp),%eax
  40b862:	48 98                	cltq   
  40b864:	48 c1 e0 04          	shl    $0x4,%rax
  40b868:	48 01 e8             	add    %rbp,%rax
  40b86b:	48 2d 84 0c 00 00    	sub    $0xc84,%rax
  40b871:	f3 0f 10 00          	movss  (%rax),%xmm0
  40b875:	f3 0f 58 c1          	addss  %xmm1,%xmm0
  40b879:	f3 0f 11 85 6c f3 ff 	movss  %xmm0,-0xc94(%rbp)
  40b880:	ff 
  40b881:	83 85 20 f3 ff ff 01 	addl   $0x1,-0xce0(%rbp)
  40b888:	f3 0f 10 8d 60 f3 ff 	movss  -0xca0(%rbp),%xmm1
  40b88f:	ff 
  40b890:	8b 85 20 f3 ff ff    	mov    -0xce0(%rbp),%eax
  40b896:	48 98                	cltq   
  40b898:	48 c1 e0 04          	shl    $0x4,%rax
  40b89c:	48 01 e8             	add    %rbp,%rax
  40b89f:	48 2d 90 0c 00 00    	sub    $0xc90,%rax
  40b8a5:	f3 0f 10 00          	movss  (%rax),%xmm0
  40b8a9:	f3 0f 58 c1          	addss  %xmm1,%xmm0
  40b8ad:	f3 0f 11 85 60 f3 ff 	movss  %xmm0,-0xca0(%rbp)
  40b8b4:	ff 
  40b8b5:	f3 0f 10 8d 64 f3 ff 	movss  -0xc9c(%rbp),%xmm1
  40b8bc:	ff 
  40b8bd:	8b 85 20 f3 ff ff    	mov    -0xce0(%rbp),%eax
  40b8c3:	48 98                	cltq   
  40b8c5:	48 c1 e0 04          	shl    $0x4,%rax
  40b8c9:	48 01 e8             	add    %rbp,%rax
  40b8cc:	48 2d 8c 0c 00 00    	sub    $0xc8c,%rax
  40b8d2:	f3 0f 10 00          	movss  (%rax),%xmm0
  40b8d6:	f3 0f 58 c1          	addss  %xmm1,%xmm0
  40b8da:	f3 0f 11 85 64 f3 ff 	movss  %xmm0,-0xc9c(%rbp)
  40b8e1:	ff 
  40b8e2:	f3 0f 10 8d 68 f3 ff 	movss  -0xc98(%rbp),%xmm1
  40b8e9:	ff 
  40b8ea:	8b 85 20 f3 ff ff    	mov    -0xce0(%rbp),%eax
  40b8f0:	48 98                	cltq   
  40b8f2:	48 c1 e0 04          	shl    $0x4,%rax
  40b8f6:	48 01 e8             	add    %rbp,%rax
  40b8f9:	48 2d 88 0c 00 00    	sub    $0xc88,%rax
  40b8ff:	f3 0f 10 00          	movss  (%rax),%xmm0
  40b903:	f3 0f 58 c1          	addss  %xmm1,%xmm0
  40b907:	f3 0f 11 85 68 f3 ff 	movss  %xmm0,-0xc98(%rbp)
  40b90e:	ff 
  40b90f:	f3 0f 10 8d 6c f3 ff 	movss  -0xc94(%rbp),%xmm1
  40b916:	ff 
  40b917:	8b 85 20 f3 ff ff    	mov    -0xce0(%rbp),%eax
  40b91d:	48 98                	cltq   
  40b91f:	48 c1 e0 04          	shl    $0x4,%rax
  40b923:	48 01 e8             	add    %rbp,%rax
  40b926:	48 2d 84 0c 00 00    	sub    $0xc84,%rax
  40b92c:	f3 0f 10 00          	movss  (%rax),%xmm0
  40b930:	f3 0f 58 c1          	addss  %xmm1,%xmm0
  40b934:	f3 0f 11 85 6c f3 ff 	movss  %xmm0,-0xc94(%rbp)
  40b93b:	ff 
  40b93c:	83 85 20 f3 ff ff 01 	addl   $0x1,-0xce0(%rbp)
  40b943:	f3 0f 10 8d 60 f3 ff 	movss  -0xca0(%rbp),%xmm1
  40b94a:	ff 
  40b94b:	8b 85 20 f3 ff ff    	mov    -0xce0(%rbp),%eax
  40b951:	48 98                	cltq   
  40b953:	48 c1 e0 04          	shl    $0x4,%rax
  40b957:	48 01 e8             	add    %rbp,%rax
  40b95a:	48 2d 90 0c 00 00    	sub    $0xc90,%rax
  40b960:	f3 0f 10 00          	movss  (%rax),%xmm0
  40b964:	f3 0f 58 c1          	addss  %xmm1,%xmm0
  40b968:	f3 0f 11 85 60 f3 ff 	movss  %xmm0,-0xca0(%rbp)
  40b96f:	ff 
  40b970:	f3 0f 10 8d 64 f3 ff 	movss  -0xc9c(%rbp),%xmm1
  40b977:	ff 
  40b978:	8b 85 20 f3 ff ff    	mov    -0xce0(%rbp),%eax
  40b97e:	48 98                	cltq   
  40b980:	48 c1 e0 04          	shl    $0x4,%rax
  40b984:	48 01 e8             	add    %rbp,%rax
  40b987:	48 2d 8c 0c 00 00    	sub    $0xc8c,%rax
  40b98d:	f3 0f 10 00          	movss  (%rax),%xmm0
  40b991:	f3 0f 58 c1          	addss  %xmm1,%xmm0
  40b995:	f3 0f 11 85 64 f3 ff 	movss  %xmm0,-0xc9c(%rbp)
  40b99c:	ff 
  40b99d:	f3 0f 10 8d 68 f3 ff 	movss  -0xc98(%rbp),%xmm1
  40b9a4:	ff 
  40b9a5:	8b 85 20 f3 ff ff    	mov    -0xce0(%rbp),%eax
  40b9ab:	48 98                	cltq   
  40b9ad:	48 c1 e0 04          	shl    $0x4,%rax
  40b9b1:	48 01 e8             	add    %rbp,%rax
  40b9b4:	48 2d 88 0c 00 00    	sub    $0xc88,%rax
  40b9ba:	f3 0f 10 00          	movss  (%rax),%xmm0
  40b9be:	f3 0f 58 c1          	addss  %xmm1,%xmm0
  40b9c2:	f3 0f 11 85 68 f3 ff 	movss  %xmm0,-0xc98(%rbp)
  40b9c9:	ff 
  40b9ca:	f3 0f 10 8d 6c f3 ff 	movss  -0xc94(%rbp),%xmm1
  40b9d1:	ff 
  40b9d2:	8b 85 20 f3 ff ff    	mov    -0xce0(%rbp),%eax
  40b9d8:	48 98                	cltq   
  40b9da:	48 c1 e0 04          	shl    $0x4,%rax
  40b9de:	48 01 e8             	add    %rbp,%rax
  40b9e1:	48 2d 84 0c 00 00    	sub    $0xc84,%rax
  40b9e7:	f3 0f 10 00          	movss  (%rax),%xmm0
  40b9eb:	f3 0f 58 c1          	addss  %xmm1,%xmm0
  40b9ef:	f3 0f 11 85 6c f3 ff 	movss  %xmm0,-0xc94(%rbp)
  40b9f6:	ff 
  40b9f7:	83 85 20 f3 ff ff 01 	addl   $0x1,-0xce0(%rbp)
  40b9fe:	f3 0f 10 8d 60 f3 ff 	movss  -0xca0(%rbp),%xmm1
  40ba05:	ff 
  40ba06:	8b 85 20 f3 ff ff    	mov    -0xce0(%rbp),%eax
  40ba0c:	48 98                	cltq   
  40ba0e:	48 c1 e0 04          	shl    $0x4,%rax
  40ba12:	48 01 e8             	add    %rbp,%rax
  40ba15:	48 2d 90 0c 00 00    	sub    $0xc90,%rax
  40ba1b:	f3 0f 10 00          	movss  (%rax),%xmm0
  40ba1f:	f3 0f 58 c1          	addss  %xmm1,%xmm0
  40ba23:	f3 0f 11 85 60 f3 ff 	movss  %xmm0,-0xca0(%rbp)
  40ba2a:	ff 
  40ba2b:	f3 0f 10 8d 64 f3 ff 	movss  -0xc9c(%rbp),%xmm1
  40ba32:	ff 
  40ba33:	8b 85 20 f3 ff ff    	mov    -0xce0(%rbp),%eax
  40ba39:	48 98                	cltq   
  40ba3b:	48 c1 e0 04          	shl    $0x4,%rax
  40ba3f:	48 01 e8             	add    %rbp,%rax
  40ba42:	48 2d 8c 0c 00 00    	sub    $0xc8c,%rax
  40ba48:	f3 0f 10 00          	movss  (%rax),%xmm0
  40ba4c:	f3 0f 58 c1          	addss  %xmm1,%xmm0
  40ba50:	f3 0f 11 85 64 f3 ff 	movss  %xmm0,-0xc9c(%rbp)
  40ba57:	ff 
  40ba58:	f3 0f 10 8d 68 f3 ff 	movss  -0xc98(%rbp),%xmm1
  40ba5f:	ff 
  40ba60:	8b 85 20 f3 ff ff    	mov    -0xce0(%rbp),%eax
  40ba66:	48 98                	cltq   
  40ba68:	48 c1 e0 04          	shl    $0x4,%rax
  40ba6c:	48 01 e8             	add    %rbp,%rax
  40ba6f:	48 2d 88 0c 00 00    	sub    $0xc88,%rax
  40ba75:	f3 0f 10 00          	movss  (%rax),%xmm0
  40ba79:	f3 0f 58 c1          	addss  %xmm1,%xmm0
  40ba7d:	f3 0f 11 85 68 f3 ff 	movss  %xmm0,-0xc98(%rbp)
  40ba84:	ff 
  40ba85:	f3 0f 10 8d 6c f3 ff 	movss  -0xc94(%rbp),%xmm1
  40ba8c:	ff 
  40ba8d:	8b 85 20 f3 ff ff    	mov    -0xce0(%rbp),%eax
  40ba93:	48 98                	cltq   
  40ba95:	48 c1 e0 04          	shl    $0x4,%rax
  40ba99:	48 01 e8             	add    %rbp,%rax
  40ba9c:	48 2d 84 0c 00 00    	sub    $0xc84,%rax
  40baa2:	f3 0f 10 00          	movss  (%rax),%xmm0
  40baa6:	f3 0f 58 c1          	addss  %xmm1,%xmm0
  40baaa:	f3 0f 11 85 6c f3 ff 	movss  %xmm0,-0xc94(%rbp)
  40bab1:	ff 
  40bab2:	83 85 20 f3 ff ff 01 	addl   $0x1,-0xce0(%rbp)
  40bab9:	f3 0f 10 8d 60 f3 ff 	movss  -0xca0(%rbp),%xmm1
  40bac0:	ff 
  40bac1:	8b 85 20 f3 ff ff    	mov    -0xce0(%rbp),%eax
  40bac7:	48 98                	cltq   
  40bac9:	48 c1 e0 04          	shl    $0x4,%rax
  40bacd:	48 01 e8             	add    %rbp,%rax
  40bad0:	48 2d 90 0c 00 00    	sub    $0xc90,%rax
  40bad6:	f3 0f 10 00          	movss  (%rax),%xmm0
  40bada:	f3 0f 58 c1          	addss  %xmm1,%xmm0
  40bade:	f3 0f 11 85 60 f3 ff 	movss  %xmm0,-0xca0(%rbp)
  40bae5:	ff 
  40bae6:	f3 0f 10 8d 64 f3 ff 	movss  -0xc9c(%rbp),%xmm1
  40baed:	ff 
  40baee:	8b 85 20 f3 ff ff    	mov    -0xce0(%rbp),%eax
  40baf4:	48 98                	cltq   
  40baf6:	48 c1 e0 04          	shl    $0x4,%rax
  40bafa:	48 01 e8             	add    %rbp,%rax
  40bafd:	48 2d 8c 0c 00 00    	sub    $0xc8c,%rax
  40bb03:	f3 0f 10 00          	movss  (%rax),%xmm0
  40bb07:	f3 0f 58 c1          	addss  %xmm1,%xmm0
  40bb0b:	f3 0f 11 85 64 f3 ff 	movss  %xmm0,-0xc9c(%rbp)
  40bb12:	ff 
  40bb13:	f3 0f 10 8d 68 f3 ff 	movss  -0xc98(%rbp),%xmm1
  40bb1a:	ff 
  40bb1b:	8b 85 20 f3 ff ff    	mov    -0xce0(%rbp),%eax
  40bb21:	48 98                	cltq   
  40bb23:	48 c1 e0 04          	shl    $0x4,%rax
  40bb27:	48 01 e8             	add    %rbp,%rax
  40bb2a:	48 2d 88 0c 00 00    	sub    $0xc88,%rax
  40bb30:	f3 0f 10 00          	movss  (%rax),%xmm0
  40bb34:	f3 0f 58 c1          	addss  %xmm1,%xmm0
  40bb38:	f3 0f 11 85 68 f3 ff 	movss  %xmm0,-0xc98(%rbp)
  40bb3f:	ff 
  40bb40:	f3 0f 10 8d 6c f3 ff 	movss  -0xc94(%rbp),%xmm1
  40bb47:	ff 
  40bb48:	8b 85 20 f3 ff ff    	mov    -0xce0(%rbp),%eax
  40bb4e:	48 98                	cltq   
  40bb50:	48 c1 e0 04          	shl    $0x4,%rax
  40bb54:	48 01 e8             	add    %rbp,%rax
  40bb57:	48 2d 84 0c 00 00    	sub    $0xc84,%rax
  40bb5d:	f3 0f 10 00          	movss  (%rax),%xmm0
  40bb61:	f3 0f 58 c1          	addss  %xmm1,%xmm0
  40bb65:	f3 0f 11 85 6c f3 ff 	movss  %xmm0,-0xc94(%rbp)
  40bb6c:	ff 
  40bb6d:	83 85 20 f3 ff ff 01 	addl   $0x1,-0xce0(%rbp)
  40bb74:	f3 0f 10 8d 60 f3 ff 	movss  -0xca0(%rbp),%xmm1
  40bb7b:	ff 
  40bb7c:	8b 85 20 f3 ff ff    	mov    -0xce0(%rbp),%eax
  40bb82:	48 98                	cltq   
  40bb84:	48 c1 e0 04          	shl    $0x4,%rax
  40bb88:	48 01 e8             	add    %rbp,%rax
  40bb8b:	48 2d 90 0c 00 00    	sub    $0xc90,%rax
  40bb91:	f3 0f 10 00          	movss  (%rax),%xmm0
  40bb95:	f3 0f 58 c1          	addss  %xmm1,%xmm0
  40bb99:	f3 0f 11 85 60 f3 ff 	movss  %xmm0,-0xca0(%rbp)
  40bba0:	ff 
  40bba1:	f3 0f 10 8d 64 f3 ff 	movss  -0xc9c(%rbp),%xmm1
  40bba8:	ff 
  40bba9:	8b 85 20 f3 ff ff    	mov    -0xce0(%rbp),%eax
  40bbaf:	48 98                	cltq   
  40bbb1:	48 c1 e0 04          	shl    $0x4,%rax
  40bbb5:	48 01 e8             	add    %rbp,%rax
  40bbb8:	48 2d 8c 0c 00 00    	sub    $0xc8c,%rax
  40bbbe:	f3 0f 10 00          	movss  (%rax),%xmm0
  40bbc2:	f3 0f 58 c1          	addss  %xmm1,%xmm0
  40bbc6:	f3 0f 11 85 64 f3 ff 	movss  %xmm0,-0xc9c(%rbp)
  40bbcd:	ff 
  40bbce:	f3 0f 10 8d 68 f3 ff 	movss  -0xc98(%rbp),%xmm1
  40bbd5:	ff 
  40bbd6:	8b 85 20 f3 ff ff    	mov    -0xce0(%rbp),%eax
  40bbdc:	48 98                	cltq   
  40bbde:	48 c1 e0 04          	shl    $0x4,%rax
  40bbe2:	48 01 e8             	add    %rbp,%rax
  40bbe5:	48 2d 88 0c 00 00    	sub    $0xc88,%rax
  40bbeb:	f3 0f 10 00          	movss  (%rax),%xmm0
  40bbef:	f3 0f 58 c1          	addss  %xmm1,%xmm0
  40bbf3:	f3 0f 11 85 68 f3 ff 	movss  %xmm0,-0xc98(%rbp)
  40bbfa:	ff 
  40bbfb:	f3 0f 10 8d 6c f3 ff 	movss  -0xc94(%rbp),%xmm1
  40bc02:	ff 
  40bc03:	8b 85 20 f3 ff ff    	mov    -0xce0(%rbp),%eax
  40bc09:	48 98                	cltq   
  40bc0b:	48 c1 e0 04          	shl    $0x4,%rax
  40bc0f:	48 01 e8             	add    %rbp,%rax
  40bc12:	48 2d 84 0c 00 00    	sub    $0xc84,%rax
  40bc18:	f3 0f 10 00          	movss  (%rax),%xmm0
  40bc1c:	f3 0f 58 c1          	addss  %xmm1,%xmm0
  40bc20:	f3 0f 11 85 6c f3 ff 	movss  %xmm0,-0xc94(%rbp)
  40bc27:	ff 
  40bc28:	83 85 20 f3 ff ff 01 	addl   $0x1,-0xce0(%rbp)
  40bc2f:	f3 0f 10 85 1c f3 ff 	movss  -0xce4(%rbp),%xmm0
  40bc36:	ff 
  40bc37:	f3 0f 59 85 1c f3 ff 	mulss  -0xce4(%rbp),%xmm0
  40bc3e:	ff 
  40bc3f:	f3 0f 11 85 1c f3 ff 	movss  %xmm0,-0xce4(%rbp)
  40bc46:	ff 
  40bc47:	83 85 38 f3 ff ff 01 	addl   $0x1,-0xcc8(%rbp)
  40bc4e:	83 85 20 f3 ff ff 01 	addl   $0x1,-0xce0(%rbp)
  40bc55:	f3 0f 10 8d 60 f3 ff 	movss  -0xca0(%rbp),%xmm1
  40bc5c:	ff 
  40bc5d:	8b 85 20 f3 ff ff    	mov    -0xce0(%rbp),%eax
  40bc63:	48 98                	cltq   
  40bc65:	48 c1 e0 04          	shl    $0x4,%rax
  40bc69:	48 01 e8             	add    %rbp,%rax
  40bc6c:	48 2d 90 0c 00 00    	sub    $0xc90,%rax
  40bc72:	f3 0f 10 00          	movss  (%rax),%xmm0
  40bc76:	f3 0f 58 c1          	addss  %xmm1,%xmm0
  40bc7a:	f3 0f 11 85 60 f3 ff 	movss  %xmm0,-0xca0(%rbp)
  40bc81:	ff 
  40bc82:	f3 0f 10 8d 64 f3 ff 	movss  -0xc9c(%rbp),%xmm1
  40bc89:	ff 
  40bc8a:	8b 85 20 f3 ff ff    	mov    -0xce0(%rbp),%eax
  40bc90:	48 98                	cltq   
  40bc92:	48 c1 e0 04          	shl    $0x4,%rax
  40bc96:	48 01 e8             	add    %rbp,%rax
  40bc99:	48 2d 8c 0c 00 00    	sub    $0xc8c,%rax
  40bc9f:	f3 0f 10 00          	movss  (%rax),%xmm0
  40bca3:	f3 0f 58 c1          	addss  %xmm1,%xmm0
  40bca7:	f3 0f 11 85 64 f3 ff 	movss  %xmm0,-0xc9c(%rbp)
  40bcae:	ff 
  40bcaf:	f3 0f 10 8d 68 f3 ff 	movss  -0xc98(%rbp),%xmm1
  40bcb6:	ff 
  40bcb7:	8b 85 20 f3 ff ff    	mov    -0xce0(%rbp),%eax
  40bcbd:	48 98                	cltq   
  40bcbf:	48 c1 e0 04          	shl    $0x4,%rax
  40bcc3:	48 01 e8             	add    %rbp,%rax
  40bcc6:	48 2d 88 0c 00 00    	sub    $0xc88,%rax
  40bccc:	f3 0f 10 00          	movss  (%rax),%xmm0
  40bcd0:	f3 0f 58 c1          	addss  %xmm1,%xmm0
  40bcd4:	f3 0f 11 85 68 f3 ff 	movss  %xmm0,-0xc98(%rbp)
  40bcdb:	ff 
  40bcdc:	f3 0f 10 8d 6c f3 ff 	movss  -0xc94(%rbp),%xmm1
  40bce3:	ff 
  40bce4:	8b 85 20 f3 ff ff    	mov    -0xce0(%rbp),%eax
  40bcea:	48 98                	cltq   
  40bcec:	48 c1 e0 04          	shl    $0x4,%rax
  40bcf0:	48 01 e8             	add    %rbp,%rax
  40bcf3:	48 2d 84 0c 00 00    	sub    $0xc84,%rax
  40bcf9:	f3 0f 10 00          	movss  (%rax),%xmm0
  40bcfd:	f3 0f 58 c1          	addss  %xmm1,%xmm0
  40bd01:	f3 0f 11 85 6c f3 ff 	movss  %xmm0,-0xc94(%rbp)
  40bd08:	ff 
  40bd09:	83 85 20 f3 ff ff 01 	addl   $0x1,-0xce0(%rbp)
  40bd10:	f3 0f 10 8d 60 f3 ff 	movss  -0xca0(%rbp),%xmm1
  40bd17:	ff 
  40bd18:	8b 85 20 f3 ff ff    	mov    -0xce0(%rbp),%eax
  40bd1e:	48 98                	cltq   
  40bd20:	48 c1 e0 04          	shl    $0x4,%rax
  40bd24:	48 01 e8             	add    %rbp,%rax
  40bd27:	48 2d 90 0c 00 00    	sub    $0xc90,%rax
  40bd2d:	f3 0f 10 00          	movss  (%rax),%xmm0
  40bd31:	f3 0f 58 c1          	addss  %xmm1,%xmm0
  40bd35:	f3 0f 11 85 60 f3 ff 	movss  %xmm0,-0xca0(%rbp)
  40bd3c:	ff 
  40bd3d:	f3 0f 10 8d 64 f3 ff 	movss  -0xc9c(%rbp),%xmm1
  40bd44:	ff 
  40bd45:	8b 85 20 f3 ff ff    	mov    -0xce0(%rbp),%eax
  40bd4b:	48 98                	cltq   
  40bd4d:	48 c1 e0 04          	shl    $0x4,%rax
  40bd51:	48 01 e8             	add    %rbp,%rax
  40bd54:	48 2d 8c 0c 00 00    	sub    $0xc8c,%rax
  40bd5a:	f3 0f 10 00          	movss  (%rax),%xmm0
  40bd5e:	f3 0f 58 c1          	addss  %xmm1,%xmm0
  40bd62:	f3 0f 11 85 64 f3 ff 	movss  %xmm0,-0xc9c(%rbp)
  40bd69:	ff 
  40bd6a:	f3 0f 10 8d 68 f3 ff 	movss  -0xc98(%rbp),%xmm1
  40bd71:	ff 
  40bd72:	8b 85 20 f3 ff ff    	mov    -0xce0(%rbp),%eax
  40bd78:	48 98                	cltq   
  40bd7a:	48 c1 e0 04          	shl    $0x4,%rax
  40bd7e:	48 01 e8             	add    %rbp,%rax
  40bd81:	48 2d 88 0c 00 00    	sub    $0xc88,%rax
  40bd87:	f3 0f 10 00          	movss  (%rax),%xmm0
  40bd8b:	f3 0f 58 c1          	addss  %xmm1,%xmm0
  40bd8f:	f3 0f 11 85 68 f3 ff 	movss  %xmm0,-0xc98(%rbp)
  40bd96:	ff 
  40bd97:	f3 0f 10 8d 6c f3 ff 	movss  -0xc94(%rbp),%xmm1
  40bd9e:	ff 
  40bd9f:	8b 85 20 f3 ff ff    	mov    -0xce0(%rbp),%eax
  40bda5:	48 98                	cltq   
  40bda7:	48 c1 e0 04          	shl    $0x4,%rax
  40bdab:	48 01 e8             	add    %rbp,%rax
  40bdae:	48 2d 84 0c 00 00    	sub    $0xc84,%rax
  40bdb4:	f3 0f 10 00          	movss  (%rax),%xmm0
  40bdb8:	f3 0f 58 c1          	addss  %xmm1,%xmm0
  40bdbc:	f3 0f 11 85 6c f3 ff 	movss  %xmm0,-0xc94(%rbp)
  40bdc3:	ff 
  40bdc4:	83 85 20 f3 ff ff 01 	addl   $0x1,-0xce0(%rbp)
  40bdcb:	f3 0f 10 8d 60 f3 ff 	movss  -0xca0(%rbp),%xmm1
  40bdd2:	ff 
  40bdd3:	8b 85 20 f3 ff ff    	mov    -0xce0(%rbp),%eax
  40bdd9:	48 98                	cltq   
  40bddb:	48 c1 e0 04          	shl    $0x4,%rax
  40bddf:	48 01 e8             	add    %rbp,%rax
  40bde2:	48 2d 90 0c 00 00    	sub    $0xc90,%rax
  40bde8:	f3 0f 10 00          	movss  (%rax),%xmm0
  40bdec:	f3 0f 58 c1          	addss  %xmm1,%xmm0
  40bdf0:	f3 0f 11 85 60 f3 ff 	movss  %xmm0,-0xca0(%rbp)
  40bdf7:	ff 
  40bdf8:	f3 0f 10 8d 64 f3 ff 	movss  -0xc9c(%rbp),%xmm1
  40bdff:	ff 
  40be00:	8b 85 20 f3 ff ff    	mov    -0xce0(%rbp),%eax
  40be06:	48 98                	cltq   
  40be08:	48 c1 e0 04          	shl    $0x4,%rax
  40be0c:	48 01 e8             	add    %rbp,%rax
  40be0f:	48 2d 8c 0c 00 00    	sub    $0xc8c,%rax
  40be15:	f3 0f 10 00          	movss  (%rax),%xmm0
  40be19:	f3 0f 58 c1          	addss  %xmm1,%xmm0
  40be1d:	f3 0f 11 85 64 f3 ff 	movss  %xmm0,-0xc9c(%rbp)
  40be24:	ff 
  40be25:	f3 0f 10 8d 68 f3 ff 	movss  -0xc98(%rbp),%xmm1
  40be2c:	ff 
  40be2d:	8b 85 20 f3 ff ff    	mov    -0xce0(%rbp),%eax
  40be33:	48 98                	cltq   
  40be35:	48 c1 e0 04          	shl    $0x4,%rax
  40be39:	48 01 e8             	add    %rbp,%rax
  40be3c:	48 2d 88 0c 00 00    	sub    $0xc88,%rax
  40be42:	f3 0f 10 00          	movss  (%rax),%xmm0
  40be46:	f3 0f 58 c1          	addss  %xmm1,%xmm0
  40be4a:	f3 0f 11 85 68 f3 ff 	movss  %xmm0,-0xc98(%rbp)
  40be51:	ff 
  40be52:	f3 0f 10 8d 6c f3 ff 	movss  -0xc94(%rbp),%xmm1
  40be59:	ff 
  40be5a:	8b 85 20 f3 ff ff    	mov    -0xce0(%rbp),%eax
  40be60:	48 98                	cltq   
  40be62:	48 c1 e0 04          	shl    $0x4,%rax
  40be66:	48 01 e8             	add    %rbp,%rax
  40be69:	48 2d 84 0c 00 00    	sub    $0xc84,%rax
  40be6f:	f3 0f 10 00          	movss  (%rax),%xmm0
  40be73:	f3 0f 58 c1          	addss  %xmm1,%xmm0
  40be77:	f3 0f 11 85 6c f3 ff 	movss  %xmm0,-0xc94(%rbp)
  40be7e:	ff 
  40be7f:	83 85 20 f3 ff ff 01 	addl   $0x1,-0xce0(%rbp)
  40be86:	c7 85 20 f3 ff ff 00 	movl   $0x0,-0xce0(%rbp)
  40be8d:	00 00 00 
  40be90:	c7 85 38 f3 ff ff 00 	movl   $0x0,-0xcc8(%rbp)
  40be97:	00 00 00 
  40be9a:	f3 0f 10 8d 60 f3 ff 	movss  -0xca0(%rbp),%xmm1
  40bea1:	ff 
  40bea2:	8b 85 20 f3 ff ff    	mov    -0xce0(%rbp),%eax
  40bea8:	48 98                	cltq   
  40beaa:	48 c1 e0 04          	shl    $0x4,%rax
  40beae:	48 01 e8             	add    %rbp,%rax
  40beb1:	48 2d 90 0c 00 00    	sub    $0xc90,%rax
  40beb7:	f3 0f 10 00          	movss  (%rax),%xmm0
  40bebb:	f3 0f 58 c1          	addss  %xmm1,%xmm0
  40bebf:	f3 0f 11 85 60 f3 ff 	movss  %xmm0,-0xca0(%rbp)
  40bec6:	ff 
  40bec7:	f3 0f 10 8d 64 f3 ff 	movss  -0xc9c(%rbp),%xmm1
  40bece:	ff 
  40becf:	8b 85 20 f3 ff ff    	mov    -0xce0(%rbp),%eax
  40bed5:	48 98                	cltq   
  40bed7:	48 c1 e0 04          	shl    $0x4,%rax
  40bedb:	48 01 e8             	add    %rbp,%rax
  40bede:	48 2d 8c 0c 00 00    	sub    $0xc8c,%rax
  40bee4:	f3 0f 10 00          	movss  (%rax),%xmm0
  40bee8:	f3 0f 58 c1          	addss  %xmm1,%xmm0
  40beec:	f3 0f 11 85 64 f3 ff 	movss  %xmm0,-0xc9c(%rbp)
  40bef3:	ff 
  40bef4:	f3 0f 10 8d 68 f3 ff 	movss  -0xc98(%rbp),%xmm1
  40befb:	ff 
  40befc:	8b 85 20 f3 ff ff    	mov    -0xce0(%rbp),%eax
  40bf02:	48 98                	cltq   
  40bf04:	48 c1 e0 04          	shl    $0x4,%rax
  40bf08:	48 01 e8             	add    %rbp,%rax
  40bf0b:	48 2d 88 0c 00 00    	sub    $0xc88,%rax
  40bf11:	f3 0f 10 00          	movss  (%rax),%xmm0
  40bf15:	f3 0f 58 c1          	addss  %xmm1,%xmm0
  40bf19:	f3 0f 11 85 68 f3 ff 	movss  %xmm0,-0xc98(%rbp)
  40bf20:	ff 
  40bf21:	f3 0f 10 8d 6c f3 ff 	movss  -0xc94(%rbp),%xmm1
  40bf28:	ff 
  40bf29:	8b 85 20 f3 ff ff    	mov    -0xce0(%rbp),%eax
  40bf2f:	48 98                	cltq   
  40bf31:	48 c1 e0 04          	shl    $0x4,%rax
  40bf35:	48 01 e8             	add    %rbp,%rax
  40bf38:	48 2d 84 0c 00 00    	sub    $0xc84,%rax
  40bf3e:	f3 0f 10 00          	movss  (%rax),%xmm0
  40bf42:	f3 0f 58 c1          	addss  %xmm1,%xmm0
  40bf46:	f3 0f 11 85 6c f3 ff 	movss  %xmm0,-0xc94(%rbp)
  40bf4d:	ff 
  40bf4e:	83 85 20 f3 ff ff 01 	addl   $0x1,-0xce0(%rbp)
  40bf55:	f3 0f 10 8d 60 f3 ff 	movss  -0xca0(%rbp),%xmm1
  40bf5c:	ff 
  40bf5d:	8b 85 20 f3 ff ff    	mov    -0xce0(%rbp),%eax
  40bf63:	48 98                	cltq   
  40bf65:	48 c1 e0 04          	shl    $0x4,%rax
  40bf69:	48 01 e8             	add    %rbp,%rax
  40bf6c:	48 2d 90 0c 00 00    	sub    $0xc90,%rax
  40bf72:	f3 0f 10 00          	movss  (%rax),%xmm0
  40bf76:	f3 0f 58 c1          	addss  %xmm1,%xmm0
  40bf7a:	f3 0f 11 85 60 f3 ff 	movss  %xmm0,-0xca0(%rbp)
  40bf81:	ff 
  40bf82:	f3 0f 10 8d 64 f3 ff 	movss  -0xc9c(%rbp),%xmm1
  40bf89:	ff 
  40bf8a:	8b 85 20 f3 ff ff    	mov    -0xce0(%rbp),%eax
  40bf90:	48 98                	cltq   
  40bf92:	48 c1 e0 04          	shl    $0x4,%rax
  40bf96:	48 01 e8             	add    %rbp,%rax
  40bf99:	48 2d 8c 0c 00 00    	sub    $0xc8c,%rax
  40bf9f:	f3 0f 10 00          	movss  (%rax),%xmm0
  40bfa3:	f3 0f 58 c1          	addss  %xmm1,%xmm0
  40bfa7:	f3 0f 11 85 64 f3 ff 	movss  %xmm0,-0xc9c(%rbp)
  40bfae:	ff 
  40bfaf:	f3 0f 10 8d 68 f3 ff 	movss  -0xc98(%rbp),%xmm1
  40bfb6:	ff 
  40bfb7:	8b 85 20 f3 ff ff    	mov    -0xce0(%rbp),%eax
  40bfbd:	48 98                	cltq   
  40bfbf:	48 c1 e0 04          	shl    $0x4,%rax
  40bfc3:	48 01 e8             	add    %rbp,%rax
  40bfc6:	48 2d 88 0c 00 00    	sub    $0xc88,%rax
  40bfcc:	f3 0f 10 00          	movss  (%rax),%xmm0
  40bfd0:	f3 0f 58 c1          	addss  %xmm1,%xmm0
  40bfd4:	f3 0f 11 85 68 f3 ff 	movss  %xmm0,-0xc98(%rbp)
  40bfdb:	ff 
  40bfdc:	f3 0f 10 8d 6c f3 ff 	movss  -0xc94(%rbp),%xmm1
  40bfe3:	ff 
  40bfe4:	8b 85 20 f3 ff ff    	mov    -0xce0(%rbp),%eax
  40bfea:	48 98                	cltq   
  40bfec:	48 c1 e0 04          	shl    $0x4,%rax
  40bff0:	48 01 e8             	add    %rbp,%rax
  40bff3:	48 2d 84 0c 00 00    	sub    $0xc84,%rax
  40bff9:	f3 0f 10 00          	movss  (%rax),%xmm0
  40bffd:	f3 0f 58 c1          	addss  %xmm1,%xmm0
  40c001:	f3 0f 11 85 6c f3 ff 	movss  %xmm0,-0xc94(%rbp)
  40c008:	ff 
  40c009:	83 85 20 f3 ff ff 01 	addl   $0x1,-0xce0(%rbp)
  40c010:	f3 0f 10 8d 60 f3 ff 	movss  -0xca0(%rbp),%xmm1
  40c017:	ff 
  40c018:	8b 85 20 f3 ff ff    	mov    -0xce0(%rbp),%eax
  40c01e:	48 98                	cltq   
  40c020:	48 c1 e0 04          	shl    $0x4,%rax
  40c024:	48 01 e8             	add    %rbp,%rax
  40c027:	48 2d 90 0c 00 00    	sub    $0xc90,%rax
  40c02d:	f3 0f 10 00          	movss  (%rax),%xmm0
  40c031:	f3 0f 58 c1          	addss  %xmm1,%xmm0
  40c035:	f3 0f 11 85 60 f3 ff 	movss  %xmm0,-0xca0(%rbp)
  40c03c:	ff 
  40c03d:	f3 0f 10 8d 64 f3 ff 	movss  -0xc9c(%rbp),%xmm1
  40c044:	ff 
  40c045:	8b 85 20 f3 ff ff    	mov    -0xce0(%rbp),%eax
  40c04b:	48 98                	cltq   
  40c04d:	48 c1 e0 04          	shl    $0x4,%rax
  40c051:	48 01 e8             	add    %rbp,%rax
  40c054:	48 2d 8c 0c 00 00    	sub    $0xc8c,%rax
  40c05a:	f3 0f 10 00          	movss  (%rax),%xmm0
  40c05e:	f3 0f 58 c1          	addss  %xmm1,%xmm0
  40c062:	f3 0f 11 85 64 f3 ff 	movss  %xmm0,-0xc9c(%rbp)
  40c069:	ff 
  40c06a:	f3 0f 10 8d 68 f3 ff 	movss  -0xc98(%rbp),%xmm1
  40c071:	ff 
  40c072:	8b 85 20 f3 ff ff    	mov    -0xce0(%rbp),%eax
  40c078:	48 98                	cltq   
  40c07a:	48 c1 e0 04          	shl    $0x4,%rax
  40c07e:	48 01 e8             	add    %rbp,%rax
  40c081:	48 2d 88 0c 00 00    	sub    $0xc88,%rax
  40c087:	f3 0f 10 00          	movss  (%rax),%xmm0
  40c08b:	f3 0f 58 c1          	addss  %xmm1,%xmm0
  40c08f:	f3 0f 11 85 68 f3 ff 	movss  %xmm0,-0xc98(%rbp)
  40c096:	ff 
  40c097:	f3 0f 10 8d 6c f3 ff 	movss  -0xc94(%rbp),%xmm1
  40c09e:	ff 
  40c09f:	8b 85 20 f3 ff ff    	mov    -0xce0(%rbp),%eax
  40c0a5:	48 98                	cltq   
  40c0a7:	48 c1 e0 04          	shl    $0x4,%rax
  40c0ab:	48 01 e8             	add    %rbp,%rax
  40c0ae:	48 2d 84 0c 00 00    	sub    $0xc84,%rax
  40c0b4:	f3 0f 10 00          	movss  (%rax),%xmm0
  40c0b8:	f3 0f 58 c1          	addss  %xmm1,%xmm0
  40c0bc:	f3 0f 11 85 6c f3 ff 	movss  %xmm0,-0xc94(%rbp)
  40c0c3:	ff 
  40c0c4:	83 85 20 f3 ff ff 01 	addl   $0x1,-0xce0(%rbp)
  40c0cb:	f3 0f 10 8d 60 f3 ff 	movss  -0xca0(%rbp),%xmm1
  40c0d2:	ff 
  40c0d3:	8b 85 20 f3 ff ff    	mov    -0xce0(%rbp),%eax
  40c0d9:	48 98                	cltq   
  40c0db:	48 c1 e0 04          	shl    $0x4,%rax
  40c0df:	48 01 e8             	add    %rbp,%rax
  40c0e2:	48 2d 90 0c 00 00    	sub    $0xc90,%rax
  40c0e8:	f3 0f 10 00          	movss  (%rax),%xmm0
  40c0ec:	f3 0f 58 c1          	addss  %xmm1,%xmm0
  40c0f0:	f3 0f 11 85 60 f3 ff 	movss  %xmm0,-0xca0(%rbp)
  40c0f7:	ff 
  40c0f8:	f3 0f 10 8d 64 f3 ff 	movss  -0xc9c(%rbp),%xmm1
  40c0ff:	ff 
  40c100:	8b 85 20 f3 ff ff    	mov    -0xce0(%rbp),%eax
  40c106:	48 98                	cltq   
  40c108:	48 c1 e0 04          	shl    $0x4,%rax
  40c10c:	48 01 e8             	add    %rbp,%rax
  40c10f:	48 2d 8c 0c 00 00    	sub    $0xc8c,%rax
  40c115:	f3 0f 10 00          	movss  (%rax),%xmm0
  40c119:	f3 0f 58 c1          	addss  %xmm1,%xmm0
  40c11d:	f3 0f 11 85 64 f3 ff 	movss  %xmm0,-0xc9c(%rbp)
  40c124:	ff 
  40c125:	f3 0f 10 8d 68 f3 ff 	movss  -0xc98(%rbp),%xmm1
  40c12c:	ff 
  40c12d:	8b 85 20 f3 ff ff    	mov    -0xce0(%rbp),%eax
  40c133:	48 98                	cltq   
  40c135:	48 c1 e0 04          	shl    $0x4,%rax
  40c139:	48 01 e8             	add    %rbp,%rax
  40c13c:	48 2d 88 0c 00 00    	sub    $0xc88,%rax
  40c142:	f3 0f 10 00          	movss  (%rax),%xmm0
  40c146:	f3 0f 58 c1          	addss  %xmm1,%xmm0
  40c14a:	f3 0f 11 85 68 f3 ff 	movss  %xmm0,-0xc98(%rbp)
  40c151:	ff 
  40c152:	f3 0f 10 8d 6c f3 ff 	movss  -0xc94(%rbp),%xmm1
  40c159:	ff 
  40c15a:	8b 85 20 f3 ff ff    	mov    -0xce0(%rbp),%eax
  40c160:	48 98                	cltq   
  40c162:	48 c1 e0 04          	shl    $0x4,%rax
  40c166:	48 01 e8             	add    %rbp,%rax
  40c169:	48 2d 84 0c 00 00    	sub    $0xc84,%rax
  40c16f:	f3 0f 10 00          	movss  (%rax),%xmm0
  40c173:	f3 0f 58 c1          	addss  %xmm1,%xmm0
  40c177:	f3 0f 11 85 6c f3 ff 	movss  %xmm0,-0xc94(%rbp)
  40c17e:	ff 
  40c17f:	83 85 20 f3 ff ff 01 	addl   $0x1,-0xce0(%rbp)
  40c186:	f3 0f 10 8d 60 f3 ff 	movss  -0xca0(%rbp),%xmm1
  40c18d:	ff 
  40c18e:	8b 85 20 f3 ff ff    	mov    -0xce0(%rbp),%eax
  40c194:	48 98                	cltq   
  40c196:	48 c1 e0 04          	shl    $0x4,%rax
  40c19a:	48 01 e8             	add    %rbp,%rax
  40c19d:	48 2d 90 0c 00 00    	sub    $0xc90,%rax
  40c1a3:	f3 0f 10 00          	movss  (%rax),%xmm0
  40c1a7:	f3 0f 58 c1          	addss  %xmm1,%xmm0
  40c1ab:	f3 0f 11 85 60 f3 ff 	movss  %xmm0,-0xca0(%rbp)
  40c1b2:	ff 
  40c1b3:	f3 0f 10 8d 64 f3 ff 	movss  -0xc9c(%rbp),%xmm1
  40c1ba:	ff 
  40c1bb:	8b 85 20 f3 ff ff    	mov    -0xce0(%rbp),%eax
  40c1c1:	48 98                	cltq   
  40c1c3:	48 c1 e0 04          	shl    $0x4,%rax
  40c1c7:	48 01 e8             	add    %rbp,%rax
  40c1ca:	48 2d 8c 0c 00 00    	sub    $0xc8c,%rax
  40c1d0:	f3 0f 10 00          	movss  (%rax),%xmm0
  40c1d4:	f3 0f 58 c1          	addss  %xmm1,%xmm0
  40c1d8:	f3 0f 11 85 64 f3 ff 	movss  %xmm0,-0xc9c(%rbp)
  40c1df:	ff 
  40c1e0:	f3 0f 10 8d 68 f3 ff 	movss  -0xc98(%rbp),%xmm1
  40c1e7:	ff 
  40c1e8:	8b 85 20 f3 ff ff    	mov    -0xce0(%rbp),%eax
  40c1ee:	48 98                	cltq   
  40c1f0:	48 c1 e0 04          	shl    $0x4,%rax
  40c1f4:	48 01 e8             	add    %rbp,%rax
  40c1f7:	48 2d 88 0c 00 00    	sub    $0xc88,%rax
  40c1fd:	f3 0f 10 00          	movss  (%rax),%xmm0
  40c201:	f3 0f 58 c1          	addss  %xmm1,%xmm0
  40c205:	f3 0f 11 85 68 f3 ff 	movss  %xmm0,-0xc98(%rbp)
  40c20c:	ff 
  40c20d:	f3 0f 10 8d 6c f3 ff 	movss  -0xc94(%rbp),%xmm1
  40c214:	ff 
  40c215:	8b 85 20 f3 ff ff    	mov    -0xce0(%rbp),%eax
  40c21b:	48 98                	cltq   
  40c21d:	48 c1 e0 04          	shl    $0x4,%rax
  40c221:	48 01 e8             	add    %rbp,%rax
  40c224:	48 2d 84 0c 00 00    	sub    $0xc84,%rax
  40c22a:	f3 0f 10 00          	movss  (%rax),%xmm0
  40c22e:	f3 0f 58 c1          	addss  %xmm1,%xmm0
  40c232:	f3 0f 11 85 6c f3 ff 	movss  %xmm0,-0xc94(%rbp)
  40c239:	ff 
  40c23a:	83 85 20 f3 ff ff 01 	addl   $0x1,-0xce0(%rbp)
  40c241:	f3 0f 10 8d 60 f3 ff 	movss  -0xca0(%rbp),%xmm1
  40c248:	ff 
  40c249:	8b 85 20 f3 ff ff    	mov    -0xce0(%rbp),%eax
  40c24f:	48 98                	cltq   
  40c251:	48 c1 e0 04          	shl    $0x4,%rax
  40c255:	48 01 e8             	add    %rbp,%rax
  40c258:	48 2d 90 0c 00 00    	sub    $0xc90,%rax
  40c25e:	f3 0f 10 00          	movss  (%rax),%xmm0
  40c262:	f3 0f 58 c1          	addss  %xmm1,%xmm0
  40c266:	f3 0f 11 85 60 f3 ff 	movss  %xmm0,-0xca0(%rbp)
  40c26d:	ff 
  40c26e:	f3 0f 10 8d 64 f3 ff 	movss  -0xc9c(%rbp),%xmm1
  40c275:	ff 
  40c276:	8b 85 20 f3 ff ff    	mov    -0xce0(%rbp),%eax
  40c27c:	48 98                	cltq   
  40c27e:	48 c1 e0 04          	shl    $0x4,%rax
  40c282:	48 01 e8             	add    %rbp,%rax
  40c285:	48 2d 8c 0c 00 00    	sub    $0xc8c,%rax
  40c28b:	f3 0f 10 00          	movss  (%rax),%xmm0
  40c28f:	f3 0f 58 c1          	addss  %xmm1,%xmm0
  40c293:	f3 0f 11 85 64 f3 ff 	movss  %xmm0,-0xc9c(%rbp)
  40c29a:	ff 
  40c29b:	f3 0f 10 8d 68 f3 ff 	movss  -0xc98(%rbp),%xmm1
  40c2a2:	ff 
  40c2a3:	8b 85 20 f3 ff ff    	mov    -0xce0(%rbp),%eax
  40c2a9:	48 98                	cltq   
  40c2ab:	48 c1 e0 04          	shl    $0x4,%rax
  40c2af:	48 01 e8             	add    %rbp,%rax
  40c2b2:	48 2d 88 0c 00 00    	sub    $0xc88,%rax
  40c2b8:	f3 0f 10 00          	movss  (%rax),%xmm0
  40c2bc:	f3 0f 58 c1          	addss  %xmm1,%xmm0
  40c2c0:	f3 0f 11 85 68 f3 ff 	movss  %xmm0,-0xc98(%rbp)
  40c2c7:	ff 
  40c2c8:	f3 0f 10 8d 6c f3 ff 	movss  -0xc94(%rbp),%xmm1
  40c2cf:	ff 
  40c2d0:	8b 85 20 f3 ff ff    	mov    -0xce0(%rbp),%eax
  40c2d6:	48 98                	cltq   
  40c2d8:	48 c1 e0 04          	shl    $0x4,%rax
  40c2dc:	48 01 e8             	add    %rbp,%rax
  40c2df:	48 2d 84 0c 00 00    	sub    $0xc84,%rax
  40c2e5:	f3 0f 10 00          	movss  (%rax),%xmm0
  40c2e9:	f3 0f 58 c1          	addss  %xmm1,%xmm0
  40c2ed:	f3 0f 11 85 6c f3 ff 	movss  %xmm0,-0xc94(%rbp)
  40c2f4:	ff 
  40c2f5:	83 85 20 f3 ff ff 01 	addl   $0x1,-0xce0(%rbp)
  40c2fc:	f3 0f 10 8d 60 f3 ff 	movss  -0xca0(%rbp),%xmm1
  40c303:	ff 
  40c304:	8b 85 20 f3 ff ff    	mov    -0xce0(%rbp),%eax
  40c30a:	48 98                	cltq   
  40c30c:	48 c1 e0 04          	shl    $0x4,%rax
  40c310:	48 01 e8             	add    %rbp,%rax
  40c313:	48 2d 90 0c 00 00    	sub    $0xc90,%rax
  40c319:	f3 0f 10 00          	movss  (%rax),%xmm0
  40c31d:	f3 0f 58 c1          	addss  %xmm1,%xmm0
  40c321:	f3 0f 11 85 60 f3 ff 	movss  %xmm0,-0xca0(%rbp)
  40c328:	ff 
  40c329:	f3 0f 10 8d 64 f3 ff 	movss  -0xc9c(%rbp),%xmm1
  40c330:	ff 
  40c331:	8b 85 20 f3 ff ff    	mov    -0xce0(%rbp),%eax
  40c337:	48 98                	cltq   
  40c339:	48 c1 e0 04          	shl    $0x4,%rax
  40c33d:	48 01 e8             	add    %rbp,%rax
  40c340:	48 2d 8c 0c 00 00    	sub    $0xc8c,%rax
  40c346:	f3 0f 10 00          	movss  (%rax),%xmm0
  40c34a:	f3 0f 58 c1          	addss  %xmm1,%xmm0
  40c34e:	f3 0f 11 85 64 f3 ff 	movss  %xmm0,-0xc9c(%rbp)
  40c355:	ff 
  40c356:	f3 0f 10 8d 68 f3 ff 	movss  -0xc98(%rbp),%xmm1
  40c35d:	ff 
  40c35e:	8b 85 20 f3 ff ff    	mov    -0xce0(%rbp),%eax
  40c364:	48 98                	cltq   
  40c366:	48 c1 e0 04          	shl    $0x4,%rax
  40c36a:	48 01 e8             	add    %rbp,%rax
  40c36d:	48 2d 88 0c 00 00    	sub    $0xc88,%rax
  40c373:	f3 0f 10 00          	movss  (%rax),%xmm0
  40c377:	f3 0f 58 c1          	addss  %xmm1,%xmm0
  40c37b:	f3 0f 11 85 68 f3 ff 	movss  %xmm0,-0xc98(%rbp)
  40c382:	ff 
  40c383:	f3 0f 10 8d 6c f3 ff 	movss  -0xc94(%rbp),%xmm1
  40c38a:	ff 
  40c38b:	8b 85 20 f3 ff ff    	mov    -0xce0(%rbp),%eax
  40c391:	48 98                	cltq   
  40c393:	48 c1 e0 04          	shl    $0x4,%rax
  40c397:	48 01 e8             	add    %rbp,%rax
  40c39a:	48 2d 84 0c 00 00    	sub    $0xc84,%rax
  40c3a0:	f3 0f 10 00          	movss  (%rax),%xmm0
  40c3a4:	f3 0f 58 c1          	addss  %xmm1,%xmm0
  40c3a8:	f3 0f 11 85 6c f3 ff 	movss  %xmm0,-0xc94(%rbp)
  40c3af:	ff 
  40c3b0:	83 85 20 f3 ff ff 01 	addl   $0x1,-0xce0(%rbp)
  40c3b7:	f3 0f 10 8d 60 f3 ff 	movss  -0xca0(%rbp),%xmm1
  40c3be:	ff 
  40c3bf:	8b 85 20 f3 ff ff    	mov    -0xce0(%rbp),%eax
  40c3c5:	48 98                	cltq   
  40c3c7:	48 c1 e0 04          	shl    $0x4,%rax
  40c3cb:	48 01 e8             	add    %rbp,%rax
  40c3ce:	48 2d 90 0c 00 00    	sub    $0xc90,%rax
  40c3d4:	f3 0f 10 00          	movss  (%rax),%xmm0
  40c3d8:	f3 0f 58 c1          	addss  %xmm1,%xmm0
  40c3dc:	f3 0f 11 85 60 f3 ff 	movss  %xmm0,-0xca0(%rbp)
  40c3e3:	ff 
  40c3e4:	f3 0f 10 8d 64 f3 ff 	movss  -0xc9c(%rbp),%xmm1
  40c3eb:	ff 
  40c3ec:	8b 85 20 f3 ff ff    	mov    -0xce0(%rbp),%eax
  40c3f2:	48 98                	cltq   
  40c3f4:	48 c1 e0 04          	shl    $0x4,%rax
  40c3f8:	48 01 e8             	add    %rbp,%rax
  40c3fb:	48 2d 8c 0c 00 00    	sub    $0xc8c,%rax
  40c401:	f3 0f 10 00          	movss  (%rax),%xmm0
  40c405:	f3 0f 58 c1          	addss  %xmm1,%xmm0
  40c409:	f3 0f 11 85 64 f3 ff 	movss  %xmm0,-0xc9c(%rbp)
  40c410:	ff 
  40c411:	f3 0f 10 8d 68 f3 ff 	movss  -0xc98(%rbp),%xmm1
  40c418:	ff 
  40c419:	8b 85 20 f3 ff ff    	mov    -0xce0(%rbp),%eax
  40c41f:	48 98                	cltq   
  40c421:	48 c1 e0 04          	shl    $0x4,%rax
  40c425:	48 01 e8             	add    %rbp,%rax
  40c428:	48 2d 88 0c 00 00    	sub    $0xc88,%rax
  40c42e:	f3 0f 10 00          	movss  (%rax),%xmm0
  40c432:	f3 0f 58 c1          	addss  %xmm1,%xmm0
  40c436:	f3 0f 11 85 68 f3 ff 	movss  %xmm0,-0xc98(%rbp)
  40c43d:	ff 
  40c43e:	f3 0f 10 8d 6c f3 ff 	movss  -0xc94(%rbp),%xmm1
  40c445:	ff 
  40c446:	8b 85 20 f3 ff ff    	mov    -0xce0(%rbp),%eax
  40c44c:	48 98                	cltq   
  40c44e:	48 c1 e0 04          	shl    $0x4,%rax
  40c452:	48 01 e8             	add    %rbp,%rax
  40c455:	48 2d 84 0c 00 00    	sub    $0xc84,%rax
  40c45b:	f3 0f 10 00          	movss  (%rax),%xmm0
  40c45f:	f3 0f 58 c1          	addss  %xmm1,%xmm0
  40c463:	f3 0f 11 85 6c f3 ff 	movss  %xmm0,-0xc94(%rbp)
  40c46a:	ff 
  40c46b:	83 85 20 f3 ff ff 01 	addl   $0x1,-0xce0(%rbp)
  40c472:	f3 0f 10 8d 60 f3 ff 	movss  -0xca0(%rbp),%xmm1
  40c479:	ff 
  40c47a:	8b 85 20 f3 ff ff    	mov    -0xce0(%rbp),%eax
  40c480:	48 98                	cltq   
  40c482:	48 c1 e0 04          	shl    $0x4,%rax
  40c486:	48 01 e8             	add    %rbp,%rax
  40c489:	48 2d 90 0c 00 00    	sub    $0xc90,%rax
  40c48f:	f3 0f 10 00          	movss  (%rax),%xmm0
  40c493:	f3 0f 58 c1          	addss  %xmm1,%xmm0
  40c497:	f3 0f 11 85 60 f3 ff 	movss  %xmm0,-0xca0(%rbp)
  40c49e:	ff 
  40c49f:	f3 0f 10 8d 64 f3 ff 	movss  -0xc9c(%rbp),%xmm1
  40c4a6:	ff 
  40c4a7:	8b 85 20 f3 ff ff    	mov    -0xce0(%rbp),%eax
  40c4ad:	48 98                	cltq   
  40c4af:	48 c1 e0 04          	shl    $0x4,%rax
  40c4b3:	48 01 e8             	add    %rbp,%rax
  40c4b6:	48 2d 8c 0c 00 00    	sub    $0xc8c,%rax
  40c4bc:	f3 0f 10 00          	movss  (%rax),%xmm0
  40c4c0:	f3 0f 58 c1          	addss  %xmm1,%xmm0
  40c4c4:	f3 0f 11 85 64 f3 ff 	movss  %xmm0,-0xc9c(%rbp)
  40c4cb:	ff 
  40c4cc:	f3 0f 10 8d 68 f3 ff 	movss  -0xc98(%rbp),%xmm1
  40c4d3:	ff 
  40c4d4:	8b 85 20 f3 ff ff    	mov    -0xce0(%rbp),%eax
  40c4da:	48 98                	cltq   
  40c4dc:	48 c1 e0 04          	shl    $0x4,%rax
  40c4e0:	48 01 e8             	add    %rbp,%rax
  40c4e3:	48 2d 88 0c 00 00    	sub    $0xc88,%rax
  40c4e9:	f3 0f 10 00          	movss  (%rax),%xmm0
  40c4ed:	f3 0f 58 c1          	addss  %xmm1,%xmm0
  40c4f1:	f3 0f 11 85 68 f3 ff 	movss  %xmm0,-0xc98(%rbp)
  40c4f8:	ff 
  40c4f9:	f3 0f 10 8d 6c f3 ff 	movss  -0xc94(%rbp),%xmm1
  40c500:	ff 
  40c501:	8b 85 20 f3 ff ff    	mov    -0xce0(%rbp),%eax
  40c507:	48 98                	cltq   
  40c509:	48 c1 e0 04          	shl    $0x4,%rax
  40c50d:	48 01 e8             	add    %rbp,%rax
  40c510:	48 2d 84 0c 00 00    	sub    $0xc84,%rax
  40c516:	f3 0f 10 00          	movss  (%rax),%xmm0
  40c51a:	f3 0f 58 c1          	addss  %xmm1,%xmm0
  40c51e:	f3 0f 11 85 6c f3 ff 	movss  %xmm0,-0xc94(%rbp)
  40c525:	ff 
  40c526:	83 85 20 f3 ff ff 01 	addl   $0x1,-0xce0(%rbp)
  40c52d:	f3 0f 10 8d 60 f3 ff 	movss  -0xca0(%rbp),%xmm1
  40c534:	ff 
  40c535:	8b 85 20 f3 ff ff    	mov    -0xce0(%rbp),%eax
  40c53b:	48 98                	cltq   
  40c53d:	48 c1 e0 04          	shl    $0x4,%rax
  40c541:	48 01 e8             	add    %rbp,%rax
  40c544:	48 2d 90 0c 00 00    	sub    $0xc90,%rax
  40c54a:	f3 0f 10 00          	movss  (%rax),%xmm0
  40c54e:	f3 0f 58 c1          	addss  %xmm1,%xmm0
  40c552:	f3 0f 11 85 60 f3 ff 	movss  %xmm0,-0xca0(%rbp)
  40c559:	ff 
  40c55a:	f3 0f 10 8d 64 f3 ff 	movss  -0xc9c(%rbp),%xmm1
  40c561:	ff 
  40c562:	8b 85 20 f3 ff ff    	mov    -0xce0(%rbp),%eax
  40c568:	48 98                	cltq   
  40c56a:	48 c1 e0 04          	shl    $0x4,%rax
  40c56e:	48 01 e8             	add    %rbp,%rax
  40c571:	48 2d 8c 0c 00 00    	sub    $0xc8c,%rax
  40c577:	f3 0f 10 00          	movss  (%rax),%xmm0
  40c57b:	f3 0f 58 c1          	addss  %xmm1,%xmm0
  40c57f:	f3 0f 11 85 64 f3 ff 	movss  %xmm0,-0xc9c(%rbp)
  40c586:	ff 
  40c587:	f3 0f 10 8d 68 f3 ff 	movss  -0xc98(%rbp),%xmm1
  40c58e:	ff 
  40c58f:	8b 85 20 f3 ff ff    	mov    -0xce0(%rbp),%eax
  40c595:	48 98                	cltq   
  40c597:	48 c1 e0 04          	shl    $0x4,%rax
  40c59b:	48 01 e8             	add    %rbp,%rax
  40c59e:	48 2d 88 0c 00 00    	sub    $0xc88,%rax
  40c5a4:	f3 0f 10 00          	movss  (%rax),%xmm0
  40c5a8:	f3 0f 58 c1          	addss  %xmm1,%xmm0
  40c5ac:	f3 0f 11 85 68 f3 ff 	movss  %xmm0,-0xc98(%rbp)
  40c5b3:	ff 
  40c5b4:	f3 0f 10 8d 6c f3 ff 	movss  -0xc94(%rbp),%xmm1
  40c5bb:	ff 
  40c5bc:	8b 85 20 f3 ff ff    	mov    -0xce0(%rbp),%eax
  40c5c2:	48 98                	cltq   
  40c5c4:	48 c1 e0 04          	shl    $0x4,%rax
  40c5c8:	48 01 e8             	add    %rbp,%rax
  40c5cb:	48 2d 84 0c 00 00    	sub    $0xc84,%rax
  40c5d1:	f3 0f 10 00          	movss  (%rax),%xmm0
  40c5d5:	f3 0f 58 c1          	addss  %xmm1,%xmm0
  40c5d9:	f3 0f 11 85 6c f3 ff 	movss  %xmm0,-0xc94(%rbp)
  40c5e0:	ff 
  40c5e1:	83 85 20 f3 ff ff 01 	addl   $0x1,-0xce0(%rbp)
  40c5e8:	f3 0f 10 8d 60 f3 ff 	movss  -0xca0(%rbp),%xmm1
  40c5ef:	ff 
  40c5f0:	8b 85 20 f3 ff ff    	mov    -0xce0(%rbp),%eax
  40c5f6:	48 98                	cltq   
  40c5f8:	48 c1 e0 04          	shl    $0x4,%rax
  40c5fc:	48 01 e8             	add    %rbp,%rax
  40c5ff:	48 2d 90 0c 00 00    	sub    $0xc90,%rax
  40c605:	f3 0f 10 00          	movss  (%rax),%xmm0
  40c609:	f3 0f 58 c1          	addss  %xmm1,%xmm0
  40c60d:	f3 0f 11 85 60 f3 ff 	movss  %xmm0,-0xca0(%rbp)
  40c614:	ff 
  40c615:	f3 0f 10 8d 64 f3 ff 	movss  -0xc9c(%rbp),%xmm1
  40c61c:	ff 
  40c61d:	8b 85 20 f3 ff ff    	mov    -0xce0(%rbp),%eax
  40c623:	48 98                	cltq   
  40c625:	48 c1 e0 04          	shl    $0x4,%rax
  40c629:	48 01 e8             	add    %rbp,%rax
  40c62c:	48 2d 8c 0c 00 00    	sub    $0xc8c,%rax
  40c632:	f3 0f 10 00          	movss  (%rax),%xmm0
  40c636:	f3 0f 58 c1          	addss  %xmm1,%xmm0
  40c63a:	f3 0f 11 85 64 f3 ff 	movss  %xmm0,-0xc9c(%rbp)
  40c641:	ff 
  40c642:	f3 0f 10 8d 68 f3 ff 	movss  -0xc98(%rbp),%xmm1
  40c649:	ff 
  40c64a:	8b 85 20 f3 ff ff    	mov    -0xce0(%rbp),%eax
  40c650:	48 98                	cltq   
  40c652:	48 c1 e0 04          	shl    $0x4,%rax
  40c656:	48 01 e8             	add    %rbp,%rax
  40c659:	48 2d 88 0c 00 00    	sub    $0xc88,%rax
  40c65f:	f3 0f 10 00          	movss  (%rax),%xmm0
  40c663:	f3 0f 58 c1          	addss  %xmm1,%xmm0
  40c667:	f3 0f 11 85 68 f3 ff 	movss  %xmm0,-0xc98(%rbp)
  40c66e:	ff 
  40c66f:	f3 0f 10 8d 6c f3 ff 	movss  -0xc94(%rbp),%xmm1
  40c676:	ff 
  40c677:	8b 85 20 f3 ff ff    	mov    -0xce0(%rbp),%eax
  40c67d:	48 98                	cltq   
  40c67f:	48 c1 e0 04          	shl    $0x4,%rax
  40c683:	48 01 e8             	add    %rbp,%rax
  40c686:	48 2d 84 0c 00 00    	sub    $0xc84,%rax
  40c68c:	f3 0f 10 00          	movss  (%rax),%xmm0
  40c690:	f3 0f 58 c1          	addss  %xmm1,%xmm0
  40c694:	f3 0f 11 85 6c f3 ff 	movss  %xmm0,-0xc94(%rbp)
  40c69b:	ff 
  40c69c:	83 85 20 f3 ff ff 01 	addl   $0x1,-0xce0(%rbp)
  40c6a3:	f3 0f 10 85 1c f3 ff 	movss  -0xce4(%rbp),%xmm0
  40c6aa:	ff 
  40c6ab:	f3 0f 59 85 1c f3 ff 	mulss  -0xce4(%rbp),%xmm0
  40c6b2:	ff 
  40c6b3:	f3 0f 11 85 1c f3 ff 	movss  %xmm0,-0xce4(%rbp)
  40c6ba:	ff 
  40c6bb:	83 85 38 f3 ff ff 01 	addl   $0x1,-0xcc8(%rbp)
  40c6c2:	83 85 20 f3 ff ff 01 	addl   $0x1,-0xce0(%rbp)
  40c6c9:	f3 0f 10 8d 60 f3 ff 	movss  -0xca0(%rbp),%xmm1
  40c6d0:	ff 
  40c6d1:	8b 85 20 f3 ff ff    	mov    -0xce0(%rbp),%eax
  40c6d7:	48 98                	cltq   
  40c6d9:	48 c1 e0 04          	shl    $0x4,%rax
  40c6dd:	48 01 e8             	add    %rbp,%rax
  40c6e0:	48 2d 90 0c 00 00    	sub    $0xc90,%rax
  40c6e6:	f3 0f 10 00          	movss  (%rax),%xmm0
  40c6ea:	f3 0f 58 c1          	addss  %xmm1,%xmm0
  40c6ee:	f3 0f 11 85 60 f3 ff 	movss  %xmm0,-0xca0(%rbp)
  40c6f5:	ff 
  40c6f6:	f3 0f 10 8d 64 f3 ff 	movss  -0xc9c(%rbp),%xmm1
  40c6fd:	ff 
  40c6fe:	8b 85 20 f3 ff ff    	mov    -0xce0(%rbp),%eax
  40c704:	48 98                	cltq   
  40c706:	48 c1 e0 04          	shl    $0x4,%rax
  40c70a:	48 01 e8             	add    %rbp,%rax
  40c70d:	48 2d 8c 0c 00 00    	sub    $0xc8c,%rax
  40c713:	f3 0f 10 00          	movss  (%rax),%xmm0
  40c717:	f3 0f 58 c1          	addss  %xmm1,%xmm0
  40c71b:	f3 0f 11 85 64 f3 ff 	movss  %xmm0,-0xc9c(%rbp)
  40c722:	ff 
  40c723:	f3 0f 10 8d 68 f3 ff 	movss  -0xc98(%rbp),%xmm1
  40c72a:	ff 
  40c72b:	8b 85 20 f3 ff ff    	mov    -0xce0(%rbp),%eax
  40c731:	48 98                	cltq   
  40c733:	48 c1 e0 04          	shl    $0x4,%rax
  40c737:	48 01 e8             	add    %rbp,%rax
  40c73a:	48 2d 88 0c 00 00    	sub    $0xc88,%rax
  40c740:	f3 0f 10 00          	movss  (%rax),%xmm0
  40c744:	f3 0f 58 c1          	addss  %xmm1,%xmm0
  40c748:	f3 0f 11 85 68 f3 ff 	movss  %xmm0,-0xc98(%rbp)
  40c74f:	ff 
  40c750:	f3 0f 10 8d 6c f3 ff 	movss  -0xc94(%rbp),%xmm1
  40c757:	ff 
  40c758:	8b 85 20 f3 ff ff    	mov    -0xce0(%rbp),%eax
  40c75e:	48 98                	cltq   
  40c760:	48 c1 e0 04          	shl    $0x4,%rax
  40c764:	48 01 e8             	add    %rbp,%rax
  40c767:	48 2d 84 0c 00 00    	sub    $0xc84,%rax
  40c76d:	f3 0f 10 00          	movss  (%rax),%xmm0
  40c771:	f3 0f 58 c1          	addss  %xmm1,%xmm0
  40c775:	f3 0f 11 85 6c f3 ff 	movss  %xmm0,-0xc94(%rbp)
  40c77c:	ff 
  40c77d:	83 85 20 f3 ff ff 01 	addl   $0x1,-0xce0(%rbp)
  40c784:	f3 0f 10 8d 60 f3 ff 	movss  -0xca0(%rbp),%xmm1
  40c78b:	ff 
  40c78c:	8b 85 20 f3 ff ff    	mov    -0xce0(%rbp),%eax
  40c792:	48 98                	cltq   
  40c794:	48 c1 e0 04          	shl    $0x4,%rax
  40c798:	48 01 e8             	add    %rbp,%rax
  40c79b:	48 2d 90 0c 00 00    	sub    $0xc90,%rax
  40c7a1:	f3 0f 10 00          	movss  (%rax),%xmm0
  40c7a5:	f3 0f 58 c1          	addss  %xmm1,%xmm0
  40c7a9:	f3 0f 11 85 60 f3 ff 	movss  %xmm0,-0xca0(%rbp)
  40c7b0:	ff 
  40c7b1:	f3 0f 10 8d 64 f3 ff 	movss  -0xc9c(%rbp),%xmm1
  40c7b8:	ff 
  40c7b9:	8b 85 20 f3 ff ff    	mov    -0xce0(%rbp),%eax
  40c7bf:	48 98                	cltq   
  40c7c1:	48 c1 e0 04          	shl    $0x4,%rax
  40c7c5:	48 01 e8             	add    %rbp,%rax
  40c7c8:	48 2d 8c 0c 00 00    	sub    $0xc8c,%rax
  40c7ce:	f3 0f 10 00          	movss  (%rax),%xmm0
  40c7d2:	f3 0f 58 c1          	addss  %xmm1,%xmm0
  40c7d6:	f3 0f 11 85 64 f3 ff 	movss  %xmm0,-0xc9c(%rbp)
  40c7dd:	ff 
  40c7de:	f3 0f 10 8d 68 f3 ff 	movss  -0xc98(%rbp),%xmm1
  40c7e5:	ff 
  40c7e6:	8b 85 20 f3 ff ff    	mov    -0xce0(%rbp),%eax
  40c7ec:	48 98                	cltq   
  40c7ee:	48 c1 e0 04          	shl    $0x4,%rax
  40c7f2:	48 01 e8             	add    %rbp,%rax
  40c7f5:	48 2d 88 0c 00 00    	sub    $0xc88,%rax
  40c7fb:	f3 0f 10 00          	movss  (%rax),%xmm0
  40c7ff:	f3 0f 58 c1          	addss  %xmm1,%xmm0
  40c803:	f3 0f 11 85 68 f3 ff 	movss  %xmm0,-0xc98(%rbp)
  40c80a:	ff 
  40c80b:	f3 0f 10 8d 6c f3 ff 	movss  -0xc94(%rbp),%xmm1
  40c812:	ff 
  40c813:	8b 85 20 f3 ff ff    	mov    -0xce0(%rbp),%eax
  40c819:	48 98                	cltq   
  40c81b:	48 c1 e0 04          	shl    $0x4,%rax
  40c81f:	48 01 e8             	add    %rbp,%rax
  40c822:	48 2d 84 0c 00 00    	sub    $0xc84,%rax
  40c828:	f3 0f 10 00          	movss  (%rax),%xmm0
  40c82c:	f3 0f 58 c1          	addss  %xmm1,%xmm0
  40c830:	f3 0f 11 85 6c f3 ff 	movss  %xmm0,-0xc94(%rbp)
  40c837:	ff 
  40c838:	83 85 20 f3 ff ff 01 	addl   $0x1,-0xce0(%rbp)
  40c83f:	f3 0f 10 8d 60 f3 ff 	movss  -0xca0(%rbp),%xmm1
  40c846:	ff 
  40c847:	8b 85 20 f3 ff ff    	mov    -0xce0(%rbp),%eax
  40c84d:	48 98                	cltq   
  40c84f:	48 c1 e0 04          	shl    $0x4,%rax
  40c853:	48 01 e8             	add    %rbp,%rax
  40c856:	48 2d 90 0c 00 00    	sub    $0xc90,%rax
  40c85c:	f3 0f 10 00          	movss  (%rax),%xmm0
  40c860:	f3 0f 58 c1          	addss  %xmm1,%xmm0
  40c864:	f3 0f 11 85 60 f3 ff 	movss  %xmm0,-0xca0(%rbp)
  40c86b:	ff 
  40c86c:	f3 0f 10 8d 64 f3 ff 	movss  -0xc9c(%rbp),%xmm1
  40c873:	ff 
  40c874:	8b 85 20 f3 ff ff    	mov    -0xce0(%rbp),%eax
  40c87a:	48 98                	cltq   
  40c87c:	48 c1 e0 04          	shl    $0x4,%rax
  40c880:	48 01 e8             	add    %rbp,%rax
  40c883:	48 2d 8c 0c 00 00    	sub    $0xc8c,%rax
  40c889:	f3 0f 10 00          	movss  (%rax),%xmm0
  40c88d:	f3 0f 58 c1          	addss  %xmm1,%xmm0
  40c891:	f3 0f 11 85 64 f3 ff 	movss  %xmm0,-0xc9c(%rbp)
  40c898:	ff 
  40c899:	f3 0f 10 8d 68 f3 ff 	movss  -0xc98(%rbp),%xmm1
  40c8a0:	ff 
  40c8a1:	8b 85 20 f3 ff ff    	mov    -0xce0(%rbp),%eax
  40c8a7:	48 98                	cltq   
  40c8a9:	48 c1 e0 04          	shl    $0x4,%rax
  40c8ad:	48 01 e8             	add    %rbp,%rax
  40c8b0:	48 2d 88 0c 00 00    	sub    $0xc88,%rax
  40c8b6:	f3 0f 10 00          	movss  (%rax),%xmm0
  40c8ba:	f3 0f 58 c1          	addss  %xmm1,%xmm0
  40c8be:	f3 0f 11 85 68 f3 ff 	movss  %xmm0,-0xc98(%rbp)
  40c8c5:	ff 
  40c8c6:	f3 0f 10 8d 6c f3 ff 	movss  -0xc94(%rbp),%xmm1
  40c8cd:	ff 
  40c8ce:	8b 85 20 f3 ff ff    	mov    -0xce0(%rbp),%eax
  40c8d4:	48 98                	cltq   
  40c8d6:	48 c1 e0 04          	shl    $0x4,%rax
  40c8da:	48 01 e8             	add    %rbp,%rax
  40c8dd:	48 2d 84 0c 00 00    	sub    $0xc84,%rax
  40c8e3:	f3 0f 10 00          	movss  (%rax),%xmm0
  40c8e7:	f3 0f 58 c1          	addss  %xmm1,%xmm0
  40c8eb:	f3 0f 11 85 6c f3 ff 	movss  %xmm0,-0xc94(%rbp)
  40c8f2:	ff 
  40c8f3:	83 85 20 f3 ff ff 01 	addl   $0x1,-0xce0(%rbp)
  40c8fa:	f3 0f 10 8d 60 f3 ff 	movss  -0xca0(%rbp),%xmm1
  40c901:	ff 
  40c902:	8b 85 20 f3 ff ff    	mov    -0xce0(%rbp),%eax
  40c908:	48 98                	cltq   
  40c90a:	48 c1 e0 04          	shl    $0x4,%rax
  40c90e:	48 01 e8             	add    %rbp,%rax
  40c911:	48 2d 90 0c 00 00    	sub    $0xc90,%rax
  40c917:	f3 0f 10 00          	movss  (%rax),%xmm0
  40c91b:	f3 0f 58 c1          	addss  %xmm1,%xmm0
  40c91f:	f3 0f 11 85 60 f3 ff 	movss  %xmm0,-0xca0(%rbp)
  40c926:	ff 
  40c927:	f3 0f 10 8d 64 f3 ff 	movss  -0xc9c(%rbp),%xmm1
  40c92e:	ff 
  40c92f:	8b 85 20 f3 ff ff    	mov    -0xce0(%rbp),%eax
  40c935:	48 98                	cltq   
  40c937:	48 c1 e0 04          	shl    $0x4,%rax
  40c93b:	48 01 e8             	add    %rbp,%rax
  40c93e:	48 2d 8c 0c 00 00    	sub    $0xc8c,%rax
  40c944:	f3 0f 10 00          	movss  (%rax),%xmm0
  40c948:	f3 0f 58 c1          	addss  %xmm1,%xmm0
  40c94c:	f3 0f 11 85 64 f3 ff 	movss  %xmm0,-0xc9c(%rbp)
  40c953:	ff 
  40c954:	f3 0f 10 8d 68 f3 ff 	movss  -0xc98(%rbp),%xmm1
  40c95b:	ff 
  40c95c:	8b 85 20 f3 ff ff    	mov    -0xce0(%rbp),%eax
  40c962:	48 98                	cltq   
  40c964:	48 c1 e0 04          	shl    $0x4,%rax
  40c968:	48 01 e8             	add    %rbp,%rax
  40c96b:	48 2d 88 0c 00 00    	sub    $0xc88,%rax
  40c971:	f3 0f 10 00          	movss  (%rax),%xmm0
  40c975:	f3 0f 58 c1          	addss  %xmm1,%xmm0
  40c979:	f3 0f 11 85 68 f3 ff 	movss  %xmm0,-0xc98(%rbp)
  40c980:	ff 
  40c981:	f3 0f 10 8d 6c f3 ff 	movss  -0xc94(%rbp),%xmm1
  40c988:	ff 
  40c989:	8b 85 20 f3 ff ff    	mov    -0xce0(%rbp),%eax
  40c98f:	48 98                	cltq   
  40c991:	48 c1 e0 04          	shl    $0x4,%rax
  40c995:	48 01 e8             	add    %rbp,%rax
  40c998:	48 2d 84 0c 00 00    	sub    $0xc84,%rax
  40c99e:	f3 0f 10 00          	movss  (%rax),%xmm0
  40c9a2:	f3 0f 58 c1          	addss  %xmm1,%xmm0
  40c9a6:	f3 0f 11 85 6c f3 ff 	movss  %xmm0,-0xc94(%rbp)
  40c9ad:	ff 
  40c9ae:	83 85 20 f3 ff ff 01 	addl   $0x1,-0xce0(%rbp)
  40c9b5:	f3 0f 10 8d 60 f3 ff 	movss  -0xca0(%rbp),%xmm1
  40c9bc:	ff 
  40c9bd:	8b 85 20 f3 ff ff    	mov    -0xce0(%rbp),%eax
  40c9c3:	48 98                	cltq   
  40c9c5:	48 c1 e0 04          	shl    $0x4,%rax
  40c9c9:	48 01 e8             	add    %rbp,%rax
  40c9cc:	48 2d 90 0c 00 00    	sub    $0xc90,%rax
  40c9d2:	f3 0f 10 00          	movss  (%rax),%xmm0
  40c9d6:	f3 0f 58 c1          	addss  %xmm1,%xmm0
  40c9da:	f3 0f 11 85 60 f3 ff 	movss  %xmm0,-0xca0(%rbp)
  40c9e1:	ff 
  40c9e2:	f3 0f 10 8d 64 f3 ff 	movss  -0xc9c(%rbp),%xmm1
  40c9e9:	ff 
  40c9ea:	8b 85 20 f3 ff ff    	mov    -0xce0(%rbp),%eax
  40c9f0:	48 98                	cltq   
  40c9f2:	48 c1 e0 04          	shl    $0x4,%rax
  40c9f6:	48 01 e8             	add    %rbp,%rax
  40c9f9:	48 2d 8c 0c 00 00    	sub    $0xc8c,%rax
  40c9ff:	f3 0f 10 00          	movss  (%rax),%xmm0
  40ca03:	f3 0f 58 c1          	addss  %xmm1,%xmm0
  40ca07:	f3 0f 11 85 64 f3 ff 	movss  %xmm0,-0xc9c(%rbp)
  40ca0e:	ff 
  40ca0f:	f3 0f 10 8d 68 f3 ff 	movss  -0xc98(%rbp),%xmm1
  40ca16:	ff 
  40ca17:	8b 85 20 f3 ff ff    	mov    -0xce0(%rbp),%eax
  40ca1d:	48 98                	cltq   
  40ca1f:	48 c1 e0 04          	shl    $0x4,%rax
  40ca23:	48 01 e8             	add    %rbp,%rax
  40ca26:	48 2d 88 0c 00 00    	sub    $0xc88,%rax
  40ca2c:	f3 0f 10 00          	movss  (%rax),%xmm0
  40ca30:	f3 0f 58 c1          	addss  %xmm1,%xmm0
  40ca34:	f3 0f 11 85 68 f3 ff 	movss  %xmm0,-0xc98(%rbp)
  40ca3b:	ff 
  40ca3c:	f3 0f 10 8d 6c f3 ff 	movss  -0xc94(%rbp),%xmm1
  40ca43:	ff 
  40ca44:	8b 85 20 f3 ff ff    	mov    -0xce0(%rbp),%eax
  40ca4a:	48 98                	cltq   
  40ca4c:	48 c1 e0 04          	shl    $0x4,%rax
  40ca50:	48 01 e8             	add    %rbp,%rax
  40ca53:	48 2d 84 0c 00 00    	sub    $0xc84,%rax
  40ca59:	f3 0f 10 00          	movss  (%rax),%xmm0
  40ca5d:	f3 0f 58 c1          	addss  %xmm1,%xmm0
  40ca61:	f3 0f 11 85 6c f3 ff 	movss  %xmm0,-0xc94(%rbp)
  40ca68:	ff 
  40ca69:	83 85 20 f3 ff ff 01 	addl   $0x1,-0xce0(%rbp)
  40ca70:	f3 0f 10 8d 60 f3 ff 	movss  -0xca0(%rbp),%xmm1
  40ca77:	ff 
  40ca78:	8b 85 20 f3 ff ff    	mov    -0xce0(%rbp),%eax
  40ca7e:	48 98                	cltq   
  40ca80:	48 c1 e0 04          	shl    $0x4,%rax
  40ca84:	48 01 e8             	add    %rbp,%rax
  40ca87:	48 2d 90 0c 00 00    	sub    $0xc90,%rax
  40ca8d:	f3 0f 10 00          	movss  (%rax),%xmm0
  40ca91:	f3 0f 58 c1          	addss  %xmm1,%xmm0
  40ca95:	f3 0f 11 85 60 f3 ff 	movss  %xmm0,-0xca0(%rbp)
  40ca9c:	ff 
  40ca9d:	f3 0f 10 8d 64 f3 ff 	movss  -0xc9c(%rbp),%xmm1
  40caa4:	ff 
  40caa5:	8b 85 20 f3 ff ff    	mov    -0xce0(%rbp),%eax
  40caab:	48 98                	cltq   
  40caad:	48 c1 e0 04          	shl    $0x4,%rax
  40cab1:	48 01 e8             	add    %rbp,%rax
  40cab4:	48 2d 8c 0c 00 00    	sub    $0xc8c,%rax
  40caba:	f3 0f 10 00          	movss  (%rax),%xmm0
  40cabe:	f3 0f 58 c1          	addss  %xmm1,%xmm0
  40cac2:	f3 0f 11 85 64 f3 ff 	movss  %xmm0,-0xc9c(%rbp)
  40cac9:	ff 
  40caca:	f3 0f 10 8d 68 f3 ff 	movss  -0xc98(%rbp),%xmm1
  40cad1:	ff 
  40cad2:	8b 85 20 f3 ff ff    	mov    -0xce0(%rbp),%eax
  40cad8:	48 98                	cltq   
  40cada:	48 c1 e0 04          	shl    $0x4,%rax
  40cade:	48 01 e8             	add    %rbp,%rax
  40cae1:	48 2d 88 0c 00 00    	sub    $0xc88,%rax
  40cae7:	f3 0f 10 00          	movss  (%rax),%xmm0
  40caeb:	f3 0f 58 c1          	addss  %xmm1,%xmm0
  40caef:	f3 0f 11 85 68 f3 ff 	movss  %xmm0,-0xc98(%rbp)
  40caf6:	ff 
  40caf7:	f3 0f 10 8d 6c f3 ff 	movss  -0xc94(%rbp),%xmm1
  40cafe:	ff 
  40caff:	8b 85 20 f3 ff ff    	mov    -0xce0(%rbp),%eax
  40cb05:	48 98                	cltq   
  40cb07:	48 c1 e0 04          	shl    $0x4,%rax
  40cb0b:	48 01 e8             	add    %rbp,%rax
  40cb0e:	48 2d 84 0c 00 00    	sub    $0xc84,%rax
  40cb14:	f3 0f 10 00          	movss  (%rax),%xmm0
  40cb18:	f3 0f 58 c1          	addss  %xmm1,%xmm0
  40cb1c:	f3 0f 11 85 6c f3 ff 	movss  %xmm0,-0xc94(%rbp)
  40cb23:	ff 
  40cb24:	83 85 20 f3 ff ff 01 	addl   $0x1,-0xce0(%rbp)
  40cb2b:	f3 0f 10 8d 60 f3 ff 	movss  -0xca0(%rbp),%xmm1
  40cb32:	ff 
  40cb33:	8b 85 20 f3 ff ff    	mov    -0xce0(%rbp),%eax
  40cb39:	48 98                	cltq   
  40cb3b:	48 c1 e0 04          	shl    $0x4,%rax
  40cb3f:	48 01 e8             	add    %rbp,%rax
  40cb42:	48 2d 90 0c 00 00    	sub    $0xc90,%rax
  40cb48:	f3 0f 10 00          	movss  (%rax),%xmm0
  40cb4c:	f3 0f 58 c1          	addss  %xmm1,%xmm0
  40cb50:	f3 0f 11 85 60 f3 ff 	movss  %xmm0,-0xca0(%rbp)
  40cb57:	ff 
  40cb58:	f3 0f 10 8d 64 f3 ff 	movss  -0xc9c(%rbp),%xmm1
  40cb5f:	ff 
  40cb60:	8b 85 20 f3 ff ff    	mov    -0xce0(%rbp),%eax
  40cb66:	48 98                	cltq   
  40cb68:	48 c1 e0 04          	shl    $0x4,%rax
  40cb6c:	48 01 e8             	add    %rbp,%rax
  40cb6f:	48 2d 8c 0c 00 00    	sub    $0xc8c,%rax
  40cb75:	f3 0f 10 00          	movss  (%rax),%xmm0
  40cb79:	f3 0f 58 c1          	addss  %xmm1,%xmm0
  40cb7d:	f3 0f 11 85 64 f3 ff 	movss  %xmm0,-0xc9c(%rbp)
  40cb84:	ff 
  40cb85:	f3 0f 10 8d 68 f3 ff 	movss  -0xc98(%rbp),%xmm1
  40cb8c:	ff 
  40cb8d:	8b 85 20 f3 ff ff    	mov    -0xce0(%rbp),%eax
  40cb93:	48 98                	cltq   
  40cb95:	48 c1 e0 04          	shl    $0x4,%rax
  40cb99:	48 01 e8             	add    %rbp,%rax
  40cb9c:	48 2d 88 0c 00 00    	sub    $0xc88,%rax
  40cba2:	f3 0f 10 00          	movss  (%rax),%xmm0
  40cba6:	f3 0f 58 c1          	addss  %xmm1,%xmm0
  40cbaa:	f3 0f 11 85 68 f3 ff 	movss  %xmm0,-0xc98(%rbp)
  40cbb1:	ff 
  40cbb2:	f3 0f 10 8d 6c f3 ff 	movss  -0xc94(%rbp),%xmm1
  40cbb9:	ff 
  40cbba:	8b 85 20 f3 ff ff    	mov    -0xce0(%rbp),%eax
  40cbc0:	48 98                	cltq   
  40cbc2:	48 c1 e0 04          	shl    $0x4,%rax
  40cbc6:	48 01 e8             	add    %rbp,%rax
  40cbc9:	48 2d 84 0c 00 00    	sub    $0xc84,%rax
  40cbcf:	f3 0f 10 00          	movss  (%rax),%xmm0
  40cbd3:	f3 0f 58 c1          	addss  %xmm1,%xmm0
  40cbd7:	f3 0f 11 85 6c f3 ff 	movss  %xmm0,-0xc94(%rbp)
  40cbde:	ff 
  40cbdf:	83 85 20 f3 ff ff 01 	addl   $0x1,-0xce0(%rbp)
  40cbe6:	f3 0f 10 8d 60 f3 ff 	movss  -0xca0(%rbp),%xmm1
  40cbed:	ff 
  40cbee:	8b 85 20 f3 ff ff    	mov    -0xce0(%rbp),%eax
  40cbf4:	48 98                	cltq   
  40cbf6:	48 c1 e0 04          	shl    $0x4,%rax
  40cbfa:	48 01 e8             	add    %rbp,%rax
  40cbfd:	48 2d 90 0c 00 00    	sub    $0xc90,%rax
  40cc03:	f3 0f 10 00          	movss  (%rax),%xmm0
  40cc07:	f3 0f 58 c1          	addss  %xmm1,%xmm0
  40cc0b:	f3 0f 11 85 60 f3 ff 	movss  %xmm0,-0xca0(%rbp)
  40cc12:	ff 
  40cc13:	f3 0f 10 8d 64 f3 ff 	movss  -0xc9c(%rbp),%xmm1
  40cc1a:	ff 
  40cc1b:	8b 85 20 f3 ff ff    	mov    -0xce0(%rbp),%eax
  40cc21:	48 98                	cltq   
  40cc23:	48 c1 e0 04          	shl    $0x4,%rax
  40cc27:	48 01 e8             	add    %rbp,%rax
  40cc2a:	48 2d 8c 0c 00 00    	sub    $0xc8c,%rax
  40cc30:	f3 0f 10 00          	movss  (%rax),%xmm0
  40cc34:	f3 0f 58 c1          	addss  %xmm1,%xmm0
  40cc38:	f3 0f 11 85 64 f3 ff 	movss  %xmm0,-0xc9c(%rbp)
  40cc3f:	ff 
  40cc40:	f3 0f 10 8d 68 f3 ff 	movss  -0xc98(%rbp),%xmm1
  40cc47:	ff 
  40cc48:	8b 85 20 f3 ff ff    	mov    -0xce0(%rbp),%eax
  40cc4e:	48 98                	cltq   
  40cc50:	48 c1 e0 04          	shl    $0x4,%rax
  40cc54:	48 01 e8             	add    %rbp,%rax
  40cc57:	48 2d 88 0c 00 00    	sub    $0xc88,%rax
  40cc5d:	f3 0f 10 00          	movss  (%rax),%xmm0
  40cc61:	f3 0f 58 c1          	addss  %xmm1,%xmm0
  40cc65:	f3 0f 11 85 68 f3 ff 	movss  %xmm0,-0xc98(%rbp)
  40cc6c:	ff 
  40cc6d:	f3 0f 10 8d 6c f3 ff 	movss  -0xc94(%rbp),%xmm1
  40cc74:	ff 
  40cc75:	8b 85 20 f3 ff ff    	mov    -0xce0(%rbp),%eax
  40cc7b:	48 98                	cltq   
  40cc7d:	48 c1 e0 04          	shl    $0x4,%rax
  40cc81:	48 01 e8             	add    %rbp,%rax
  40cc84:	48 2d 84 0c 00 00    	sub    $0xc84,%rax
  40cc8a:	f3 0f 10 00          	movss  (%rax),%xmm0
  40cc8e:	f3 0f 58 c1          	addss  %xmm1,%xmm0
  40cc92:	f3 0f 11 85 6c f3 ff 	movss  %xmm0,-0xc94(%rbp)
  40cc99:	ff 
  40cc9a:	83 85 20 f3 ff ff 01 	addl   $0x1,-0xce0(%rbp)
  40cca1:	f3 0f 10 8d 60 f3 ff 	movss  -0xca0(%rbp),%xmm1
  40cca8:	ff 
  40cca9:	8b 85 20 f3 ff ff    	mov    -0xce0(%rbp),%eax
  40ccaf:	48 98                	cltq   
  40ccb1:	48 c1 e0 04          	shl    $0x4,%rax
  40ccb5:	48 01 e8             	add    %rbp,%rax
  40ccb8:	48 2d 90 0c 00 00    	sub    $0xc90,%rax
  40ccbe:	f3 0f 10 00          	movss  (%rax),%xmm0
  40ccc2:	f3 0f 58 c1          	addss  %xmm1,%xmm0
  40ccc6:	f3 0f 11 85 60 f3 ff 	movss  %xmm0,-0xca0(%rbp)
  40cccd:	ff 
  40ccce:	f3 0f 10 8d 64 f3 ff 	movss  -0xc9c(%rbp),%xmm1
  40ccd5:	ff 
  40ccd6:	8b 85 20 f3 ff ff    	mov    -0xce0(%rbp),%eax
  40ccdc:	48 98                	cltq   
  40ccde:	48 c1 e0 04          	shl    $0x4,%rax
  40cce2:	48 01 e8             	add    %rbp,%rax
  40cce5:	48 2d 8c 0c 00 00    	sub    $0xc8c,%rax
  40cceb:	f3 0f 10 00          	movss  (%rax),%xmm0
  40ccef:	f3 0f 58 c1          	addss  %xmm1,%xmm0
  40ccf3:	f3 0f 11 85 64 f3 ff 	movss  %xmm0,-0xc9c(%rbp)
  40ccfa:	ff 
  40ccfb:	f3 0f 10 8d 68 f3 ff 	movss  -0xc98(%rbp),%xmm1
  40cd02:	ff 
  40cd03:	8b 85 20 f3 ff ff    	mov    -0xce0(%rbp),%eax
  40cd09:	48 98                	cltq   
  40cd0b:	48 c1 e0 04          	shl    $0x4,%rax
  40cd0f:	48 01 e8             	add    %rbp,%rax
  40cd12:	48 2d 88 0c 00 00    	sub    $0xc88,%rax
  40cd18:	f3 0f 10 00          	movss  (%rax),%xmm0
  40cd1c:	f3 0f 58 c1          	addss  %xmm1,%xmm0
  40cd20:	f3 0f 11 85 68 f3 ff 	movss  %xmm0,-0xc98(%rbp)
  40cd27:	ff 
  40cd28:	f3 0f 10 8d 6c f3 ff 	movss  -0xc94(%rbp),%xmm1
  40cd2f:	ff 
  40cd30:	8b 85 20 f3 ff ff    	mov    -0xce0(%rbp),%eax
  40cd36:	48 98                	cltq   
  40cd38:	48 c1 e0 04          	shl    $0x4,%rax
  40cd3c:	48 01 e8             	add    %rbp,%rax
  40cd3f:	48 2d 84 0c 00 00    	sub    $0xc84,%rax
  40cd45:	f3 0f 10 00          	movss  (%rax),%xmm0
  40cd49:	f3 0f 58 c1          	addss  %xmm1,%xmm0
  40cd4d:	f3 0f 11 85 6c f3 ff 	movss  %xmm0,-0xc94(%rbp)
  40cd54:	ff 
  40cd55:	83 85 20 f3 ff ff 01 	addl   $0x1,-0xce0(%rbp)
  40cd5c:	f3 0f 10 8d 60 f3 ff 	movss  -0xca0(%rbp),%xmm1
  40cd63:	ff 
  40cd64:	8b 85 20 f3 ff ff    	mov    -0xce0(%rbp),%eax
  40cd6a:	48 98                	cltq   
  40cd6c:	48 c1 e0 04          	shl    $0x4,%rax
  40cd70:	48 01 e8             	add    %rbp,%rax
  40cd73:	48 2d 90 0c 00 00    	sub    $0xc90,%rax
  40cd79:	f3 0f 10 00          	movss  (%rax),%xmm0
  40cd7d:	f3 0f 58 c1          	addss  %xmm1,%xmm0
  40cd81:	f3 0f 11 85 60 f3 ff 	movss  %xmm0,-0xca0(%rbp)
  40cd88:	ff 
  40cd89:	f3 0f 10 8d 64 f3 ff 	movss  -0xc9c(%rbp),%xmm1
  40cd90:	ff 
  40cd91:	8b 85 20 f3 ff ff    	mov    -0xce0(%rbp),%eax
  40cd97:	48 98                	cltq   
  40cd99:	48 c1 e0 04          	shl    $0x4,%rax
  40cd9d:	48 01 e8             	add    %rbp,%rax
  40cda0:	48 2d 8c 0c 00 00    	sub    $0xc8c,%rax
  40cda6:	f3 0f 10 00          	movss  (%rax),%xmm0
  40cdaa:	f3 0f 58 c1          	addss  %xmm1,%xmm0
  40cdae:	f3 0f 11 85 64 f3 ff 	movss  %xmm0,-0xc9c(%rbp)
  40cdb5:	ff 
  40cdb6:	f3 0f 10 8d 68 f3 ff 	movss  -0xc98(%rbp),%xmm1
  40cdbd:	ff 
  40cdbe:	8b 85 20 f3 ff ff    	mov    -0xce0(%rbp),%eax
  40cdc4:	48 98                	cltq   
  40cdc6:	48 c1 e0 04          	shl    $0x4,%rax
  40cdca:	48 01 e8             	add    %rbp,%rax
  40cdcd:	48 2d 88 0c 00 00    	sub    $0xc88,%rax
  40cdd3:	f3 0f 10 00          	movss  (%rax),%xmm0
  40cdd7:	f3 0f 58 c1          	addss  %xmm1,%xmm0
  40cddb:	f3 0f 11 85 68 f3 ff 	movss  %xmm0,-0xc98(%rbp)
  40cde2:	ff 
  40cde3:	f3 0f 10 8d 6c f3 ff 	movss  -0xc94(%rbp),%xmm1
  40cdea:	ff 
  40cdeb:	8b 85 20 f3 ff ff    	mov    -0xce0(%rbp),%eax
  40cdf1:	48 98                	cltq   
  40cdf3:	48 c1 e0 04          	shl    $0x4,%rax
  40cdf7:	48 01 e8             	add    %rbp,%rax
  40cdfa:	48 2d 84 0c 00 00    	sub    $0xc84,%rax
  40ce00:	f3 0f 10 00          	movss  (%rax),%xmm0
  40ce04:	f3 0f 58 c1          	addss  %xmm1,%xmm0
  40ce08:	f3 0f 11 85 6c f3 ff 	movss  %xmm0,-0xc94(%rbp)
  40ce0f:	ff 
  40ce10:	83 85 20 f3 ff ff 01 	addl   $0x1,-0xce0(%rbp)
  40ce17:	f3 0f 10 8d 60 f3 ff 	movss  -0xca0(%rbp),%xmm1
  40ce1e:	ff 
  40ce1f:	8b 85 20 f3 ff ff    	mov    -0xce0(%rbp),%eax
  40ce25:	48 98                	cltq   
  40ce27:	48 c1 e0 04          	shl    $0x4,%rax
  40ce2b:	48 01 e8             	add    %rbp,%rax
  40ce2e:	48 2d 90 0c 00 00    	sub    $0xc90,%rax
  40ce34:	f3 0f 10 00          	movss  (%rax),%xmm0
  40ce38:	f3 0f 58 c1          	addss  %xmm1,%xmm0
  40ce3c:	f3 0f 11 85 60 f3 ff 	movss  %xmm0,-0xca0(%rbp)
  40ce43:	ff 
  40ce44:	f3 0f 10 8d 64 f3 ff 	movss  -0xc9c(%rbp),%xmm1
  40ce4b:	ff 
  40ce4c:	8b 85 20 f3 ff ff    	mov    -0xce0(%rbp),%eax
  40ce52:	48 98                	cltq   
  40ce54:	48 c1 e0 04          	shl    $0x4,%rax
  40ce58:	48 01 e8             	add    %rbp,%rax
  40ce5b:	48 2d 8c 0c 00 00    	sub    $0xc8c,%rax
  40ce61:	f3 0f 10 00          	movss  (%rax),%xmm0
  40ce65:	f3 0f 58 c1          	addss  %xmm1,%xmm0
  40ce69:	f3 0f 11 85 64 f3 ff 	movss  %xmm0,-0xc9c(%rbp)
  40ce70:	ff 
  40ce71:	f3 0f 10 8d 68 f3 ff 	movss  -0xc98(%rbp),%xmm1
  40ce78:	ff 
  40ce79:	8b 85 20 f3 ff ff    	mov    -0xce0(%rbp),%eax
  40ce7f:	48 98                	cltq   
  40ce81:	48 c1 e0 04          	shl    $0x4,%rax
  40ce85:	48 01 e8             	add    %rbp,%rax
  40ce88:	48 2d 88 0c 00 00    	sub    $0xc88,%rax
  40ce8e:	f3 0f 10 00          	movss  (%rax),%xmm0
  40ce92:	f3 0f 58 c1          	addss  %xmm1,%xmm0
  40ce96:	f3 0f 11 85 68 f3 ff 	movss  %xmm0,-0xc98(%rbp)
  40ce9d:	ff 
  40ce9e:	f3 0f 10 8d 6c f3 ff 	movss  -0xc94(%rbp),%xmm1
  40cea5:	ff 
  40cea6:	8b 85 20 f3 ff ff    	mov    -0xce0(%rbp),%eax
  40ceac:	48 98                	cltq   
  40ceae:	48 c1 e0 04          	shl    $0x4,%rax
  40ceb2:	48 01 e8             	add    %rbp,%rax
  40ceb5:	48 2d 84 0c 00 00    	sub    $0xc84,%rax
  40cebb:	f3 0f 10 00          	movss  (%rax),%xmm0
  40cebf:	f3 0f 58 c1          	addss  %xmm1,%xmm0
  40cec3:	f3 0f 11 85 6c f3 ff 	movss  %xmm0,-0xc94(%rbp)
  40ceca:	ff 
  40cecb:	83 85 20 f3 ff ff 01 	addl   $0x1,-0xce0(%rbp)
  40ced2:	f3 0f 10 8d 60 f3 ff 	movss  -0xca0(%rbp),%xmm1
  40ced9:	ff 
  40ceda:	8b 85 20 f3 ff ff    	mov    -0xce0(%rbp),%eax
  40cee0:	48 98                	cltq   
  40cee2:	48 c1 e0 04          	shl    $0x4,%rax
  40cee6:	48 01 e8             	add    %rbp,%rax
  40cee9:	48 2d 90 0c 00 00    	sub    $0xc90,%rax
  40ceef:	f3 0f 10 00          	movss  (%rax),%xmm0
  40cef3:	f3 0f 58 c1          	addss  %xmm1,%xmm0
  40cef7:	f3 0f 11 85 60 f3 ff 	movss  %xmm0,-0xca0(%rbp)
  40cefe:	ff 
  40ceff:	f3 0f 10 8d 64 f3 ff 	movss  -0xc9c(%rbp),%xmm1
  40cf06:	ff 
  40cf07:	8b 85 20 f3 ff ff    	mov    -0xce0(%rbp),%eax
  40cf0d:	48 98                	cltq   
  40cf0f:	48 c1 e0 04          	shl    $0x4,%rax
  40cf13:	48 01 e8             	add    %rbp,%rax
  40cf16:	48 2d 8c 0c 00 00    	sub    $0xc8c,%rax
  40cf1c:	f3 0f 10 00          	movss  (%rax),%xmm0
  40cf20:	f3 0f 58 c1          	addss  %xmm1,%xmm0
  40cf24:	f3 0f 11 85 64 f3 ff 	movss  %xmm0,-0xc9c(%rbp)
  40cf2b:	ff 
  40cf2c:	f3 0f 10 8d 68 f3 ff 	movss  -0xc98(%rbp),%xmm1
  40cf33:	ff 
  40cf34:	8b 85 20 f3 ff ff    	mov    -0xce0(%rbp),%eax
  40cf3a:	48 98                	cltq   
  40cf3c:	48 c1 e0 04          	shl    $0x4,%rax
  40cf40:	48 01 e8             	add    %rbp,%rax
  40cf43:	48 2d 88 0c 00 00    	sub    $0xc88,%rax
  40cf49:	f3 0f 10 00          	movss  (%rax),%xmm0
  40cf4d:	f3 0f 58 c1          	addss  %xmm1,%xmm0
  40cf51:	f3 0f 11 85 68 f3 ff 	movss  %xmm0,-0xc98(%rbp)
  40cf58:	ff 
  40cf59:	f3 0f 10 8d 6c f3 ff 	movss  -0xc94(%rbp),%xmm1
  40cf60:	ff 
  40cf61:	8b 85 20 f3 ff ff    	mov    -0xce0(%rbp),%eax
  40cf67:	48 98                	cltq   
  40cf69:	48 c1 e0 04          	shl    $0x4,%rax
  40cf6d:	48 01 e8             	add    %rbp,%rax
  40cf70:	48 2d 84 0c 00 00    	sub    $0xc84,%rax
  40cf76:	f3 0f 10 00          	movss  (%rax),%xmm0
  40cf7a:	f3 0f 58 c1          	addss  %xmm1,%xmm0
  40cf7e:	f3 0f 11 85 6c f3 ff 	movss  %xmm0,-0xc94(%rbp)
  40cf85:	ff 
  40cf86:	83 85 20 f3 ff ff 01 	addl   $0x1,-0xce0(%rbp)
  40cf8d:	f3 0f 10 8d 60 f3 ff 	movss  -0xca0(%rbp),%xmm1
  40cf94:	ff 
  40cf95:	8b 85 20 f3 ff ff    	mov    -0xce0(%rbp),%eax
  40cf9b:	48 98                	cltq   
  40cf9d:	48 c1 e0 04          	shl    $0x4,%rax
  40cfa1:	48 01 e8             	add    %rbp,%rax
  40cfa4:	48 2d 90 0c 00 00    	sub    $0xc90,%rax
  40cfaa:	f3 0f 10 00          	movss  (%rax),%xmm0
  40cfae:	f3 0f 58 c1          	addss  %xmm1,%xmm0
  40cfb2:	f3 0f 11 85 60 f3 ff 	movss  %xmm0,-0xca0(%rbp)
  40cfb9:	ff 
  40cfba:	f3 0f 10 8d 64 f3 ff 	movss  -0xc9c(%rbp),%xmm1
  40cfc1:	ff 
  40cfc2:	8b 85 20 f3 ff ff    	mov    -0xce0(%rbp),%eax
  40cfc8:	48 98                	cltq   
  40cfca:	48 c1 e0 04          	shl    $0x4,%rax
  40cfce:	48 01 e8             	add    %rbp,%rax
  40cfd1:	48 2d 8c 0c 00 00    	sub    $0xc8c,%rax
  40cfd7:	f3 0f 10 00          	movss  (%rax),%xmm0
  40cfdb:	f3 0f 58 c1          	addss  %xmm1,%xmm0
  40cfdf:	f3 0f 11 85 64 f3 ff 	movss  %xmm0,-0xc9c(%rbp)
  40cfe6:	ff 
  40cfe7:	f3 0f 10 8d 68 f3 ff 	movss  -0xc98(%rbp),%xmm1
  40cfee:	ff 
  40cfef:	8b 85 20 f3 ff ff    	mov    -0xce0(%rbp),%eax
  40cff5:	48 98                	cltq   
  40cff7:	48 c1 e0 04          	shl    $0x4,%rax
  40cffb:	48 01 e8             	add    %rbp,%rax
  40cffe:	48 2d 88 0c 00 00    	sub    $0xc88,%rax
  40d004:	f3 0f 10 00          	movss  (%rax),%xmm0
  40d008:	f3 0f 58 c1          	addss  %xmm1,%xmm0
  40d00c:	f3 0f 11 85 68 f3 ff 	movss  %xmm0,-0xc98(%rbp)
  40d013:	ff 
  40d014:	f3 0f 10 8d 6c f3 ff 	movss  -0xc94(%rbp),%xmm1
  40d01b:	ff 
  40d01c:	8b 85 20 f3 ff ff    	mov    -0xce0(%rbp),%eax
  40d022:	48 98                	cltq   
  40d024:	48 c1 e0 04          	shl    $0x4,%rax
  40d028:	48 01 e8             	add    %rbp,%rax
  40d02b:	48 2d 84 0c 00 00    	sub    $0xc84,%rax
  40d031:	f3 0f 10 00          	movss  (%rax),%xmm0
  40d035:	f3 0f 58 c1          	addss  %xmm1,%xmm0
  40d039:	f3 0f 11 85 6c f3 ff 	movss  %xmm0,-0xc94(%rbp)
  40d040:	ff 
  40d041:	83 85 20 f3 ff ff 01 	addl   $0x1,-0xce0(%rbp)
  40d048:	f3 0f 10 8d 60 f3 ff 	movss  -0xca0(%rbp),%xmm1
  40d04f:	ff 
  40d050:	8b 85 20 f3 ff ff    	mov    -0xce0(%rbp),%eax
  40d056:	48 98                	cltq   
  40d058:	48 c1 e0 04          	shl    $0x4,%rax
  40d05c:	48 01 e8             	add    %rbp,%rax
  40d05f:	48 2d 90 0c 00 00    	sub    $0xc90,%rax
  40d065:	f3 0f 10 00          	movss  (%rax),%xmm0
  40d069:	f3 0f 58 c1          	addss  %xmm1,%xmm0
  40d06d:	f3 0f 11 85 60 f3 ff 	movss  %xmm0,-0xca0(%rbp)
  40d074:	ff 
  40d075:	f3 0f 10 8d 64 f3 ff 	movss  -0xc9c(%rbp),%xmm1
  40d07c:	ff 
  40d07d:	8b 85 20 f3 ff ff    	mov    -0xce0(%rbp),%eax
  40d083:	48 98                	cltq   
  40d085:	48 c1 e0 04          	shl    $0x4,%rax
  40d089:	48 01 e8             	add    %rbp,%rax
  40d08c:	48 2d 8c 0c 00 00    	sub    $0xc8c,%rax
  40d092:	f3 0f 10 00          	movss  (%rax),%xmm0
  40d096:	f3 0f 58 c1          	addss  %xmm1,%xmm0
  40d09a:	f3 0f 11 85 64 f3 ff 	movss  %xmm0,-0xc9c(%rbp)
  40d0a1:	ff 
  40d0a2:	f3 0f 10 8d 68 f3 ff 	movss  -0xc98(%rbp),%xmm1
  40d0a9:	ff 
  40d0aa:	8b 85 20 f3 ff ff    	mov    -0xce0(%rbp),%eax
  40d0b0:	48 98                	cltq   
  40d0b2:	48 c1 e0 04          	shl    $0x4,%rax
  40d0b6:	48 01 e8             	add    %rbp,%rax
  40d0b9:	48 2d 88 0c 00 00    	sub    $0xc88,%rax
  40d0bf:	f3 0f 10 00          	movss  (%rax),%xmm0
  40d0c3:	f3 0f 58 c1          	addss  %xmm1,%xmm0
  40d0c7:	f3 0f 11 85 68 f3 ff 	movss  %xmm0,-0xc98(%rbp)
  40d0ce:	ff 
  40d0cf:	f3 0f 10 8d 6c f3 ff 	movss  -0xc94(%rbp),%xmm1
  40d0d6:	ff 
  40d0d7:	8b 85 20 f3 ff ff    	mov    -0xce0(%rbp),%eax
  40d0dd:	48 98                	cltq   
  40d0df:	48 c1 e0 04          	shl    $0x4,%rax
  40d0e3:	48 01 e8             	add    %rbp,%rax
  40d0e6:	48 2d 84 0c 00 00    	sub    $0xc84,%rax
  40d0ec:	f3 0f 10 00          	movss  (%rax),%xmm0
  40d0f0:	f3 0f 58 c1          	addss  %xmm1,%xmm0
  40d0f4:	f3 0f 11 85 6c f3 ff 	movss  %xmm0,-0xc94(%rbp)
  40d0fb:	ff 
  40d0fc:	83 85 20 f3 ff ff 01 	addl   $0x1,-0xce0(%rbp)
  40d103:	f3 0f 10 8d 60 f3 ff 	movss  -0xca0(%rbp),%xmm1
  40d10a:	ff 
  40d10b:	8b 85 20 f3 ff ff    	mov    -0xce0(%rbp),%eax
  40d111:	48 98                	cltq   
  40d113:	48 c1 e0 04          	shl    $0x4,%rax
  40d117:	48 01 e8             	add    %rbp,%rax
  40d11a:	48 2d 90 0c 00 00    	sub    $0xc90,%rax
  40d120:	f3 0f 10 00          	movss  (%rax),%xmm0
  40d124:	f3 0f 58 c1          	addss  %xmm1,%xmm0
  40d128:	f3 0f 11 85 60 f3 ff 	movss  %xmm0,-0xca0(%rbp)
  40d12f:	ff 
  40d130:	f3 0f 10 8d 64 f3 ff 	movss  -0xc9c(%rbp),%xmm1
  40d137:	ff 
  40d138:	8b 85 20 f3 ff ff    	mov    -0xce0(%rbp),%eax
  40d13e:	48 98                	cltq   
  40d140:	48 c1 e0 04          	shl    $0x4,%rax
  40d144:	48 01 e8             	add    %rbp,%rax
  40d147:	48 2d 8c 0c 00 00    	sub    $0xc8c,%rax
  40d14d:	f3 0f 10 00          	movss  (%rax),%xmm0
  40d151:	f3 0f 58 c1          	addss  %xmm1,%xmm0
  40d155:	f3 0f 11 85 64 f3 ff 	movss  %xmm0,-0xc9c(%rbp)
  40d15c:	ff 
  40d15d:	f3 0f 10 8d 68 f3 ff 	movss  -0xc98(%rbp),%xmm1
  40d164:	ff 
  40d165:	8b 85 20 f3 ff ff    	mov    -0xce0(%rbp),%eax
  40d16b:	48 98                	cltq   
  40d16d:	48 c1 e0 04          	shl    $0x4,%rax
  40d171:	48 01 e8             	add    %rbp,%rax
  40d174:	48 2d 88 0c 00 00    	sub    $0xc88,%rax
  40d17a:	f3 0f 10 00          	movss  (%rax),%xmm0
  40d17e:	f3 0f 58 c1          	addss  %xmm1,%xmm0
  40d182:	f3 0f 11 85 68 f3 ff 	movss  %xmm0,-0xc98(%rbp)
  40d189:	ff 
  40d18a:	f3 0f 10 8d 6c f3 ff 	movss  -0xc94(%rbp),%xmm1
  40d191:	ff 
  40d192:	8b 85 20 f3 ff ff    	mov    -0xce0(%rbp),%eax
  40d198:	48 98                	cltq   
  40d19a:	48 c1 e0 04          	shl    $0x4,%rax
  40d19e:	48 01 e8             	add    %rbp,%rax
  40d1a1:	48 2d 84 0c 00 00    	sub    $0xc84,%rax
  40d1a7:	f3 0f 10 00          	movss  (%rax),%xmm0
  40d1ab:	f3 0f 58 c1          	addss  %xmm1,%xmm0
  40d1af:	f3 0f 11 85 6c f3 ff 	movss  %xmm0,-0xc94(%rbp)
  40d1b6:	ff 
  40d1b7:	83 85 20 f3 ff ff 01 	addl   $0x1,-0xce0(%rbp)
  40d1be:	f3 0f 10 8d 60 f3 ff 	movss  -0xca0(%rbp),%xmm1
  40d1c5:	ff 
  40d1c6:	8b 85 20 f3 ff ff    	mov    -0xce0(%rbp),%eax
  40d1cc:	48 98                	cltq   
  40d1ce:	48 c1 e0 04          	shl    $0x4,%rax
  40d1d2:	48 01 e8             	add    %rbp,%rax
  40d1d5:	48 2d 90 0c 00 00    	sub    $0xc90,%rax
  40d1db:	f3 0f 10 00          	movss  (%rax),%xmm0
  40d1df:	f3 0f 58 c1          	addss  %xmm1,%xmm0
  40d1e3:	f3 0f 11 85 60 f3 ff 	movss  %xmm0,-0xca0(%rbp)
  40d1ea:	ff 
  40d1eb:	f3 0f 10 8d 64 f3 ff 	movss  -0xc9c(%rbp),%xmm1
  40d1f2:	ff 
  40d1f3:	8b 85 20 f3 ff ff    	mov    -0xce0(%rbp),%eax
  40d1f9:	48 98                	cltq   
  40d1fb:	48 c1 e0 04          	shl    $0x4,%rax
  40d1ff:	48 01 e8             	add    %rbp,%rax
  40d202:	48 2d 8c 0c 00 00    	sub    $0xc8c,%rax
  40d208:	f3 0f 10 00          	movss  (%rax),%xmm0
  40d20c:	f3 0f 58 c1          	addss  %xmm1,%xmm0
  40d210:	f3 0f 11 85 64 f3 ff 	movss  %xmm0,-0xc9c(%rbp)
  40d217:	ff 
  40d218:	f3 0f 10 8d 68 f3 ff 	movss  -0xc98(%rbp),%xmm1
  40d21f:	ff 
  40d220:	8b 85 20 f3 ff ff    	mov    -0xce0(%rbp),%eax
  40d226:	48 98                	cltq   
  40d228:	48 c1 e0 04          	shl    $0x4,%rax
  40d22c:	48 01 e8             	add    %rbp,%rax
  40d22f:	48 2d 88 0c 00 00    	sub    $0xc88,%rax
  40d235:	f3 0f 10 00          	movss  (%rax),%xmm0
  40d239:	f3 0f 58 c1          	addss  %xmm1,%xmm0
  40d23d:	f3 0f 11 85 68 f3 ff 	movss  %xmm0,-0xc98(%rbp)
  40d244:	ff 
  40d245:	f3 0f 10 8d 6c f3 ff 	movss  -0xc94(%rbp),%xmm1
  40d24c:	ff 
  40d24d:	8b 85 20 f3 ff ff    	mov    -0xce0(%rbp),%eax
  40d253:	48 98                	cltq   
  40d255:	48 c1 e0 04          	shl    $0x4,%rax
  40d259:	48 01 e8             	add    %rbp,%rax
  40d25c:	48 2d 84 0c 00 00    	sub    $0xc84,%rax
  40d262:	f3 0f 10 00          	movss  (%rax),%xmm0
  40d266:	f3 0f 58 c1          	addss  %xmm1,%xmm0
  40d26a:	f3 0f 11 85 6c f3 ff 	movss  %xmm0,-0xc94(%rbp)
  40d271:	ff 
  40d272:	83 85 20 f3 ff ff 01 	addl   $0x1,-0xce0(%rbp)
  40d279:	f3 0f 10 8d 60 f3 ff 	movss  -0xca0(%rbp),%xmm1
  40d280:	ff 
  40d281:	8b 85 20 f3 ff ff    	mov    -0xce0(%rbp),%eax
  40d287:	48 98                	cltq   
  40d289:	48 c1 e0 04          	shl    $0x4,%rax
  40d28d:	48 01 e8             	add    %rbp,%rax
  40d290:	48 2d 90 0c 00 00    	sub    $0xc90,%rax
  40d296:	f3 0f 10 00          	movss  (%rax),%xmm0
  40d29a:	f3 0f 58 c1          	addss  %xmm1,%xmm0
  40d29e:	f3 0f 11 85 60 f3 ff 	movss  %xmm0,-0xca0(%rbp)
  40d2a5:	ff 
  40d2a6:	f3 0f 10 8d 64 f3 ff 	movss  -0xc9c(%rbp),%xmm1
  40d2ad:	ff 
  40d2ae:	8b 85 20 f3 ff ff    	mov    -0xce0(%rbp),%eax
  40d2b4:	48 98                	cltq   
  40d2b6:	48 c1 e0 04          	shl    $0x4,%rax
  40d2ba:	48 01 e8             	add    %rbp,%rax
  40d2bd:	48 2d 8c 0c 00 00    	sub    $0xc8c,%rax
  40d2c3:	f3 0f 10 00          	movss  (%rax),%xmm0
  40d2c7:	f3 0f 58 c1          	addss  %xmm1,%xmm0
  40d2cb:	f3 0f 11 85 64 f3 ff 	movss  %xmm0,-0xc9c(%rbp)
  40d2d2:	ff 
  40d2d3:	f3 0f 10 8d 68 f3 ff 	movss  -0xc98(%rbp),%xmm1
  40d2da:	ff 
  40d2db:	8b 85 20 f3 ff ff    	mov    -0xce0(%rbp),%eax
  40d2e1:	48 98                	cltq   
  40d2e3:	48 c1 e0 04          	shl    $0x4,%rax
  40d2e7:	48 01 e8             	add    %rbp,%rax
  40d2ea:	48 2d 88 0c 00 00    	sub    $0xc88,%rax
  40d2f0:	f3 0f 10 00          	movss  (%rax),%xmm0
  40d2f4:	f3 0f 58 c1          	addss  %xmm1,%xmm0
  40d2f8:	f3 0f 11 85 68 f3 ff 	movss  %xmm0,-0xc98(%rbp)
  40d2ff:	ff 
  40d300:	f3 0f 10 8d 6c f3 ff 	movss  -0xc94(%rbp),%xmm1
  40d307:	ff 
  40d308:	8b 85 20 f3 ff ff    	mov    -0xce0(%rbp),%eax
  40d30e:	48 98                	cltq   
  40d310:	48 c1 e0 04          	shl    $0x4,%rax
  40d314:	48 01 e8             	add    %rbp,%rax
  40d317:	48 2d 84 0c 00 00    	sub    $0xc84,%rax
  40d31d:	f3 0f 10 00          	movss  (%rax),%xmm0
  40d321:	f3 0f 58 c1          	addss  %xmm1,%xmm0
  40d325:	f3 0f 11 85 6c f3 ff 	movss  %xmm0,-0xc94(%rbp)
  40d32c:	ff 
  40d32d:	83 85 20 f3 ff ff 01 	addl   $0x1,-0xce0(%rbp)
  40d334:	f3 0f 10 8d 60 f3 ff 	movss  -0xca0(%rbp),%xmm1
  40d33b:	ff 
  40d33c:	8b 85 20 f3 ff ff    	mov    -0xce0(%rbp),%eax
  40d342:	48 98                	cltq   
  40d344:	48 c1 e0 04          	shl    $0x4,%rax
  40d348:	48 01 e8             	add    %rbp,%rax
  40d34b:	48 2d 90 0c 00 00    	sub    $0xc90,%rax
  40d351:	f3 0f 10 00          	movss  (%rax),%xmm0
  40d355:	f3 0f 58 c1          	addss  %xmm1,%xmm0
  40d359:	f3 0f 11 85 60 f3 ff 	movss  %xmm0,-0xca0(%rbp)
  40d360:	ff 
  40d361:	f3 0f 10 8d 64 f3 ff 	movss  -0xc9c(%rbp),%xmm1
  40d368:	ff 
  40d369:	8b 85 20 f3 ff ff    	mov    -0xce0(%rbp),%eax
  40d36f:	48 98                	cltq   
  40d371:	48 c1 e0 04          	shl    $0x4,%rax
  40d375:	48 01 e8             	add    %rbp,%rax
  40d378:	48 2d 8c 0c 00 00    	sub    $0xc8c,%rax
  40d37e:	f3 0f 10 00          	movss  (%rax),%xmm0
  40d382:	f3 0f 58 c1          	addss  %xmm1,%xmm0
  40d386:	f3 0f 11 85 64 f3 ff 	movss  %xmm0,-0xc9c(%rbp)
  40d38d:	ff 
  40d38e:	f3 0f 10 8d 68 f3 ff 	movss  -0xc98(%rbp),%xmm1
  40d395:	ff 
  40d396:	8b 85 20 f3 ff ff    	mov    -0xce0(%rbp),%eax
  40d39c:	48 98                	cltq   
  40d39e:	48 c1 e0 04          	shl    $0x4,%rax
  40d3a2:	48 01 e8             	add    %rbp,%rax
  40d3a5:	48 2d 88 0c 00 00    	sub    $0xc88,%rax
  40d3ab:	f3 0f 10 00          	movss  (%rax),%xmm0
  40d3af:	f3 0f 58 c1          	addss  %xmm1,%xmm0
  40d3b3:	f3 0f 11 85 68 f3 ff 	movss  %xmm0,-0xc98(%rbp)
  40d3ba:	ff 
  40d3bb:	f3 0f 10 8d 6c f3 ff 	movss  -0xc94(%rbp),%xmm1
  40d3c2:	ff 
  40d3c3:	8b 85 20 f3 ff ff    	mov    -0xce0(%rbp),%eax
  40d3c9:	48 98                	cltq   
  40d3cb:	48 c1 e0 04          	shl    $0x4,%rax
  40d3cf:	48 01 e8             	add    %rbp,%rax
  40d3d2:	48 2d 84 0c 00 00    	sub    $0xc84,%rax
  40d3d8:	f3 0f 10 00          	movss  (%rax),%xmm0
  40d3dc:	f3 0f 58 c1          	addss  %xmm1,%xmm0
  40d3e0:	f3 0f 11 85 6c f3 ff 	movss  %xmm0,-0xc94(%rbp)
  40d3e7:	ff 
  40d3e8:	83 85 20 f3 ff ff 01 	addl   $0x1,-0xce0(%rbp)
  40d3ef:	f3 0f 10 8d 60 f3 ff 	movss  -0xca0(%rbp),%xmm1
  40d3f6:	ff 
  40d3f7:	8b 85 20 f3 ff ff    	mov    -0xce0(%rbp),%eax
  40d3fd:	48 98                	cltq   
  40d3ff:	48 c1 e0 04          	shl    $0x4,%rax
  40d403:	48 01 e8             	add    %rbp,%rax
  40d406:	48 2d 90 0c 00 00    	sub    $0xc90,%rax
  40d40c:	f3 0f 10 00          	movss  (%rax),%xmm0
  40d410:	f3 0f 58 c1          	addss  %xmm1,%xmm0
  40d414:	f3 0f 11 85 60 f3 ff 	movss  %xmm0,-0xca0(%rbp)
  40d41b:	ff 
  40d41c:	f3 0f 10 8d 64 f3 ff 	movss  -0xc9c(%rbp),%xmm1
  40d423:	ff 
  40d424:	8b 85 20 f3 ff ff    	mov    -0xce0(%rbp),%eax
  40d42a:	48 98                	cltq   
  40d42c:	48 c1 e0 04          	shl    $0x4,%rax
  40d430:	48 01 e8             	add    %rbp,%rax
  40d433:	48 2d 8c 0c 00 00    	sub    $0xc8c,%rax
  40d439:	f3 0f 10 00          	movss  (%rax),%xmm0
  40d43d:	f3 0f 58 c1          	addss  %xmm1,%xmm0
  40d441:	f3 0f 11 85 64 f3 ff 	movss  %xmm0,-0xc9c(%rbp)
  40d448:	ff 
  40d449:	f3 0f 10 8d 68 f3 ff 	movss  -0xc98(%rbp),%xmm1
  40d450:	ff 
  40d451:	8b 85 20 f3 ff ff    	mov    -0xce0(%rbp),%eax
  40d457:	48 98                	cltq   
  40d459:	48 c1 e0 04          	shl    $0x4,%rax
  40d45d:	48 01 e8             	add    %rbp,%rax
  40d460:	48 2d 88 0c 00 00    	sub    $0xc88,%rax
  40d466:	f3 0f 10 00          	movss  (%rax),%xmm0
  40d46a:	f3 0f 58 c1          	addss  %xmm1,%xmm0
  40d46e:	f3 0f 11 85 68 f3 ff 	movss  %xmm0,-0xc98(%rbp)
  40d475:	ff 
  40d476:	f3 0f 10 8d 6c f3 ff 	movss  -0xc94(%rbp),%xmm1
  40d47d:	ff 
  40d47e:	8b 85 20 f3 ff ff    	mov    -0xce0(%rbp),%eax
  40d484:	48 98                	cltq   
  40d486:	48 c1 e0 04          	shl    $0x4,%rax
  40d48a:	48 01 e8             	add    %rbp,%rax
  40d48d:	48 2d 84 0c 00 00    	sub    $0xc84,%rax
  40d493:	f3 0f 10 00          	movss  (%rax),%xmm0
  40d497:	f3 0f 58 c1          	addss  %xmm1,%xmm0
  40d49b:	f3 0f 11 85 6c f3 ff 	movss  %xmm0,-0xc94(%rbp)
  40d4a2:	ff 
  40d4a3:	83 85 20 f3 ff ff 01 	addl   $0x1,-0xce0(%rbp)
  40d4aa:	f3 0f 10 8d 60 f3 ff 	movss  -0xca0(%rbp),%xmm1
  40d4b1:	ff 
  40d4b2:	8b 85 20 f3 ff ff    	mov    -0xce0(%rbp),%eax
  40d4b8:	48 98                	cltq   
  40d4ba:	48 c1 e0 04          	shl    $0x4,%rax
  40d4be:	48 01 e8             	add    %rbp,%rax
  40d4c1:	48 2d 90 0c 00 00    	sub    $0xc90,%rax
  40d4c7:	f3 0f 10 00          	movss  (%rax),%xmm0
  40d4cb:	f3 0f 58 c1          	addss  %xmm1,%xmm0
  40d4cf:	f3 0f 11 85 60 f3 ff 	movss  %xmm0,-0xca0(%rbp)
  40d4d6:	ff 
  40d4d7:	f3 0f 10 8d 64 f3 ff 	movss  -0xc9c(%rbp),%xmm1
  40d4de:	ff 
  40d4df:	8b 85 20 f3 ff ff    	mov    -0xce0(%rbp),%eax
  40d4e5:	48 98                	cltq   
  40d4e7:	48 c1 e0 04          	shl    $0x4,%rax
  40d4eb:	48 01 e8             	add    %rbp,%rax
  40d4ee:	48 2d 8c 0c 00 00    	sub    $0xc8c,%rax
  40d4f4:	f3 0f 10 00          	movss  (%rax),%xmm0
  40d4f8:	f3 0f 58 c1          	addss  %xmm1,%xmm0
  40d4fc:	f3 0f 11 85 64 f3 ff 	movss  %xmm0,-0xc9c(%rbp)
  40d503:	ff 
  40d504:	f3 0f 10 8d 68 f3 ff 	movss  -0xc98(%rbp),%xmm1
  40d50b:	ff 
  40d50c:	8b 85 20 f3 ff ff    	mov    -0xce0(%rbp),%eax
  40d512:	48 98                	cltq   
  40d514:	48 c1 e0 04          	shl    $0x4,%rax
  40d518:	48 01 e8             	add    %rbp,%rax
  40d51b:	48 2d 88 0c 00 00    	sub    $0xc88,%rax
  40d521:	f3 0f 10 00          	movss  (%rax),%xmm0
  40d525:	f3 0f 58 c1          	addss  %xmm1,%xmm0
  40d529:	f3 0f 11 85 68 f3 ff 	movss  %xmm0,-0xc98(%rbp)
  40d530:	ff 
  40d531:	f3 0f 10 8d 6c f3 ff 	movss  -0xc94(%rbp),%xmm1
  40d538:	ff 
  40d539:	8b 85 20 f3 ff ff    	mov    -0xce0(%rbp),%eax
  40d53f:	48 98                	cltq   
  40d541:	48 c1 e0 04          	shl    $0x4,%rax
  40d545:	48 01 e8             	add    %rbp,%rax
  40d548:	48 2d 84 0c 00 00    	sub    $0xc84,%rax
  40d54e:	f3 0f 10 00          	movss  (%rax),%xmm0
  40d552:	f3 0f 58 c1          	addss  %xmm1,%xmm0
  40d556:	f3 0f 11 85 6c f3 ff 	movss  %xmm0,-0xc94(%rbp)
  40d55d:	ff 
  40d55e:	83 85 20 f3 ff ff 01 	addl   $0x1,-0xce0(%rbp)
  40d565:	f3 0f 10 8d 60 f3 ff 	movss  -0xca0(%rbp),%xmm1
  40d56c:	ff 
  40d56d:	8b 85 20 f3 ff ff    	mov    -0xce0(%rbp),%eax
  40d573:	48 98                	cltq   
  40d575:	48 c1 e0 04          	shl    $0x4,%rax
  40d579:	48 01 e8             	add    %rbp,%rax
  40d57c:	48 2d 90 0c 00 00    	sub    $0xc90,%rax
  40d582:	f3 0f 10 00          	movss  (%rax),%xmm0
  40d586:	f3 0f 58 c1          	addss  %xmm1,%xmm0
  40d58a:	f3 0f 11 85 60 f3 ff 	movss  %xmm0,-0xca0(%rbp)
  40d591:	ff 
  40d592:	f3 0f 10 8d 64 f3 ff 	movss  -0xc9c(%rbp),%xmm1
  40d599:	ff 
  40d59a:	8b 85 20 f3 ff ff    	mov    -0xce0(%rbp),%eax
  40d5a0:	48 98                	cltq   
  40d5a2:	48 c1 e0 04          	shl    $0x4,%rax
  40d5a6:	48 01 e8             	add    %rbp,%rax
  40d5a9:	48 2d 8c 0c 00 00    	sub    $0xc8c,%rax
  40d5af:	f3 0f 10 00          	movss  (%rax),%xmm0
  40d5b3:	f3 0f 58 c1          	addss  %xmm1,%xmm0
  40d5b7:	f3 0f 11 85 64 f3 ff 	movss  %xmm0,-0xc9c(%rbp)
  40d5be:	ff 
  40d5bf:	f3 0f 10 8d 68 f3 ff 	movss  -0xc98(%rbp),%xmm1
  40d5c6:	ff 
  40d5c7:	8b 85 20 f3 ff ff    	mov    -0xce0(%rbp),%eax
  40d5cd:	48 98                	cltq   
  40d5cf:	48 c1 e0 04          	shl    $0x4,%rax
  40d5d3:	48 01 e8             	add    %rbp,%rax
  40d5d6:	48 2d 88 0c 00 00    	sub    $0xc88,%rax
  40d5dc:	f3 0f 10 00          	movss  (%rax),%xmm0
  40d5e0:	f3 0f 58 c1          	addss  %xmm1,%xmm0
  40d5e4:	f3 0f 11 85 68 f3 ff 	movss  %xmm0,-0xc98(%rbp)
  40d5eb:	ff 
  40d5ec:	f3 0f 10 8d 6c f3 ff 	movss  -0xc94(%rbp),%xmm1
  40d5f3:	ff 
  40d5f4:	8b 85 20 f3 ff ff    	mov    -0xce0(%rbp),%eax
  40d5fa:	48 98                	cltq   
  40d5fc:	48 c1 e0 04          	shl    $0x4,%rax
  40d600:	48 01 e8             	add    %rbp,%rax
  40d603:	48 2d 84 0c 00 00    	sub    $0xc84,%rax
  40d609:	f3 0f 10 00          	movss  (%rax),%xmm0
  40d60d:	f3 0f 58 c1          	addss  %xmm1,%xmm0
  40d611:	f3 0f 11 85 6c f3 ff 	movss  %xmm0,-0xc94(%rbp)
  40d618:	ff 
  40d619:	83 85 20 f3 ff ff 01 	addl   $0x1,-0xce0(%rbp)
  40d620:	f3 0f 10 8d 60 f3 ff 	movss  -0xca0(%rbp),%xmm1
  40d627:	ff 
  40d628:	8b 85 20 f3 ff ff    	mov    -0xce0(%rbp),%eax
  40d62e:	48 98                	cltq   
  40d630:	48 c1 e0 04          	shl    $0x4,%rax
  40d634:	48 01 e8             	add    %rbp,%rax
  40d637:	48 2d 90 0c 00 00    	sub    $0xc90,%rax
  40d63d:	f3 0f 10 00          	movss  (%rax),%xmm0
  40d641:	f3 0f 58 c1          	addss  %xmm1,%xmm0
  40d645:	f3 0f 11 85 60 f3 ff 	movss  %xmm0,-0xca0(%rbp)
  40d64c:	ff 
  40d64d:	f3 0f 10 8d 64 f3 ff 	movss  -0xc9c(%rbp),%xmm1
  40d654:	ff 
  40d655:	8b 85 20 f3 ff ff    	mov    -0xce0(%rbp),%eax
  40d65b:	48 98                	cltq   
  40d65d:	48 c1 e0 04          	shl    $0x4,%rax
  40d661:	48 01 e8             	add    %rbp,%rax
  40d664:	48 2d 8c 0c 00 00    	sub    $0xc8c,%rax
  40d66a:	f3 0f 10 00          	movss  (%rax),%xmm0
  40d66e:	f3 0f 58 c1          	addss  %xmm1,%xmm0
  40d672:	f3 0f 11 85 64 f3 ff 	movss  %xmm0,-0xc9c(%rbp)
  40d679:	ff 
  40d67a:	f3 0f 10 8d 68 f3 ff 	movss  -0xc98(%rbp),%xmm1
  40d681:	ff 
  40d682:	8b 85 20 f3 ff ff    	mov    -0xce0(%rbp),%eax
  40d688:	48 98                	cltq   
  40d68a:	48 c1 e0 04          	shl    $0x4,%rax
  40d68e:	48 01 e8             	add    %rbp,%rax
  40d691:	48 2d 88 0c 00 00    	sub    $0xc88,%rax
  40d697:	f3 0f 10 00          	movss  (%rax),%xmm0
  40d69b:	f3 0f 58 c1          	addss  %xmm1,%xmm0
  40d69f:	f3 0f 11 85 68 f3 ff 	movss  %xmm0,-0xc98(%rbp)
  40d6a6:	ff 
  40d6a7:	f3 0f 10 8d 6c f3 ff 	movss  -0xc94(%rbp),%xmm1
  40d6ae:	ff 
  40d6af:	8b 85 20 f3 ff ff    	mov    -0xce0(%rbp),%eax
  40d6b5:	48 98                	cltq   
  40d6b7:	48 c1 e0 04          	shl    $0x4,%rax
  40d6bb:	48 01 e8             	add    %rbp,%rax
  40d6be:	48 2d 84 0c 00 00    	sub    $0xc84,%rax
  40d6c4:	f3 0f 10 00          	movss  (%rax),%xmm0
  40d6c8:	f3 0f 58 c1          	addss  %xmm1,%xmm0
  40d6cc:	f3 0f 11 85 6c f3 ff 	movss  %xmm0,-0xc94(%rbp)
  40d6d3:	ff 
  40d6d4:	83 85 20 f3 ff ff 01 	addl   $0x1,-0xce0(%rbp)
  40d6db:	f3 0f 10 8d 60 f3 ff 	movss  -0xca0(%rbp),%xmm1
  40d6e2:	ff 
  40d6e3:	8b 85 20 f3 ff ff    	mov    -0xce0(%rbp),%eax
  40d6e9:	48 98                	cltq   
  40d6eb:	48 c1 e0 04          	shl    $0x4,%rax
  40d6ef:	48 01 e8             	add    %rbp,%rax
  40d6f2:	48 2d 90 0c 00 00    	sub    $0xc90,%rax
  40d6f8:	f3 0f 10 00          	movss  (%rax),%xmm0
  40d6fc:	f3 0f 58 c1          	addss  %xmm1,%xmm0
  40d700:	f3 0f 11 85 60 f3 ff 	movss  %xmm0,-0xca0(%rbp)
  40d707:	ff 
  40d708:	f3 0f 10 8d 64 f3 ff 	movss  -0xc9c(%rbp),%xmm1
  40d70f:	ff 
  40d710:	8b 85 20 f3 ff ff    	mov    -0xce0(%rbp),%eax
  40d716:	48 98                	cltq   
  40d718:	48 c1 e0 04          	shl    $0x4,%rax
  40d71c:	48 01 e8             	add    %rbp,%rax
  40d71f:	48 2d 8c 0c 00 00    	sub    $0xc8c,%rax
  40d725:	f3 0f 10 00          	movss  (%rax),%xmm0
  40d729:	f3 0f 58 c1          	addss  %xmm1,%xmm0
  40d72d:	f3 0f 11 85 64 f3 ff 	movss  %xmm0,-0xc9c(%rbp)
  40d734:	ff 
  40d735:	f3 0f 10 8d 68 f3 ff 	movss  -0xc98(%rbp),%xmm1
  40d73c:	ff 
  40d73d:	8b 85 20 f3 ff ff    	mov    -0xce0(%rbp),%eax
  40d743:	48 98                	cltq   
  40d745:	48 c1 e0 04          	shl    $0x4,%rax
  40d749:	48 01 e8             	add    %rbp,%rax
  40d74c:	48 2d 88 0c 00 00    	sub    $0xc88,%rax
  40d752:	f3 0f 10 00          	movss  (%rax),%xmm0
  40d756:	f3 0f 58 c1          	addss  %xmm1,%xmm0
  40d75a:	f3 0f 11 85 68 f3 ff 	movss  %xmm0,-0xc98(%rbp)
  40d761:	ff 
  40d762:	f3 0f 10 8d 6c f3 ff 	movss  -0xc94(%rbp),%xmm1
  40d769:	ff 
  40d76a:	8b 85 20 f3 ff ff    	mov    -0xce0(%rbp),%eax
  40d770:	48 98                	cltq   
  40d772:	48 c1 e0 04          	shl    $0x4,%rax
  40d776:	48 01 e8             	add    %rbp,%rax
  40d779:	48 2d 84 0c 00 00    	sub    $0xc84,%rax
  40d77f:	f3 0f 10 00          	movss  (%rax),%xmm0
  40d783:	f3 0f 58 c1          	addss  %xmm1,%xmm0
  40d787:	f3 0f 11 85 6c f3 ff 	movss  %xmm0,-0xc94(%rbp)
  40d78e:	ff 
  40d78f:	83 85 20 f3 ff ff 01 	addl   $0x1,-0xce0(%rbp)
  40d796:	f3 0f 10 8d 60 f3 ff 	movss  -0xca0(%rbp),%xmm1
  40d79d:	ff 
  40d79e:	8b 85 20 f3 ff ff    	mov    -0xce0(%rbp),%eax
  40d7a4:	48 98                	cltq   
  40d7a6:	48 c1 e0 04          	shl    $0x4,%rax
  40d7aa:	48 01 e8             	add    %rbp,%rax
  40d7ad:	48 2d 90 0c 00 00    	sub    $0xc90,%rax
  40d7b3:	f3 0f 10 00          	movss  (%rax),%xmm0
  40d7b7:	f3 0f 58 c1          	addss  %xmm1,%xmm0
  40d7bb:	f3 0f 11 85 60 f3 ff 	movss  %xmm0,-0xca0(%rbp)
  40d7c2:	ff 
  40d7c3:	f3 0f 10 8d 64 f3 ff 	movss  -0xc9c(%rbp),%xmm1
  40d7ca:	ff 
  40d7cb:	8b 85 20 f3 ff ff    	mov    -0xce0(%rbp),%eax
  40d7d1:	48 98                	cltq   
  40d7d3:	48 c1 e0 04          	shl    $0x4,%rax
  40d7d7:	48 01 e8             	add    %rbp,%rax
  40d7da:	48 2d 8c 0c 00 00    	sub    $0xc8c,%rax
  40d7e0:	f3 0f 10 00          	movss  (%rax),%xmm0
  40d7e4:	f3 0f 58 c1          	addss  %xmm1,%xmm0
  40d7e8:	f3 0f 11 85 64 f3 ff 	movss  %xmm0,-0xc9c(%rbp)
  40d7ef:	ff 
  40d7f0:	f3 0f 10 8d 68 f3 ff 	movss  -0xc98(%rbp),%xmm1
  40d7f7:	ff 
  40d7f8:	8b 85 20 f3 ff ff    	mov    -0xce0(%rbp),%eax
  40d7fe:	48 98                	cltq   
  40d800:	48 c1 e0 04          	shl    $0x4,%rax
  40d804:	48 01 e8             	add    %rbp,%rax
  40d807:	48 2d 88 0c 00 00    	sub    $0xc88,%rax
  40d80d:	f3 0f 10 00          	movss  (%rax),%xmm0
  40d811:	f3 0f 58 c1          	addss  %xmm1,%xmm0
  40d815:	f3 0f 11 85 68 f3 ff 	movss  %xmm0,-0xc98(%rbp)
  40d81c:	ff 
  40d81d:	f3 0f 10 8d 6c f3 ff 	movss  -0xc94(%rbp),%xmm1
  40d824:	ff 
  40d825:	8b 85 20 f3 ff ff    	mov    -0xce0(%rbp),%eax
  40d82b:	48 98                	cltq   
  40d82d:	48 c1 e0 04          	shl    $0x4,%rax
  40d831:	48 01 e8             	add    %rbp,%rax
  40d834:	48 2d 84 0c 00 00    	sub    $0xc84,%rax
  40d83a:	f3 0f 10 00          	movss  (%rax),%xmm0
  40d83e:	f3 0f 58 c1          	addss  %xmm1,%xmm0
  40d842:	f3 0f 11 85 6c f3 ff 	movss  %xmm0,-0xc94(%rbp)
  40d849:	ff 
  40d84a:	83 85 20 f3 ff ff 01 	addl   $0x1,-0xce0(%rbp)
  40d851:	f3 0f 10 8d 60 f3 ff 	movss  -0xca0(%rbp),%xmm1
  40d858:	ff 
  40d859:	8b 85 20 f3 ff ff    	mov    -0xce0(%rbp),%eax
  40d85f:	48 98                	cltq   
  40d861:	48 c1 e0 04          	shl    $0x4,%rax
  40d865:	48 01 e8             	add    %rbp,%rax
  40d868:	48 2d 90 0c 00 00    	sub    $0xc90,%rax
  40d86e:	f3 0f 10 00          	movss  (%rax),%xmm0
  40d872:	f3 0f 58 c1          	addss  %xmm1,%xmm0
  40d876:	f3 0f 11 85 60 f3 ff 	movss  %xmm0,-0xca0(%rbp)
  40d87d:	ff 
  40d87e:	f3 0f 10 8d 64 f3 ff 	movss  -0xc9c(%rbp),%xmm1
  40d885:	ff 
  40d886:	8b 85 20 f3 ff ff    	mov    -0xce0(%rbp),%eax
  40d88c:	48 98                	cltq   
  40d88e:	48 c1 e0 04          	shl    $0x4,%rax
  40d892:	48 01 e8             	add    %rbp,%rax
  40d895:	48 2d 8c 0c 00 00    	sub    $0xc8c,%rax
  40d89b:	f3 0f 10 00          	movss  (%rax),%xmm0
  40d89f:	f3 0f 58 c1          	addss  %xmm1,%xmm0
  40d8a3:	f3 0f 11 85 64 f3 ff 	movss  %xmm0,-0xc9c(%rbp)
  40d8aa:	ff 
  40d8ab:	f3 0f 10 8d 68 f3 ff 	movss  -0xc98(%rbp),%xmm1
  40d8b2:	ff 
  40d8b3:	8b 85 20 f3 ff ff    	mov    -0xce0(%rbp),%eax
  40d8b9:	48 98                	cltq   
  40d8bb:	48 c1 e0 04          	shl    $0x4,%rax
  40d8bf:	48 01 e8             	add    %rbp,%rax
  40d8c2:	48 2d 88 0c 00 00    	sub    $0xc88,%rax
  40d8c8:	f3 0f 10 00          	movss  (%rax),%xmm0
  40d8cc:	f3 0f 58 c1          	addss  %xmm1,%xmm0
  40d8d0:	f3 0f 11 85 68 f3 ff 	movss  %xmm0,-0xc98(%rbp)
  40d8d7:	ff 
  40d8d8:	f3 0f 10 8d 6c f3 ff 	movss  -0xc94(%rbp),%xmm1
  40d8df:	ff 
  40d8e0:	8b 85 20 f3 ff ff    	mov    -0xce0(%rbp),%eax
  40d8e6:	48 98                	cltq   
  40d8e8:	48 c1 e0 04          	shl    $0x4,%rax
  40d8ec:	48 01 e8             	add    %rbp,%rax
  40d8ef:	48 2d 84 0c 00 00    	sub    $0xc84,%rax
  40d8f5:	f3 0f 10 00          	movss  (%rax),%xmm0
  40d8f9:	f3 0f 58 c1          	addss  %xmm1,%xmm0
  40d8fd:	f3 0f 11 85 6c f3 ff 	movss  %xmm0,-0xc94(%rbp)
  40d904:	ff 
  40d905:	83 85 20 f3 ff ff 01 	addl   $0x1,-0xce0(%rbp)
  40d90c:	f3 0f 10 8d 60 f3 ff 	movss  -0xca0(%rbp),%xmm1
  40d913:	ff 
  40d914:	8b 85 20 f3 ff ff    	mov    -0xce0(%rbp),%eax
  40d91a:	48 98                	cltq   
  40d91c:	48 c1 e0 04          	shl    $0x4,%rax
  40d920:	48 01 e8             	add    %rbp,%rax
  40d923:	48 2d 90 0c 00 00    	sub    $0xc90,%rax
  40d929:	f3 0f 10 00          	movss  (%rax),%xmm0
  40d92d:	f3 0f 58 c1          	addss  %xmm1,%xmm0
  40d931:	f3 0f 11 85 60 f3 ff 	movss  %xmm0,-0xca0(%rbp)
  40d938:	ff 
  40d939:	f3 0f 10 8d 64 f3 ff 	movss  -0xc9c(%rbp),%xmm1
  40d940:	ff 
  40d941:	8b 85 20 f3 ff ff    	mov    -0xce0(%rbp),%eax
  40d947:	48 98                	cltq   
  40d949:	48 c1 e0 04          	shl    $0x4,%rax
  40d94d:	48 01 e8             	add    %rbp,%rax
  40d950:	48 2d 8c 0c 00 00    	sub    $0xc8c,%rax
  40d956:	f3 0f 10 00          	movss  (%rax),%xmm0
  40d95a:	f3 0f 58 c1          	addss  %xmm1,%xmm0
  40d95e:	f3 0f 11 85 64 f3 ff 	movss  %xmm0,-0xc9c(%rbp)
  40d965:	ff 
  40d966:	f3 0f 10 8d 68 f3 ff 	movss  -0xc98(%rbp),%xmm1
  40d96d:	ff 
  40d96e:	8b 85 20 f3 ff ff    	mov    -0xce0(%rbp),%eax
  40d974:	48 98                	cltq   
  40d976:	48 c1 e0 04          	shl    $0x4,%rax
  40d97a:	48 01 e8             	add    %rbp,%rax
  40d97d:	48 2d 88 0c 00 00    	sub    $0xc88,%rax
  40d983:	f3 0f 10 00          	movss  (%rax),%xmm0
  40d987:	f3 0f 58 c1          	addss  %xmm1,%xmm0
  40d98b:	f3 0f 11 85 68 f3 ff 	movss  %xmm0,-0xc98(%rbp)
  40d992:	ff 
  40d993:	f3 0f 10 8d 6c f3 ff 	movss  -0xc94(%rbp),%xmm1
  40d99a:	ff 
  40d99b:	8b 85 20 f3 ff ff    	mov    -0xce0(%rbp),%eax
  40d9a1:	48 98                	cltq   
  40d9a3:	48 c1 e0 04          	shl    $0x4,%rax
  40d9a7:	48 01 e8             	add    %rbp,%rax
  40d9aa:	48 2d 84 0c 00 00    	sub    $0xc84,%rax
  40d9b0:	f3 0f 10 00          	movss  (%rax),%xmm0
  40d9b4:	f3 0f 58 c1          	addss  %xmm1,%xmm0
  40d9b8:	f3 0f 11 85 6c f3 ff 	movss  %xmm0,-0xc94(%rbp)
  40d9bf:	ff 
  40d9c0:	83 85 20 f3 ff ff 01 	addl   $0x1,-0xce0(%rbp)
  40d9c7:	f3 0f 10 8d 60 f3 ff 	movss  -0xca0(%rbp),%xmm1
  40d9ce:	ff 
  40d9cf:	8b 85 20 f3 ff ff    	mov    -0xce0(%rbp),%eax
  40d9d5:	48 98                	cltq   
  40d9d7:	48 c1 e0 04          	shl    $0x4,%rax
  40d9db:	48 01 e8             	add    %rbp,%rax
  40d9de:	48 2d 90 0c 00 00    	sub    $0xc90,%rax
  40d9e4:	f3 0f 10 00          	movss  (%rax),%xmm0
  40d9e8:	f3 0f 58 c1          	addss  %xmm1,%xmm0
  40d9ec:	f3 0f 11 85 60 f3 ff 	movss  %xmm0,-0xca0(%rbp)
  40d9f3:	ff 
  40d9f4:	f3 0f 10 8d 64 f3 ff 	movss  -0xc9c(%rbp),%xmm1
  40d9fb:	ff 
  40d9fc:	8b 85 20 f3 ff ff    	mov    -0xce0(%rbp),%eax
  40da02:	48 98                	cltq   
  40da04:	48 c1 e0 04          	shl    $0x4,%rax
  40da08:	48 01 e8             	add    %rbp,%rax
  40da0b:	48 2d 8c 0c 00 00    	sub    $0xc8c,%rax
  40da11:	f3 0f 10 00          	movss  (%rax),%xmm0
  40da15:	f3 0f 58 c1          	addss  %xmm1,%xmm0
  40da19:	f3 0f 11 85 64 f3 ff 	movss  %xmm0,-0xc9c(%rbp)
  40da20:	ff 
  40da21:	f3 0f 10 8d 68 f3 ff 	movss  -0xc98(%rbp),%xmm1
  40da28:	ff 
  40da29:	8b 85 20 f3 ff ff    	mov    -0xce0(%rbp),%eax
  40da2f:	48 98                	cltq   
  40da31:	48 c1 e0 04          	shl    $0x4,%rax
  40da35:	48 01 e8             	add    %rbp,%rax
  40da38:	48 2d 88 0c 00 00    	sub    $0xc88,%rax
  40da3e:	f3 0f 10 00          	movss  (%rax),%xmm0
  40da42:	f3 0f 58 c1          	addss  %xmm1,%xmm0
  40da46:	f3 0f 11 85 68 f3 ff 	movss  %xmm0,-0xc98(%rbp)
  40da4d:	ff 
  40da4e:	f3 0f 10 8d 6c f3 ff 	movss  -0xc94(%rbp),%xmm1
  40da55:	ff 
  40da56:	8b 85 20 f3 ff ff    	mov    -0xce0(%rbp),%eax
  40da5c:	48 98                	cltq   
  40da5e:	48 c1 e0 04          	shl    $0x4,%rax
  40da62:	48 01 e8             	add    %rbp,%rax
  40da65:	48 2d 84 0c 00 00    	sub    $0xc84,%rax
  40da6b:	f3 0f 10 00          	movss  (%rax),%xmm0
  40da6f:	f3 0f 58 c1          	addss  %xmm1,%xmm0
  40da73:	f3 0f 11 85 6c f3 ff 	movss  %xmm0,-0xc94(%rbp)
  40da7a:	ff 
  40da7b:	83 85 20 f3 ff ff 01 	addl   $0x1,-0xce0(%rbp)
  40da82:	f3 0f 10 8d 60 f3 ff 	movss  -0xca0(%rbp),%xmm1
  40da89:	ff 
  40da8a:	8b 85 20 f3 ff ff    	mov    -0xce0(%rbp),%eax
  40da90:	48 98                	cltq   
  40da92:	48 c1 e0 04          	shl    $0x4,%rax
  40da96:	48 01 e8             	add    %rbp,%rax
  40da99:	48 2d 90 0c 00 00    	sub    $0xc90,%rax
  40da9f:	f3 0f 10 00          	movss  (%rax),%xmm0
  40daa3:	f3 0f 58 c1          	addss  %xmm1,%xmm0
  40daa7:	f3 0f 11 85 60 f3 ff 	movss  %xmm0,-0xca0(%rbp)
  40daae:	ff 
  40daaf:	f3 0f 10 8d 64 f3 ff 	movss  -0xc9c(%rbp),%xmm1
  40dab6:	ff 
  40dab7:	8b 85 20 f3 ff ff    	mov    -0xce0(%rbp),%eax
  40dabd:	48 98                	cltq   
  40dabf:	48 c1 e0 04          	shl    $0x4,%rax
  40dac3:	48 01 e8             	add    %rbp,%rax
  40dac6:	48 2d 8c 0c 00 00    	sub    $0xc8c,%rax
  40dacc:	f3 0f 10 00          	movss  (%rax),%xmm0
  40dad0:	f3 0f 58 c1          	addss  %xmm1,%xmm0
  40dad4:	f3 0f 11 85 64 f3 ff 	movss  %xmm0,-0xc9c(%rbp)
  40dadb:	ff 
  40dadc:	f3 0f 10 8d 68 f3 ff 	movss  -0xc98(%rbp),%xmm1
  40dae3:	ff 
  40dae4:	8b 85 20 f3 ff ff    	mov    -0xce0(%rbp),%eax
  40daea:	48 98                	cltq   
  40daec:	48 c1 e0 04          	shl    $0x4,%rax
  40daf0:	48 01 e8             	add    %rbp,%rax
  40daf3:	48 2d 88 0c 00 00    	sub    $0xc88,%rax
  40daf9:	f3 0f 10 00          	movss  (%rax),%xmm0
  40dafd:	f3 0f 58 c1          	addss  %xmm1,%xmm0
  40db01:	f3 0f 11 85 68 f3 ff 	movss  %xmm0,-0xc98(%rbp)
  40db08:	ff 
  40db09:	f3 0f 10 8d 6c f3 ff 	movss  -0xc94(%rbp),%xmm1
  40db10:	ff 
  40db11:	8b 85 20 f3 ff ff    	mov    -0xce0(%rbp),%eax
  40db17:	48 98                	cltq   
  40db19:	48 c1 e0 04          	shl    $0x4,%rax
  40db1d:	48 01 e8             	add    %rbp,%rax
  40db20:	48 2d 84 0c 00 00    	sub    $0xc84,%rax
  40db26:	f3 0f 10 00          	movss  (%rax),%xmm0
  40db2a:	f3 0f 58 c1          	addss  %xmm1,%xmm0
  40db2e:	f3 0f 11 85 6c f3 ff 	movss  %xmm0,-0xc94(%rbp)
  40db35:	ff 
  40db36:	83 85 20 f3 ff ff 01 	addl   $0x1,-0xce0(%rbp)
  40db3d:	f3 0f 10 8d 60 f3 ff 	movss  -0xca0(%rbp),%xmm1
  40db44:	ff 
  40db45:	8b 85 20 f3 ff ff    	mov    -0xce0(%rbp),%eax
  40db4b:	48 98                	cltq   
  40db4d:	48 c1 e0 04          	shl    $0x4,%rax
  40db51:	48 01 e8             	add    %rbp,%rax
  40db54:	48 2d 90 0c 00 00    	sub    $0xc90,%rax
  40db5a:	f3 0f 10 00          	movss  (%rax),%xmm0
  40db5e:	f3 0f 58 c1          	addss  %xmm1,%xmm0
  40db62:	f3 0f 11 85 60 f3 ff 	movss  %xmm0,-0xca0(%rbp)
  40db69:	ff 
  40db6a:	f3 0f 10 8d 64 f3 ff 	movss  -0xc9c(%rbp),%xmm1
  40db71:	ff 
  40db72:	8b 85 20 f3 ff ff    	mov    -0xce0(%rbp),%eax
  40db78:	48 98                	cltq   
  40db7a:	48 c1 e0 04          	shl    $0x4,%rax
  40db7e:	48 01 e8             	add    %rbp,%rax
  40db81:	48 2d 8c 0c 00 00    	sub    $0xc8c,%rax
  40db87:	f3 0f 10 00          	movss  (%rax),%xmm0
  40db8b:	f3 0f 58 c1          	addss  %xmm1,%xmm0
  40db8f:	f3 0f 11 85 64 f3 ff 	movss  %xmm0,-0xc9c(%rbp)
  40db96:	ff 
  40db97:	f3 0f 10 8d 68 f3 ff 	movss  -0xc98(%rbp),%xmm1
  40db9e:	ff 
  40db9f:	8b 85 20 f3 ff ff    	mov    -0xce0(%rbp),%eax
  40dba5:	48 98                	cltq   
  40dba7:	48 c1 e0 04          	shl    $0x4,%rax
  40dbab:	48 01 e8             	add    %rbp,%rax
  40dbae:	48 2d 88 0c 00 00    	sub    $0xc88,%rax
  40dbb4:	f3 0f 10 00          	movss  (%rax),%xmm0
  40dbb8:	f3 0f 58 c1          	addss  %xmm1,%xmm0
  40dbbc:	f3 0f 11 85 68 f3 ff 	movss  %xmm0,-0xc98(%rbp)
  40dbc3:	ff 
  40dbc4:	f3 0f 10 8d 6c f3 ff 	movss  -0xc94(%rbp),%xmm1
  40dbcb:	ff 
  40dbcc:	8b 85 20 f3 ff ff    	mov    -0xce0(%rbp),%eax
  40dbd2:	48 98                	cltq   
  40dbd4:	48 c1 e0 04          	shl    $0x4,%rax
  40dbd8:	48 01 e8             	add    %rbp,%rax
  40dbdb:	48 2d 84 0c 00 00    	sub    $0xc84,%rax
  40dbe1:	f3 0f 10 00          	movss  (%rax),%xmm0
  40dbe5:	f3 0f 58 c1          	addss  %xmm1,%xmm0
  40dbe9:	f3 0f 11 85 6c f3 ff 	movss  %xmm0,-0xc94(%rbp)
  40dbf0:	ff 
  40dbf1:	83 85 20 f3 ff ff 01 	addl   $0x1,-0xce0(%rbp)
  40dbf8:	f3 0f 10 8d 60 f3 ff 	movss  -0xca0(%rbp),%xmm1
  40dbff:	ff 
  40dc00:	8b 85 20 f3 ff ff    	mov    -0xce0(%rbp),%eax
  40dc06:	48 98                	cltq   
  40dc08:	48 c1 e0 04          	shl    $0x4,%rax
  40dc0c:	48 01 e8             	add    %rbp,%rax
  40dc0f:	48 2d 90 0c 00 00    	sub    $0xc90,%rax
  40dc15:	f3 0f 10 00          	movss  (%rax),%xmm0
  40dc19:	f3 0f 58 c1          	addss  %xmm1,%xmm0
  40dc1d:	f3 0f 11 85 60 f3 ff 	movss  %xmm0,-0xca0(%rbp)
  40dc24:	ff 
  40dc25:	f3 0f 10 8d 64 f3 ff 	movss  -0xc9c(%rbp),%xmm1
  40dc2c:	ff 
  40dc2d:	8b 85 20 f3 ff ff    	mov    -0xce0(%rbp),%eax
  40dc33:	48 98                	cltq   
  40dc35:	48 c1 e0 04          	shl    $0x4,%rax
  40dc39:	48 01 e8             	add    %rbp,%rax
  40dc3c:	48 2d 8c 0c 00 00    	sub    $0xc8c,%rax
  40dc42:	f3 0f 10 00          	movss  (%rax),%xmm0
  40dc46:	f3 0f 58 c1          	addss  %xmm1,%xmm0
  40dc4a:	f3 0f 11 85 64 f3 ff 	movss  %xmm0,-0xc9c(%rbp)
  40dc51:	ff 
  40dc52:	f3 0f 10 8d 68 f3 ff 	movss  -0xc98(%rbp),%xmm1
  40dc59:	ff 
  40dc5a:	8b 85 20 f3 ff ff    	mov    -0xce0(%rbp),%eax
  40dc60:	48 98                	cltq   
  40dc62:	48 c1 e0 04          	shl    $0x4,%rax
  40dc66:	48 01 e8             	add    %rbp,%rax
  40dc69:	48 2d 88 0c 00 00    	sub    $0xc88,%rax
  40dc6f:	f3 0f 10 00          	movss  (%rax),%xmm0
  40dc73:	f3 0f 58 c1          	addss  %xmm1,%xmm0
  40dc77:	f3 0f 11 85 68 f3 ff 	movss  %xmm0,-0xc98(%rbp)
  40dc7e:	ff 
  40dc7f:	f3 0f 10 8d 6c f3 ff 	movss  -0xc94(%rbp),%xmm1
  40dc86:	ff 
  40dc87:	8b 85 20 f3 ff ff    	mov    -0xce0(%rbp),%eax
  40dc8d:	48 98                	cltq   
  40dc8f:	48 c1 e0 04          	shl    $0x4,%rax
  40dc93:	48 01 e8             	add    %rbp,%rax
  40dc96:	48 2d 84 0c 00 00    	sub    $0xc84,%rax
  40dc9c:	f3 0f 10 00          	movss  (%rax),%xmm0
  40dca0:	f3 0f 58 c1          	addss  %xmm1,%xmm0
  40dca4:	f3 0f 11 85 6c f3 ff 	movss  %xmm0,-0xc94(%rbp)
  40dcab:	ff 
  40dcac:	83 85 20 f3 ff ff 01 	addl   $0x1,-0xce0(%rbp)
  40dcb3:	f3 0f 10 8d 60 f3 ff 	movss  -0xca0(%rbp),%xmm1
  40dcba:	ff 
  40dcbb:	8b 85 20 f3 ff ff    	mov    -0xce0(%rbp),%eax
  40dcc1:	48 98                	cltq   
  40dcc3:	48 c1 e0 04          	shl    $0x4,%rax
  40dcc7:	48 01 e8             	add    %rbp,%rax
  40dcca:	48 2d 90 0c 00 00    	sub    $0xc90,%rax
  40dcd0:	f3 0f 10 00          	movss  (%rax),%xmm0
  40dcd4:	f3 0f 58 c1          	addss  %xmm1,%xmm0
  40dcd8:	f3 0f 11 85 60 f3 ff 	movss  %xmm0,-0xca0(%rbp)
  40dcdf:	ff 
  40dce0:	f3 0f 10 8d 64 f3 ff 	movss  -0xc9c(%rbp),%xmm1
  40dce7:	ff 
  40dce8:	8b 85 20 f3 ff ff    	mov    -0xce0(%rbp),%eax
  40dcee:	48 98                	cltq   
  40dcf0:	48 c1 e0 04          	shl    $0x4,%rax
  40dcf4:	48 01 e8             	add    %rbp,%rax
  40dcf7:	48 2d 8c 0c 00 00    	sub    $0xc8c,%rax
  40dcfd:	f3 0f 10 00          	movss  (%rax),%xmm0
  40dd01:	f3 0f 58 c1          	addss  %xmm1,%xmm0
  40dd05:	f3 0f 11 85 64 f3 ff 	movss  %xmm0,-0xc9c(%rbp)
  40dd0c:	ff 
  40dd0d:	f3 0f 10 8d 68 f3 ff 	movss  -0xc98(%rbp),%xmm1
  40dd14:	ff 
  40dd15:	8b 85 20 f3 ff ff    	mov    -0xce0(%rbp),%eax
  40dd1b:	48 98                	cltq   
  40dd1d:	48 c1 e0 04          	shl    $0x4,%rax
  40dd21:	48 01 e8             	add    %rbp,%rax
  40dd24:	48 2d 88 0c 00 00    	sub    $0xc88,%rax
  40dd2a:	f3 0f 10 00          	movss  (%rax),%xmm0
  40dd2e:	f3 0f 58 c1          	addss  %xmm1,%xmm0
  40dd32:	f3 0f 11 85 68 f3 ff 	movss  %xmm0,-0xc98(%rbp)
  40dd39:	ff 
  40dd3a:	f3 0f 10 8d 6c f3 ff 	movss  -0xc94(%rbp),%xmm1
  40dd41:	ff 
  40dd42:	8b 85 20 f3 ff ff    	mov    -0xce0(%rbp),%eax
  40dd48:	48 98                	cltq   
  40dd4a:	48 c1 e0 04          	shl    $0x4,%rax
  40dd4e:	48 01 e8             	add    %rbp,%rax
  40dd51:	48 2d 84 0c 00 00    	sub    $0xc84,%rax
  40dd57:	f3 0f 10 00          	movss  (%rax),%xmm0
  40dd5b:	f3 0f 58 c1          	addss  %xmm1,%xmm0
  40dd5f:	f3 0f 11 85 6c f3 ff 	movss  %xmm0,-0xc94(%rbp)
  40dd66:	ff 
  40dd67:	83 85 20 f3 ff ff 01 	addl   $0x1,-0xce0(%rbp)
  40dd6e:	f3 0f 10 8d 60 f3 ff 	movss  -0xca0(%rbp),%xmm1
  40dd75:	ff 
  40dd76:	8b 85 20 f3 ff ff    	mov    -0xce0(%rbp),%eax
  40dd7c:	48 98                	cltq   
  40dd7e:	48 c1 e0 04          	shl    $0x4,%rax
  40dd82:	48 01 e8             	add    %rbp,%rax
  40dd85:	48 2d 90 0c 00 00    	sub    $0xc90,%rax
  40dd8b:	f3 0f 10 00          	movss  (%rax),%xmm0
  40dd8f:	f3 0f 58 c1          	addss  %xmm1,%xmm0
  40dd93:	f3 0f 11 85 60 f3 ff 	movss  %xmm0,-0xca0(%rbp)
  40dd9a:	ff 
  40dd9b:	f3 0f 10 8d 64 f3 ff 	movss  -0xc9c(%rbp),%xmm1
  40dda2:	ff 
  40dda3:	8b 85 20 f3 ff ff    	mov    -0xce0(%rbp),%eax
  40dda9:	48 98                	cltq   
  40ddab:	48 c1 e0 04          	shl    $0x4,%rax
  40ddaf:	48 01 e8             	add    %rbp,%rax
  40ddb2:	48 2d 8c 0c 00 00    	sub    $0xc8c,%rax
  40ddb8:	f3 0f 10 00          	movss  (%rax),%xmm0
  40ddbc:	f3 0f 58 c1          	addss  %xmm1,%xmm0
  40ddc0:	f3 0f 11 85 64 f3 ff 	movss  %xmm0,-0xc9c(%rbp)
  40ddc7:	ff 
  40ddc8:	f3 0f 10 8d 68 f3 ff 	movss  -0xc98(%rbp),%xmm1
  40ddcf:	ff 
  40ddd0:	8b 85 20 f3 ff ff    	mov    -0xce0(%rbp),%eax
  40ddd6:	48 98                	cltq   
  40ddd8:	48 c1 e0 04          	shl    $0x4,%rax
  40dddc:	48 01 e8             	add    %rbp,%rax
  40dddf:	48 2d 88 0c 00 00    	sub    $0xc88,%rax
  40dde5:	f3 0f 10 00          	movss  (%rax),%xmm0
  40dde9:	f3 0f 58 c1          	addss  %xmm1,%xmm0
  40dded:	f3 0f 11 85 68 f3 ff 	movss  %xmm0,-0xc98(%rbp)
  40ddf4:	ff 
  40ddf5:	f3 0f 10 8d 6c f3 ff 	movss  -0xc94(%rbp),%xmm1
  40ddfc:	ff 
  40ddfd:	8b 85 20 f3 ff ff    	mov    -0xce0(%rbp),%eax
  40de03:	48 98                	cltq   
  40de05:	48 c1 e0 04          	shl    $0x4,%rax
  40de09:	48 01 e8             	add    %rbp,%rax
  40de0c:	48 2d 84 0c 00 00    	sub    $0xc84,%rax
  40de12:	f3 0f 10 00          	movss  (%rax),%xmm0
  40de16:	f3 0f 58 c1          	addss  %xmm1,%xmm0
  40de1a:	f3 0f 11 85 6c f3 ff 	movss  %xmm0,-0xc94(%rbp)
  40de21:	ff 
  40de22:	83 85 20 f3 ff ff 01 	addl   $0x1,-0xce0(%rbp)
  40de29:	f3 0f 10 8d 60 f3 ff 	movss  -0xca0(%rbp),%xmm1
  40de30:	ff 
  40de31:	8b 85 20 f3 ff ff    	mov    -0xce0(%rbp),%eax
  40de37:	48 98                	cltq   
  40de39:	48 c1 e0 04          	shl    $0x4,%rax
  40de3d:	48 01 e8             	add    %rbp,%rax
  40de40:	48 2d 90 0c 00 00    	sub    $0xc90,%rax
  40de46:	f3 0f 10 00          	movss  (%rax),%xmm0
  40de4a:	f3 0f 58 c1          	addss  %xmm1,%xmm0
  40de4e:	f3 0f 11 85 60 f3 ff 	movss  %xmm0,-0xca0(%rbp)
  40de55:	ff 
  40de56:	f3 0f 10 8d 64 f3 ff 	movss  -0xc9c(%rbp),%xmm1
  40de5d:	ff 
  40de5e:	8b 85 20 f3 ff ff    	mov    -0xce0(%rbp),%eax
  40de64:	48 98                	cltq   
  40de66:	48 c1 e0 04          	shl    $0x4,%rax
  40de6a:	48 01 e8             	add    %rbp,%rax
  40de6d:	48 2d 8c 0c 00 00    	sub    $0xc8c,%rax
  40de73:	f3 0f 10 00          	movss  (%rax),%xmm0
  40de77:	f3 0f 58 c1          	addss  %xmm1,%xmm0
  40de7b:	f3 0f 11 85 64 f3 ff 	movss  %xmm0,-0xc9c(%rbp)
  40de82:	ff 
  40de83:	f3 0f 10 8d 68 f3 ff 	movss  -0xc98(%rbp),%xmm1
  40de8a:	ff 
  40de8b:	8b 85 20 f3 ff ff    	mov    -0xce0(%rbp),%eax
  40de91:	48 98                	cltq   
  40de93:	48 c1 e0 04          	shl    $0x4,%rax
  40de97:	48 01 e8             	add    %rbp,%rax
  40de9a:	48 2d 88 0c 00 00    	sub    $0xc88,%rax
  40dea0:	f3 0f 10 00          	movss  (%rax),%xmm0
  40dea4:	f3 0f 58 c1          	addss  %xmm1,%xmm0
  40dea8:	f3 0f 11 85 68 f3 ff 	movss  %xmm0,-0xc98(%rbp)
  40deaf:	ff 
  40deb0:	f3 0f 10 8d 6c f3 ff 	movss  -0xc94(%rbp),%xmm1
  40deb7:	ff 
  40deb8:	8b 85 20 f3 ff ff    	mov    -0xce0(%rbp),%eax
  40debe:	48 98                	cltq   
  40dec0:	48 c1 e0 04          	shl    $0x4,%rax
  40dec4:	48 01 e8             	add    %rbp,%rax
  40dec7:	48 2d 84 0c 00 00    	sub    $0xc84,%rax
  40decd:	f3 0f 10 00          	movss  (%rax),%xmm0
  40ded1:	f3 0f 58 c1          	addss  %xmm1,%xmm0
  40ded5:	f3 0f 11 85 6c f3 ff 	movss  %xmm0,-0xc94(%rbp)
  40dedc:	ff 
  40dedd:	83 85 20 f3 ff ff 01 	addl   $0x1,-0xce0(%rbp)
  40dee4:	f3 0f 10 8d 60 f3 ff 	movss  -0xca0(%rbp),%xmm1
  40deeb:	ff 
  40deec:	8b 85 20 f3 ff ff    	mov    -0xce0(%rbp),%eax
  40def2:	48 98                	cltq   
  40def4:	48 c1 e0 04          	shl    $0x4,%rax
  40def8:	48 01 e8             	add    %rbp,%rax
  40defb:	48 2d 90 0c 00 00    	sub    $0xc90,%rax
  40df01:	f3 0f 10 00          	movss  (%rax),%xmm0
  40df05:	f3 0f 58 c1          	addss  %xmm1,%xmm0
  40df09:	f3 0f 11 85 60 f3 ff 	movss  %xmm0,-0xca0(%rbp)
  40df10:	ff 
  40df11:	f3 0f 10 8d 64 f3 ff 	movss  -0xc9c(%rbp),%xmm1
  40df18:	ff 
  40df19:	8b 85 20 f3 ff ff    	mov    -0xce0(%rbp),%eax
  40df1f:	48 98                	cltq   
  40df21:	48 c1 e0 04          	shl    $0x4,%rax
  40df25:	48 01 e8             	add    %rbp,%rax
  40df28:	48 2d 8c 0c 00 00    	sub    $0xc8c,%rax
  40df2e:	f3 0f 10 00          	movss  (%rax),%xmm0
  40df32:	f3 0f 58 c1          	addss  %xmm1,%xmm0
  40df36:	f3 0f 11 85 64 f3 ff 	movss  %xmm0,-0xc9c(%rbp)
  40df3d:	ff 
  40df3e:	f3 0f 10 8d 68 f3 ff 	movss  -0xc98(%rbp),%xmm1
  40df45:	ff 
  40df46:	8b 85 20 f3 ff ff    	mov    -0xce0(%rbp),%eax
  40df4c:	48 98                	cltq   
  40df4e:	48 c1 e0 04          	shl    $0x4,%rax
  40df52:	48 01 e8             	add    %rbp,%rax
  40df55:	48 2d 88 0c 00 00    	sub    $0xc88,%rax
  40df5b:	f3 0f 10 00          	movss  (%rax),%xmm0
  40df5f:	f3 0f 58 c1          	addss  %xmm1,%xmm0
  40df63:	f3 0f 11 85 68 f3 ff 	movss  %xmm0,-0xc98(%rbp)
  40df6a:	ff 
  40df6b:	f3 0f 10 8d 6c f3 ff 	movss  -0xc94(%rbp),%xmm1
  40df72:	ff 
  40df73:	8b 85 20 f3 ff ff    	mov    -0xce0(%rbp),%eax
  40df79:	48 98                	cltq   
  40df7b:	48 c1 e0 04          	shl    $0x4,%rax
  40df7f:	48 01 e8             	add    %rbp,%rax
  40df82:	48 2d 84 0c 00 00    	sub    $0xc84,%rax
  40df88:	f3 0f 10 00          	movss  (%rax),%xmm0
  40df8c:	f3 0f 58 c1          	addss  %xmm1,%xmm0
  40df90:	f3 0f 11 85 6c f3 ff 	movss  %xmm0,-0xc94(%rbp)
  40df97:	ff 
  40df98:	83 85 20 f3 ff ff 01 	addl   $0x1,-0xce0(%rbp)
  40df9f:	f3 0f 10 8d 60 f3 ff 	movss  -0xca0(%rbp),%xmm1
  40dfa6:	ff 
  40dfa7:	8b 85 20 f3 ff ff    	mov    -0xce0(%rbp),%eax
  40dfad:	48 98                	cltq   
  40dfaf:	48 c1 e0 04          	shl    $0x4,%rax
  40dfb3:	48 01 e8             	add    %rbp,%rax
  40dfb6:	48 2d 90 0c 00 00    	sub    $0xc90,%rax
  40dfbc:	f3 0f 10 00          	movss  (%rax),%xmm0
  40dfc0:	f3 0f 58 c1          	addss  %xmm1,%xmm0
  40dfc4:	f3 0f 11 85 60 f3 ff 	movss  %xmm0,-0xca0(%rbp)
  40dfcb:	ff 
  40dfcc:	f3 0f 10 8d 64 f3 ff 	movss  -0xc9c(%rbp),%xmm1
  40dfd3:	ff 
  40dfd4:	8b 85 20 f3 ff ff    	mov    -0xce0(%rbp),%eax
  40dfda:	48 98                	cltq   
  40dfdc:	48 c1 e0 04          	shl    $0x4,%rax
  40dfe0:	48 01 e8             	add    %rbp,%rax
  40dfe3:	48 2d 8c 0c 00 00    	sub    $0xc8c,%rax
  40dfe9:	f3 0f 10 00          	movss  (%rax),%xmm0
  40dfed:	f3 0f 58 c1          	addss  %xmm1,%xmm0
  40dff1:	f3 0f 11 85 64 f3 ff 	movss  %xmm0,-0xc9c(%rbp)
  40dff8:	ff 
  40dff9:	f3 0f 10 8d 68 f3 ff 	movss  -0xc98(%rbp),%xmm1
  40e000:	ff 
  40e001:	8b 85 20 f3 ff ff    	mov    -0xce0(%rbp),%eax
  40e007:	48 98                	cltq   
  40e009:	48 c1 e0 04          	shl    $0x4,%rax
  40e00d:	48 01 e8             	add    %rbp,%rax
  40e010:	48 2d 88 0c 00 00    	sub    $0xc88,%rax
  40e016:	f3 0f 10 00          	movss  (%rax),%xmm0
  40e01a:	f3 0f 58 c1          	addss  %xmm1,%xmm0
  40e01e:	f3 0f 11 85 68 f3 ff 	movss  %xmm0,-0xc98(%rbp)
  40e025:	ff 
  40e026:	f3 0f 10 8d 6c f3 ff 	movss  -0xc94(%rbp),%xmm1
  40e02d:	ff 
  40e02e:	8b 85 20 f3 ff ff    	mov    -0xce0(%rbp),%eax
  40e034:	48 98                	cltq   
  40e036:	48 c1 e0 04          	shl    $0x4,%rax
  40e03a:	48 01 e8             	add    %rbp,%rax
  40e03d:	48 2d 84 0c 00 00    	sub    $0xc84,%rax
  40e043:	f3 0f 10 00          	movss  (%rax),%xmm0
  40e047:	f3 0f 58 c1          	addss  %xmm1,%xmm0
  40e04b:	f3 0f 11 85 6c f3 ff 	movss  %xmm0,-0xc94(%rbp)
  40e052:	ff 
  40e053:	83 85 20 f3 ff ff 01 	addl   $0x1,-0xce0(%rbp)
  40e05a:	f3 0f 10 8d 60 f3 ff 	movss  -0xca0(%rbp),%xmm1
  40e061:	ff 
  40e062:	8b 85 20 f3 ff ff    	mov    -0xce0(%rbp),%eax
  40e068:	48 98                	cltq   
  40e06a:	48 c1 e0 04          	shl    $0x4,%rax
  40e06e:	48 01 e8             	add    %rbp,%rax
  40e071:	48 2d 90 0c 00 00    	sub    $0xc90,%rax
  40e077:	f3 0f 10 00          	movss  (%rax),%xmm0
  40e07b:	f3 0f 58 c1          	addss  %xmm1,%xmm0
  40e07f:	f3 0f 11 85 60 f3 ff 	movss  %xmm0,-0xca0(%rbp)
  40e086:	ff 
  40e087:	f3 0f 10 8d 64 f3 ff 	movss  -0xc9c(%rbp),%xmm1
  40e08e:	ff 
  40e08f:	8b 85 20 f3 ff ff    	mov    -0xce0(%rbp),%eax
  40e095:	48 98                	cltq   
  40e097:	48 c1 e0 04          	shl    $0x4,%rax
  40e09b:	48 01 e8             	add    %rbp,%rax
  40e09e:	48 2d 8c 0c 00 00    	sub    $0xc8c,%rax
  40e0a4:	f3 0f 10 00          	movss  (%rax),%xmm0
  40e0a8:	f3 0f 58 c1          	addss  %xmm1,%xmm0
  40e0ac:	f3 0f 11 85 64 f3 ff 	movss  %xmm0,-0xc9c(%rbp)
  40e0b3:	ff 
  40e0b4:	f3 0f 10 8d 68 f3 ff 	movss  -0xc98(%rbp),%xmm1
  40e0bb:	ff 
  40e0bc:	8b 85 20 f3 ff ff    	mov    -0xce0(%rbp),%eax
  40e0c2:	48 98                	cltq   
  40e0c4:	48 c1 e0 04          	shl    $0x4,%rax
  40e0c8:	48 01 e8             	add    %rbp,%rax
  40e0cb:	48 2d 88 0c 00 00    	sub    $0xc88,%rax
  40e0d1:	f3 0f 10 00          	movss  (%rax),%xmm0
  40e0d5:	f3 0f 58 c1          	addss  %xmm1,%xmm0
  40e0d9:	f3 0f 11 85 68 f3 ff 	movss  %xmm0,-0xc98(%rbp)
  40e0e0:	ff 
  40e0e1:	f3 0f 10 8d 6c f3 ff 	movss  -0xc94(%rbp),%xmm1
  40e0e8:	ff 
  40e0e9:	8b 85 20 f3 ff ff    	mov    -0xce0(%rbp),%eax
  40e0ef:	48 98                	cltq   
  40e0f1:	48 c1 e0 04          	shl    $0x4,%rax
  40e0f5:	48 01 e8             	add    %rbp,%rax
  40e0f8:	48 2d 84 0c 00 00    	sub    $0xc84,%rax
  40e0fe:	f3 0f 10 00          	movss  (%rax),%xmm0
  40e102:	f3 0f 58 c1          	addss  %xmm1,%xmm0
  40e106:	f3 0f 11 85 6c f3 ff 	movss  %xmm0,-0xc94(%rbp)
  40e10d:	ff 
  40e10e:	83 85 20 f3 ff ff 01 	addl   $0x1,-0xce0(%rbp)
  40e115:	f3 0f 10 8d 60 f3 ff 	movss  -0xca0(%rbp),%xmm1
  40e11c:	ff 
  40e11d:	8b 85 20 f3 ff ff    	mov    -0xce0(%rbp),%eax
  40e123:	48 98                	cltq   
  40e125:	48 c1 e0 04          	shl    $0x4,%rax
  40e129:	48 01 e8             	add    %rbp,%rax
  40e12c:	48 2d 90 0c 00 00    	sub    $0xc90,%rax
  40e132:	f3 0f 10 00          	movss  (%rax),%xmm0
  40e136:	f3 0f 58 c1          	addss  %xmm1,%xmm0
  40e13a:	f3 0f 11 85 60 f3 ff 	movss  %xmm0,-0xca0(%rbp)
  40e141:	ff 
  40e142:	f3 0f 10 8d 64 f3 ff 	movss  -0xc9c(%rbp),%xmm1
  40e149:	ff 
  40e14a:	8b 85 20 f3 ff ff    	mov    -0xce0(%rbp),%eax
  40e150:	48 98                	cltq   
  40e152:	48 c1 e0 04          	shl    $0x4,%rax
  40e156:	48 01 e8             	add    %rbp,%rax
  40e159:	48 2d 8c 0c 00 00    	sub    $0xc8c,%rax
  40e15f:	f3 0f 10 00          	movss  (%rax),%xmm0
  40e163:	f3 0f 58 c1          	addss  %xmm1,%xmm0
  40e167:	f3 0f 11 85 64 f3 ff 	movss  %xmm0,-0xc9c(%rbp)
  40e16e:	ff 
  40e16f:	f3 0f 10 8d 68 f3 ff 	movss  -0xc98(%rbp),%xmm1
  40e176:	ff 
  40e177:	8b 85 20 f3 ff ff    	mov    -0xce0(%rbp),%eax
  40e17d:	48 98                	cltq   
  40e17f:	48 c1 e0 04          	shl    $0x4,%rax
  40e183:	48 01 e8             	add    %rbp,%rax
  40e186:	48 2d 88 0c 00 00    	sub    $0xc88,%rax
  40e18c:	f3 0f 10 00          	movss  (%rax),%xmm0
  40e190:	f3 0f 58 c1          	addss  %xmm1,%xmm0
  40e194:	f3 0f 11 85 68 f3 ff 	movss  %xmm0,-0xc98(%rbp)
  40e19b:	ff 
  40e19c:	f3 0f 10 8d 6c f3 ff 	movss  -0xc94(%rbp),%xmm1
  40e1a3:	ff 
  40e1a4:	8b 85 20 f3 ff ff    	mov    -0xce0(%rbp),%eax
  40e1aa:	48 98                	cltq   
  40e1ac:	48 c1 e0 04          	shl    $0x4,%rax
  40e1b0:	48 01 e8             	add    %rbp,%rax
  40e1b3:	48 2d 84 0c 00 00    	sub    $0xc84,%rax
  40e1b9:	f3 0f 10 00          	movss  (%rax),%xmm0
  40e1bd:	f3 0f 58 c1          	addss  %xmm1,%xmm0
  40e1c1:	f3 0f 11 85 6c f3 ff 	movss  %xmm0,-0xc94(%rbp)
  40e1c8:	ff 
  40e1c9:	83 85 20 f3 ff ff 01 	addl   $0x1,-0xce0(%rbp)
  40e1d0:	f3 0f 10 8d 60 f3 ff 	movss  -0xca0(%rbp),%xmm1
  40e1d7:	ff 
  40e1d8:	8b 85 20 f3 ff ff    	mov    -0xce0(%rbp),%eax
  40e1de:	48 98                	cltq   
  40e1e0:	48 c1 e0 04          	shl    $0x4,%rax
  40e1e4:	48 01 e8             	add    %rbp,%rax
  40e1e7:	48 2d 90 0c 00 00    	sub    $0xc90,%rax
  40e1ed:	f3 0f 10 00          	movss  (%rax),%xmm0
  40e1f1:	f3 0f 58 c1          	addss  %xmm1,%xmm0
  40e1f5:	f3 0f 11 85 60 f3 ff 	movss  %xmm0,-0xca0(%rbp)
  40e1fc:	ff 
  40e1fd:	f3 0f 10 8d 64 f3 ff 	movss  -0xc9c(%rbp),%xmm1
  40e204:	ff 
  40e205:	8b 85 20 f3 ff ff    	mov    -0xce0(%rbp),%eax
  40e20b:	48 98                	cltq   
  40e20d:	48 c1 e0 04          	shl    $0x4,%rax
  40e211:	48 01 e8             	add    %rbp,%rax
  40e214:	48 2d 8c 0c 00 00    	sub    $0xc8c,%rax
  40e21a:	f3 0f 10 00          	movss  (%rax),%xmm0
  40e21e:	f3 0f 58 c1          	addss  %xmm1,%xmm0
  40e222:	f3 0f 11 85 64 f3 ff 	movss  %xmm0,-0xc9c(%rbp)
  40e229:	ff 
  40e22a:	f3 0f 10 8d 68 f3 ff 	movss  -0xc98(%rbp),%xmm1
  40e231:	ff 
  40e232:	8b 85 20 f3 ff ff    	mov    -0xce0(%rbp),%eax
  40e238:	48 98                	cltq   
  40e23a:	48 c1 e0 04          	shl    $0x4,%rax
  40e23e:	48 01 e8             	add    %rbp,%rax
  40e241:	48 2d 88 0c 00 00    	sub    $0xc88,%rax
  40e247:	f3 0f 10 00          	movss  (%rax),%xmm0
  40e24b:	f3 0f 58 c1          	addss  %xmm1,%xmm0
  40e24f:	f3 0f 11 85 68 f3 ff 	movss  %xmm0,-0xc98(%rbp)
  40e256:	ff 
  40e257:	f3 0f 10 8d 6c f3 ff 	movss  -0xc94(%rbp),%xmm1
  40e25e:	ff 
  40e25f:	8b 85 20 f3 ff ff    	mov    -0xce0(%rbp),%eax
  40e265:	48 98                	cltq   
  40e267:	48 c1 e0 04          	shl    $0x4,%rax
  40e26b:	48 01 e8             	add    %rbp,%rax
  40e26e:	48 2d 84 0c 00 00    	sub    $0xc84,%rax
  40e274:	f3 0f 10 00          	movss  (%rax),%xmm0
  40e278:	f3 0f 58 c1          	addss  %xmm1,%xmm0
  40e27c:	f3 0f 11 85 6c f3 ff 	movss  %xmm0,-0xc94(%rbp)
  40e283:	ff 
  40e284:	83 85 20 f3 ff ff 01 	addl   $0x1,-0xce0(%rbp)
  40e28b:	c7 85 20 f3 ff ff 00 	movl   $0x0,-0xce0(%rbp)
  40e292:	00 00 00 
  40e295:	c7 85 38 f3 ff ff 00 	movl   $0x0,-0xcc8(%rbp)
  40e29c:	00 00 00 
  40e29f:	f3 0f 10 8d 60 f3 ff 	movss  -0xca0(%rbp),%xmm1
  40e2a6:	ff 
  40e2a7:	8b 85 20 f3 ff ff    	mov    -0xce0(%rbp),%eax
  40e2ad:	48 98                	cltq   
  40e2af:	48 c1 e0 04          	shl    $0x4,%rax
  40e2b3:	48 01 e8             	add    %rbp,%rax
  40e2b6:	48 2d 90 0c 00 00    	sub    $0xc90,%rax
  40e2bc:	f3 0f 10 00          	movss  (%rax),%xmm0
  40e2c0:	f3 0f 58 c1          	addss  %xmm1,%xmm0
  40e2c4:	f3 0f 11 85 60 f3 ff 	movss  %xmm0,-0xca0(%rbp)
  40e2cb:	ff 
  40e2cc:	f3 0f 10 8d 64 f3 ff 	movss  -0xc9c(%rbp),%xmm1
  40e2d3:	ff 
  40e2d4:	8b 85 20 f3 ff ff    	mov    -0xce0(%rbp),%eax
  40e2da:	48 98                	cltq   
  40e2dc:	48 c1 e0 04          	shl    $0x4,%rax
  40e2e0:	48 01 e8             	add    %rbp,%rax
  40e2e3:	48 2d 8c 0c 00 00    	sub    $0xc8c,%rax
  40e2e9:	f3 0f 10 00          	movss  (%rax),%xmm0
  40e2ed:	f3 0f 58 c1          	addss  %xmm1,%xmm0
  40e2f1:	f3 0f 11 85 64 f3 ff 	movss  %xmm0,-0xc9c(%rbp)
  40e2f8:	ff 
  40e2f9:	f3 0f 10 8d 68 f3 ff 	movss  -0xc98(%rbp),%xmm1
  40e300:	ff 
  40e301:	8b 85 20 f3 ff ff    	mov    -0xce0(%rbp),%eax
  40e307:	48 98                	cltq   
  40e309:	48 c1 e0 04          	shl    $0x4,%rax
  40e30d:	48 01 e8             	add    %rbp,%rax
  40e310:	48 2d 88 0c 00 00    	sub    $0xc88,%rax
  40e316:	f3 0f 10 00          	movss  (%rax),%xmm0
  40e31a:	f3 0f 58 c1          	addss  %xmm1,%xmm0
  40e31e:	f3 0f 11 85 68 f3 ff 	movss  %xmm0,-0xc98(%rbp)
  40e325:	ff 
  40e326:	f3 0f 10 8d 6c f3 ff 	movss  -0xc94(%rbp),%xmm1
  40e32d:	ff 
  40e32e:	8b 85 20 f3 ff ff    	mov    -0xce0(%rbp),%eax
  40e334:	48 98                	cltq   
  40e336:	48 c1 e0 04          	shl    $0x4,%rax
  40e33a:	48 01 e8             	add    %rbp,%rax
  40e33d:	48 2d 84 0c 00 00    	sub    $0xc84,%rax
  40e343:	f3 0f 10 00          	movss  (%rax),%xmm0
  40e347:	f3 0f 58 c1          	addss  %xmm1,%xmm0
  40e34b:	f3 0f 11 85 6c f3 ff 	movss  %xmm0,-0xc94(%rbp)
  40e352:	ff 
  40e353:	83 85 20 f3 ff ff 01 	addl   $0x1,-0xce0(%rbp)
  40e35a:	f3 0f 10 8d 60 f3 ff 	movss  -0xca0(%rbp),%xmm1
  40e361:	ff 
  40e362:	8b 85 20 f3 ff ff    	mov    -0xce0(%rbp),%eax
  40e368:	48 98                	cltq   
  40e36a:	48 c1 e0 04          	shl    $0x4,%rax
  40e36e:	48 01 e8             	add    %rbp,%rax
  40e371:	48 2d 90 0c 00 00    	sub    $0xc90,%rax
  40e377:	f3 0f 10 00          	movss  (%rax),%xmm0
  40e37b:	f3 0f 58 c1          	addss  %xmm1,%xmm0
  40e37f:	f3 0f 11 85 60 f3 ff 	movss  %xmm0,-0xca0(%rbp)
  40e386:	ff 
  40e387:	f3 0f 10 8d 64 f3 ff 	movss  -0xc9c(%rbp),%xmm1
  40e38e:	ff 
  40e38f:	8b 85 20 f3 ff ff    	mov    -0xce0(%rbp),%eax
  40e395:	48 98                	cltq   
  40e397:	48 c1 e0 04          	shl    $0x4,%rax
  40e39b:	48 01 e8             	add    %rbp,%rax
  40e39e:	48 2d 8c 0c 00 00    	sub    $0xc8c,%rax
  40e3a4:	f3 0f 10 00          	movss  (%rax),%xmm0
  40e3a8:	f3 0f 58 c1          	addss  %xmm1,%xmm0
  40e3ac:	f3 0f 11 85 64 f3 ff 	movss  %xmm0,-0xc9c(%rbp)
  40e3b3:	ff 
  40e3b4:	f3 0f 10 8d 68 f3 ff 	movss  -0xc98(%rbp),%xmm1
  40e3bb:	ff 
  40e3bc:	8b 85 20 f3 ff ff    	mov    -0xce0(%rbp),%eax
  40e3c2:	48 98                	cltq   
  40e3c4:	48 c1 e0 04          	shl    $0x4,%rax
  40e3c8:	48 01 e8             	add    %rbp,%rax
  40e3cb:	48 2d 88 0c 00 00    	sub    $0xc88,%rax
  40e3d1:	f3 0f 10 00          	movss  (%rax),%xmm0
  40e3d5:	f3 0f 58 c1          	addss  %xmm1,%xmm0
  40e3d9:	f3 0f 11 85 68 f3 ff 	movss  %xmm0,-0xc98(%rbp)
  40e3e0:	ff 
  40e3e1:	f3 0f 10 8d 6c f3 ff 	movss  -0xc94(%rbp),%xmm1
  40e3e8:	ff 
  40e3e9:	8b 85 20 f3 ff ff    	mov    -0xce0(%rbp),%eax
  40e3ef:	48 98                	cltq   
  40e3f1:	48 c1 e0 04          	shl    $0x4,%rax
  40e3f5:	48 01 e8             	add    %rbp,%rax
  40e3f8:	48 2d 84 0c 00 00    	sub    $0xc84,%rax
  40e3fe:	f3 0f 10 00          	movss  (%rax),%xmm0
  40e402:	f3 0f 58 c1          	addss  %xmm1,%xmm0
  40e406:	f3 0f 11 85 6c f3 ff 	movss  %xmm0,-0xc94(%rbp)
  40e40d:	ff 
  40e40e:	83 85 20 f3 ff ff 01 	addl   $0x1,-0xce0(%rbp)
  40e415:	f3 0f 10 8d 60 f3 ff 	movss  -0xca0(%rbp),%xmm1
  40e41c:	ff 
  40e41d:	8b 85 20 f3 ff ff    	mov    -0xce0(%rbp),%eax
  40e423:	48 98                	cltq   
  40e425:	48 c1 e0 04          	shl    $0x4,%rax
  40e429:	48 01 e8             	add    %rbp,%rax
  40e42c:	48 2d 90 0c 00 00    	sub    $0xc90,%rax
  40e432:	f3 0f 10 00          	movss  (%rax),%xmm0
  40e436:	f3 0f 58 c1          	addss  %xmm1,%xmm0
  40e43a:	f3 0f 11 85 60 f3 ff 	movss  %xmm0,-0xca0(%rbp)
  40e441:	ff 
  40e442:	f3 0f 10 8d 64 f3 ff 	movss  -0xc9c(%rbp),%xmm1
  40e449:	ff 
  40e44a:	8b 85 20 f3 ff ff    	mov    -0xce0(%rbp),%eax
  40e450:	48 98                	cltq   
  40e452:	48 c1 e0 04          	shl    $0x4,%rax
  40e456:	48 01 e8             	add    %rbp,%rax
  40e459:	48 2d 8c 0c 00 00    	sub    $0xc8c,%rax
  40e45f:	f3 0f 10 00          	movss  (%rax),%xmm0
  40e463:	f3 0f 58 c1          	addss  %xmm1,%xmm0
  40e467:	f3 0f 11 85 64 f3 ff 	movss  %xmm0,-0xc9c(%rbp)
  40e46e:	ff 
  40e46f:	f3 0f 10 8d 68 f3 ff 	movss  -0xc98(%rbp),%xmm1
  40e476:	ff 
  40e477:	8b 85 20 f3 ff ff    	mov    -0xce0(%rbp),%eax
  40e47d:	48 98                	cltq   
  40e47f:	48 c1 e0 04          	shl    $0x4,%rax
  40e483:	48 01 e8             	add    %rbp,%rax
  40e486:	48 2d 88 0c 00 00    	sub    $0xc88,%rax
  40e48c:	f3 0f 10 00          	movss  (%rax),%xmm0
  40e490:	f3 0f 58 c1          	addss  %xmm1,%xmm0
  40e494:	f3 0f 11 85 68 f3 ff 	movss  %xmm0,-0xc98(%rbp)
  40e49b:	ff 
  40e49c:	f3 0f 10 8d 6c f3 ff 	movss  -0xc94(%rbp),%xmm1
  40e4a3:	ff 
  40e4a4:	8b 85 20 f3 ff ff    	mov    -0xce0(%rbp),%eax
  40e4aa:	48 98                	cltq   
  40e4ac:	48 c1 e0 04          	shl    $0x4,%rax
  40e4b0:	48 01 e8             	add    %rbp,%rax
  40e4b3:	48 2d 84 0c 00 00    	sub    $0xc84,%rax
  40e4b9:	f3 0f 10 00          	movss  (%rax),%xmm0
  40e4bd:	f3 0f 58 c1          	addss  %xmm1,%xmm0
  40e4c1:	f3 0f 11 85 6c f3 ff 	movss  %xmm0,-0xc94(%rbp)
  40e4c8:	ff 
  40e4c9:	83 85 20 f3 ff ff 01 	addl   $0x1,-0xce0(%rbp)
  40e4d0:	f3 0f 10 8d 60 f3 ff 	movss  -0xca0(%rbp),%xmm1
  40e4d7:	ff 
  40e4d8:	8b 85 20 f3 ff ff    	mov    -0xce0(%rbp),%eax
  40e4de:	48 98                	cltq   
  40e4e0:	48 c1 e0 04          	shl    $0x4,%rax
  40e4e4:	48 01 e8             	add    %rbp,%rax
  40e4e7:	48 2d 90 0c 00 00    	sub    $0xc90,%rax
  40e4ed:	f3 0f 10 00          	movss  (%rax),%xmm0
  40e4f1:	f3 0f 58 c1          	addss  %xmm1,%xmm0
  40e4f5:	f3 0f 11 85 60 f3 ff 	movss  %xmm0,-0xca0(%rbp)
  40e4fc:	ff 
  40e4fd:	f3 0f 10 8d 64 f3 ff 	movss  -0xc9c(%rbp),%xmm1
  40e504:	ff 
  40e505:	8b 85 20 f3 ff ff    	mov    -0xce0(%rbp),%eax
  40e50b:	48 98                	cltq   
  40e50d:	48 c1 e0 04          	shl    $0x4,%rax
  40e511:	48 01 e8             	add    %rbp,%rax
  40e514:	48 2d 8c 0c 00 00    	sub    $0xc8c,%rax
  40e51a:	f3 0f 10 00          	movss  (%rax),%xmm0
  40e51e:	f3 0f 58 c1          	addss  %xmm1,%xmm0
  40e522:	f3 0f 11 85 64 f3 ff 	movss  %xmm0,-0xc9c(%rbp)
  40e529:	ff 
  40e52a:	f3 0f 10 8d 68 f3 ff 	movss  -0xc98(%rbp),%xmm1
  40e531:	ff 
  40e532:	8b 85 20 f3 ff ff    	mov    -0xce0(%rbp),%eax
  40e538:	48 98                	cltq   
  40e53a:	48 c1 e0 04          	shl    $0x4,%rax
  40e53e:	48 01 e8             	add    %rbp,%rax
  40e541:	48 2d 88 0c 00 00    	sub    $0xc88,%rax
  40e547:	f3 0f 10 00          	movss  (%rax),%xmm0
  40e54b:	f3 0f 58 c1          	addss  %xmm1,%xmm0
  40e54f:	f3 0f 11 85 68 f3 ff 	movss  %xmm0,-0xc98(%rbp)
  40e556:	ff 
  40e557:	f3 0f 10 8d 6c f3 ff 	movss  -0xc94(%rbp),%xmm1
  40e55e:	ff 
  40e55f:	8b 85 20 f3 ff ff    	mov    -0xce0(%rbp),%eax
  40e565:	48 98                	cltq   
  40e567:	48 c1 e0 04          	shl    $0x4,%rax
  40e56b:	48 01 e8             	add    %rbp,%rax
  40e56e:	48 2d 84 0c 00 00    	sub    $0xc84,%rax
  40e574:	f3 0f 10 00          	movss  (%rax),%xmm0
  40e578:	f3 0f 58 c1          	addss  %xmm1,%xmm0
  40e57c:	f3 0f 11 85 6c f3 ff 	movss  %xmm0,-0xc94(%rbp)
  40e583:	ff 
  40e584:	83 85 20 f3 ff ff 01 	addl   $0x1,-0xce0(%rbp)
  40e58b:	f3 0f 10 8d 60 f3 ff 	movss  -0xca0(%rbp),%xmm1
  40e592:	ff 
  40e593:	8b 85 20 f3 ff ff    	mov    -0xce0(%rbp),%eax
  40e599:	48 98                	cltq   
  40e59b:	48 c1 e0 04          	shl    $0x4,%rax
  40e59f:	48 01 e8             	add    %rbp,%rax
  40e5a2:	48 2d 90 0c 00 00    	sub    $0xc90,%rax
  40e5a8:	f3 0f 10 00          	movss  (%rax),%xmm0
  40e5ac:	f3 0f 58 c1          	addss  %xmm1,%xmm0
  40e5b0:	f3 0f 11 85 60 f3 ff 	movss  %xmm0,-0xca0(%rbp)
  40e5b7:	ff 
  40e5b8:	f3 0f 10 8d 64 f3 ff 	movss  -0xc9c(%rbp),%xmm1
  40e5bf:	ff 
  40e5c0:	8b 85 20 f3 ff ff    	mov    -0xce0(%rbp),%eax
  40e5c6:	48 98                	cltq   
  40e5c8:	48 c1 e0 04          	shl    $0x4,%rax
  40e5cc:	48 01 e8             	add    %rbp,%rax
  40e5cf:	48 2d 8c 0c 00 00    	sub    $0xc8c,%rax
  40e5d5:	f3 0f 10 00          	movss  (%rax),%xmm0
  40e5d9:	f3 0f 58 c1          	addss  %xmm1,%xmm0
  40e5dd:	f3 0f 11 85 64 f3 ff 	movss  %xmm0,-0xc9c(%rbp)
  40e5e4:	ff 
  40e5e5:	f3 0f 10 8d 68 f3 ff 	movss  -0xc98(%rbp),%xmm1
  40e5ec:	ff 
  40e5ed:	8b 85 20 f3 ff ff    	mov    -0xce0(%rbp),%eax
  40e5f3:	48 98                	cltq   
  40e5f5:	48 c1 e0 04          	shl    $0x4,%rax
  40e5f9:	48 01 e8             	add    %rbp,%rax
  40e5fc:	48 2d 88 0c 00 00    	sub    $0xc88,%rax
  40e602:	f3 0f 10 00          	movss  (%rax),%xmm0
  40e606:	f3 0f 58 c1          	addss  %xmm1,%xmm0
  40e60a:	f3 0f 11 85 68 f3 ff 	movss  %xmm0,-0xc98(%rbp)
  40e611:	ff 
  40e612:	f3 0f 10 8d 6c f3 ff 	movss  -0xc94(%rbp),%xmm1
  40e619:	ff 
  40e61a:	8b 85 20 f3 ff ff    	mov    -0xce0(%rbp),%eax
  40e620:	48 98                	cltq   
  40e622:	48 c1 e0 04          	shl    $0x4,%rax
  40e626:	48 01 e8             	add    %rbp,%rax
  40e629:	48 2d 84 0c 00 00    	sub    $0xc84,%rax
  40e62f:	f3 0f 10 00          	movss  (%rax),%xmm0
  40e633:	f3 0f 58 c1          	addss  %xmm1,%xmm0
  40e637:	f3 0f 11 85 6c f3 ff 	movss  %xmm0,-0xc94(%rbp)
  40e63e:	ff 
  40e63f:	83 85 20 f3 ff ff 01 	addl   $0x1,-0xce0(%rbp)
  40e646:	f3 0f 10 8d 60 f3 ff 	movss  -0xca0(%rbp),%xmm1
  40e64d:	ff 
  40e64e:	8b 85 20 f3 ff ff    	mov    -0xce0(%rbp),%eax
  40e654:	48 98                	cltq   
  40e656:	48 c1 e0 04          	shl    $0x4,%rax
  40e65a:	48 01 e8             	add    %rbp,%rax
  40e65d:	48 2d 90 0c 00 00    	sub    $0xc90,%rax
  40e663:	f3 0f 10 00          	movss  (%rax),%xmm0
  40e667:	f3 0f 58 c1          	addss  %xmm1,%xmm0
  40e66b:	f3 0f 11 85 60 f3 ff 	movss  %xmm0,-0xca0(%rbp)
  40e672:	ff 
  40e673:	f3 0f 10 8d 64 f3 ff 	movss  -0xc9c(%rbp),%xmm1
  40e67a:	ff 
  40e67b:	8b 85 20 f3 ff ff    	mov    -0xce0(%rbp),%eax
  40e681:	48 98                	cltq   
  40e683:	48 c1 e0 04          	shl    $0x4,%rax
  40e687:	48 01 e8             	add    %rbp,%rax
  40e68a:	48 2d 8c 0c 00 00    	sub    $0xc8c,%rax
  40e690:	f3 0f 10 00          	movss  (%rax),%xmm0
  40e694:	f3 0f 58 c1          	addss  %xmm1,%xmm0
  40e698:	f3 0f 11 85 64 f3 ff 	movss  %xmm0,-0xc9c(%rbp)
  40e69f:	ff 
  40e6a0:	f3 0f 10 8d 68 f3 ff 	movss  -0xc98(%rbp),%xmm1
  40e6a7:	ff 
  40e6a8:	8b 85 20 f3 ff ff    	mov    -0xce0(%rbp),%eax
  40e6ae:	48 98                	cltq   
  40e6b0:	48 c1 e0 04          	shl    $0x4,%rax
  40e6b4:	48 01 e8             	add    %rbp,%rax
  40e6b7:	48 2d 88 0c 00 00    	sub    $0xc88,%rax
  40e6bd:	f3 0f 10 00          	movss  (%rax),%xmm0
  40e6c1:	f3 0f 58 c1          	addss  %xmm1,%xmm0
  40e6c5:	f3 0f 11 85 68 f3 ff 	movss  %xmm0,-0xc98(%rbp)
  40e6cc:	ff 
  40e6cd:	f3 0f 10 8d 6c f3 ff 	movss  -0xc94(%rbp),%xmm1
  40e6d4:	ff 
  40e6d5:	8b 85 20 f3 ff ff    	mov    -0xce0(%rbp),%eax
  40e6db:	48 98                	cltq   
  40e6dd:	48 c1 e0 04          	shl    $0x4,%rax
  40e6e1:	48 01 e8             	add    %rbp,%rax
  40e6e4:	48 2d 84 0c 00 00    	sub    $0xc84,%rax
  40e6ea:	f3 0f 10 00          	movss  (%rax),%xmm0
  40e6ee:	f3 0f 58 c1          	addss  %xmm1,%xmm0
  40e6f2:	f3 0f 11 85 6c f3 ff 	movss  %xmm0,-0xc94(%rbp)
  40e6f9:	ff 
  40e6fa:	83 85 20 f3 ff ff 01 	addl   $0x1,-0xce0(%rbp)
  40e701:	f3 0f 10 8d 60 f3 ff 	movss  -0xca0(%rbp),%xmm1
  40e708:	ff 
  40e709:	8b 85 20 f3 ff ff    	mov    -0xce0(%rbp),%eax
  40e70f:	48 98                	cltq   
  40e711:	48 c1 e0 04          	shl    $0x4,%rax
  40e715:	48 01 e8             	add    %rbp,%rax
  40e718:	48 2d 90 0c 00 00    	sub    $0xc90,%rax
  40e71e:	f3 0f 10 00          	movss  (%rax),%xmm0
  40e722:	f3 0f 58 c1          	addss  %xmm1,%xmm0
  40e726:	f3 0f 11 85 60 f3 ff 	movss  %xmm0,-0xca0(%rbp)
  40e72d:	ff 
  40e72e:	f3 0f 10 8d 64 f3 ff 	movss  -0xc9c(%rbp),%xmm1
  40e735:	ff 
  40e736:	8b 85 20 f3 ff ff    	mov    -0xce0(%rbp),%eax
  40e73c:	48 98                	cltq   
  40e73e:	48 c1 e0 04          	shl    $0x4,%rax
  40e742:	48 01 e8             	add    %rbp,%rax
  40e745:	48 2d 8c 0c 00 00    	sub    $0xc8c,%rax
  40e74b:	f3 0f 10 00          	movss  (%rax),%xmm0
  40e74f:	f3 0f 58 c1          	addss  %xmm1,%xmm0
  40e753:	f3 0f 11 85 64 f3 ff 	movss  %xmm0,-0xc9c(%rbp)
  40e75a:	ff 
  40e75b:	f3 0f 10 8d 68 f3 ff 	movss  -0xc98(%rbp),%xmm1
  40e762:	ff 
  40e763:	8b 85 20 f3 ff ff    	mov    -0xce0(%rbp),%eax
  40e769:	48 98                	cltq   
  40e76b:	48 c1 e0 04          	shl    $0x4,%rax
  40e76f:	48 01 e8             	add    %rbp,%rax
  40e772:	48 2d 88 0c 00 00    	sub    $0xc88,%rax
  40e778:	f3 0f 10 00          	movss  (%rax),%xmm0
  40e77c:	f3 0f 58 c1          	addss  %xmm1,%xmm0
  40e780:	f3 0f 11 85 68 f3 ff 	movss  %xmm0,-0xc98(%rbp)
  40e787:	ff 
  40e788:	f3 0f 10 8d 6c f3 ff 	movss  -0xc94(%rbp),%xmm1
  40e78f:	ff 
  40e790:	8b 85 20 f3 ff ff    	mov    -0xce0(%rbp),%eax
  40e796:	48 98                	cltq   
  40e798:	48 c1 e0 04          	shl    $0x4,%rax
  40e79c:	48 01 e8             	add    %rbp,%rax
  40e79f:	48 2d 84 0c 00 00    	sub    $0xc84,%rax
  40e7a5:	f3 0f 10 00          	movss  (%rax),%xmm0
  40e7a9:	f3 0f 58 c1          	addss  %xmm1,%xmm0
  40e7ad:	f3 0f 11 85 6c f3 ff 	movss  %xmm0,-0xc94(%rbp)
  40e7b4:	ff 
  40e7b5:	83 85 20 f3 ff ff 01 	addl   $0x1,-0xce0(%rbp)
  40e7bc:	f3 0f 10 8d 60 f3 ff 	movss  -0xca0(%rbp),%xmm1
  40e7c3:	ff 
  40e7c4:	8b 85 20 f3 ff ff    	mov    -0xce0(%rbp),%eax
  40e7ca:	48 98                	cltq   
  40e7cc:	48 c1 e0 04          	shl    $0x4,%rax
  40e7d0:	48 01 e8             	add    %rbp,%rax
  40e7d3:	48 2d 90 0c 00 00    	sub    $0xc90,%rax
  40e7d9:	f3 0f 10 00          	movss  (%rax),%xmm0
  40e7dd:	f3 0f 58 c1          	addss  %xmm1,%xmm0
  40e7e1:	f3 0f 11 85 60 f3 ff 	movss  %xmm0,-0xca0(%rbp)
  40e7e8:	ff 
  40e7e9:	f3 0f 10 8d 64 f3 ff 	movss  -0xc9c(%rbp),%xmm1
  40e7f0:	ff 
  40e7f1:	8b 85 20 f3 ff ff    	mov    -0xce0(%rbp),%eax
  40e7f7:	48 98                	cltq   
  40e7f9:	48 c1 e0 04          	shl    $0x4,%rax
  40e7fd:	48 01 e8             	add    %rbp,%rax
  40e800:	48 2d 8c 0c 00 00    	sub    $0xc8c,%rax
  40e806:	f3 0f 10 00          	movss  (%rax),%xmm0
  40e80a:	f3 0f 58 c1          	addss  %xmm1,%xmm0
  40e80e:	f3 0f 11 85 64 f3 ff 	movss  %xmm0,-0xc9c(%rbp)
  40e815:	ff 
  40e816:	f3 0f 10 8d 68 f3 ff 	movss  -0xc98(%rbp),%xmm1
  40e81d:	ff 
  40e81e:	8b 85 20 f3 ff ff    	mov    -0xce0(%rbp),%eax
  40e824:	48 98                	cltq   
  40e826:	48 c1 e0 04          	shl    $0x4,%rax
  40e82a:	48 01 e8             	add    %rbp,%rax
  40e82d:	48 2d 88 0c 00 00    	sub    $0xc88,%rax
  40e833:	f3 0f 10 00          	movss  (%rax),%xmm0
  40e837:	f3 0f 58 c1          	addss  %xmm1,%xmm0
  40e83b:	f3 0f 11 85 68 f3 ff 	movss  %xmm0,-0xc98(%rbp)
  40e842:	ff 
  40e843:	f3 0f 10 8d 6c f3 ff 	movss  -0xc94(%rbp),%xmm1
  40e84a:	ff 
  40e84b:	8b 85 20 f3 ff ff    	mov    -0xce0(%rbp),%eax
  40e851:	48 98                	cltq   
  40e853:	48 c1 e0 04          	shl    $0x4,%rax
  40e857:	48 01 e8             	add    %rbp,%rax
  40e85a:	48 2d 84 0c 00 00    	sub    $0xc84,%rax
  40e860:	f3 0f 10 00          	movss  (%rax),%xmm0
  40e864:	f3 0f 58 c1          	addss  %xmm1,%xmm0
  40e868:	f3 0f 11 85 6c f3 ff 	movss  %xmm0,-0xc94(%rbp)
  40e86f:	ff 
  40e870:	83 85 20 f3 ff ff 01 	addl   $0x1,-0xce0(%rbp)
  40e877:	f3 0f 10 8d 60 f3 ff 	movss  -0xca0(%rbp),%xmm1
  40e87e:	ff 
  40e87f:	8b 85 20 f3 ff ff    	mov    -0xce0(%rbp),%eax
  40e885:	48 98                	cltq   
  40e887:	48 c1 e0 04          	shl    $0x4,%rax
  40e88b:	48 01 e8             	add    %rbp,%rax
  40e88e:	48 2d 90 0c 00 00    	sub    $0xc90,%rax
  40e894:	f3 0f 10 00          	movss  (%rax),%xmm0
  40e898:	f3 0f 58 c1          	addss  %xmm1,%xmm0
  40e89c:	f3 0f 11 85 60 f3 ff 	movss  %xmm0,-0xca0(%rbp)
  40e8a3:	ff 
  40e8a4:	f3 0f 10 8d 64 f3 ff 	movss  -0xc9c(%rbp),%xmm1
  40e8ab:	ff 
  40e8ac:	8b 85 20 f3 ff ff    	mov    -0xce0(%rbp),%eax
  40e8b2:	48 98                	cltq   
  40e8b4:	48 c1 e0 04          	shl    $0x4,%rax
  40e8b8:	48 01 e8             	add    %rbp,%rax
  40e8bb:	48 2d 8c 0c 00 00    	sub    $0xc8c,%rax
  40e8c1:	f3 0f 10 00          	movss  (%rax),%xmm0
  40e8c5:	f3 0f 58 c1          	addss  %xmm1,%xmm0
  40e8c9:	f3 0f 11 85 64 f3 ff 	movss  %xmm0,-0xc9c(%rbp)
  40e8d0:	ff 
  40e8d1:	f3 0f 10 8d 68 f3 ff 	movss  -0xc98(%rbp),%xmm1
  40e8d8:	ff 
  40e8d9:	8b 85 20 f3 ff ff    	mov    -0xce0(%rbp),%eax
  40e8df:	48 98                	cltq   
  40e8e1:	48 c1 e0 04          	shl    $0x4,%rax
  40e8e5:	48 01 e8             	add    %rbp,%rax
  40e8e8:	48 2d 88 0c 00 00    	sub    $0xc88,%rax
  40e8ee:	f3 0f 10 00          	movss  (%rax),%xmm0
  40e8f2:	f3 0f 58 c1          	addss  %xmm1,%xmm0
  40e8f6:	f3 0f 11 85 68 f3 ff 	movss  %xmm0,-0xc98(%rbp)
  40e8fd:	ff 
  40e8fe:	f3 0f 10 8d 6c f3 ff 	movss  -0xc94(%rbp),%xmm1
  40e905:	ff 
  40e906:	8b 85 20 f3 ff ff    	mov    -0xce0(%rbp),%eax
  40e90c:	48 98                	cltq   
  40e90e:	48 c1 e0 04          	shl    $0x4,%rax
  40e912:	48 01 e8             	add    %rbp,%rax
  40e915:	48 2d 84 0c 00 00    	sub    $0xc84,%rax
  40e91b:	f3 0f 10 00          	movss  (%rax),%xmm0
  40e91f:	f3 0f 58 c1          	addss  %xmm1,%xmm0
  40e923:	f3 0f 11 85 6c f3 ff 	movss  %xmm0,-0xc94(%rbp)
  40e92a:	ff 
  40e92b:	83 85 20 f3 ff ff 01 	addl   $0x1,-0xce0(%rbp)
  40e932:	f3 0f 10 8d 60 f3 ff 	movss  -0xca0(%rbp),%xmm1
  40e939:	ff 
  40e93a:	8b 85 20 f3 ff ff    	mov    -0xce0(%rbp),%eax
  40e940:	48 98                	cltq   
  40e942:	48 c1 e0 04          	shl    $0x4,%rax
  40e946:	48 01 e8             	add    %rbp,%rax
  40e949:	48 2d 90 0c 00 00    	sub    $0xc90,%rax
  40e94f:	f3 0f 10 00          	movss  (%rax),%xmm0
  40e953:	f3 0f 58 c1          	addss  %xmm1,%xmm0
  40e957:	f3 0f 11 85 60 f3 ff 	movss  %xmm0,-0xca0(%rbp)
  40e95e:	ff 
  40e95f:	f3 0f 10 8d 64 f3 ff 	movss  -0xc9c(%rbp),%xmm1
  40e966:	ff 
  40e967:	8b 85 20 f3 ff ff    	mov    -0xce0(%rbp),%eax
  40e96d:	48 98                	cltq   
  40e96f:	48 c1 e0 04          	shl    $0x4,%rax
  40e973:	48 01 e8             	add    %rbp,%rax
  40e976:	48 2d 8c 0c 00 00    	sub    $0xc8c,%rax
  40e97c:	f3 0f 10 00          	movss  (%rax),%xmm0
  40e980:	f3 0f 58 c1          	addss  %xmm1,%xmm0
  40e984:	f3 0f 11 85 64 f3 ff 	movss  %xmm0,-0xc9c(%rbp)
  40e98b:	ff 
  40e98c:	f3 0f 10 8d 68 f3 ff 	movss  -0xc98(%rbp),%xmm1
  40e993:	ff 
  40e994:	8b 85 20 f3 ff ff    	mov    -0xce0(%rbp),%eax
  40e99a:	48 98                	cltq   
  40e99c:	48 c1 e0 04          	shl    $0x4,%rax
  40e9a0:	48 01 e8             	add    %rbp,%rax
  40e9a3:	48 2d 88 0c 00 00    	sub    $0xc88,%rax
  40e9a9:	f3 0f 10 00          	movss  (%rax),%xmm0
  40e9ad:	f3 0f 58 c1          	addss  %xmm1,%xmm0
  40e9b1:	f3 0f 11 85 68 f3 ff 	movss  %xmm0,-0xc98(%rbp)
  40e9b8:	ff 
  40e9b9:	f3 0f 10 8d 6c f3 ff 	movss  -0xc94(%rbp),%xmm1
  40e9c0:	ff 
  40e9c1:	8b 85 20 f3 ff ff    	mov    -0xce0(%rbp),%eax
  40e9c7:	48 98                	cltq   
  40e9c9:	48 c1 e0 04          	shl    $0x4,%rax
  40e9cd:	48 01 e8             	add    %rbp,%rax
  40e9d0:	48 2d 84 0c 00 00    	sub    $0xc84,%rax
  40e9d6:	f3 0f 10 00          	movss  (%rax),%xmm0
  40e9da:	f3 0f 58 c1          	addss  %xmm1,%xmm0
  40e9de:	f3 0f 11 85 6c f3 ff 	movss  %xmm0,-0xc94(%rbp)
  40e9e5:	ff 
  40e9e6:	83 85 20 f3 ff ff 01 	addl   $0x1,-0xce0(%rbp)
  40e9ed:	f3 0f 10 8d 60 f3 ff 	movss  -0xca0(%rbp),%xmm1
  40e9f4:	ff 
  40e9f5:	8b 85 20 f3 ff ff    	mov    -0xce0(%rbp),%eax
  40e9fb:	48 98                	cltq   
  40e9fd:	48 c1 e0 04          	shl    $0x4,%rax
  40ea01:	48 01 e8             	add    %rbp,%rax
  40ea04:	48 2d 90 0c 00 00    	sub    $0xc90,%rax
  40ea0a:	f3 0f 10 00          	movss  (%rax),%xmm0
  40ea0e:	f3 0f 58 c1          	addss  %xmm1,%xmm0
  40ea12:	f3 0f 11 85 60 f3 ff 	movss  %xmm0,-0xca0(%rbp)
  40ea19:	ff 
  40ea1a:	f3 0f 10 8d 64 f3 ff 	movss  -0xc9c(%rbp),%xmm1
  40ea21:	ff 
  40ea22:	8b 85 20 f3 ff ff    	mov    -0xce0(%rbp),%eax
  40ea28:	48 98                	cltq   
  40ea2a:	48 c1 e0 04          	shl    $0x4,%rax
  40ea2e:	48 01 e8             	add    %rbp,%rax
  40ea31:	48 2d 8c 0c 00 00    	sub    $0xc8c,%rax
  40ea37:	f3 0f 10 00          	movss  (%rax),%xmm0
  40ea3b:	f3 0f 58 c1          	addss  %xmm1,%xmm0
  40ea3f:	f3 0f 11 85 64 f3 ff 	movss  %xmm0,-0xc9c(%rbp)
  40ea46:	ff 
  40ea47:	f3 0f 10 8d 68 f3 ff 	movss  -0xc98(%rbp),%xmm1
  40ea4e:	ff 
  40ea4f:	8b 85 20 f3 ff ff    	mov    -0xce0(%rbp),%eax
  40ea55:	48 98                	cltq   
  40ea57:	48 c1 e0 04          	shl    $0x4,%rax
  40ea5b:	48 01 e8             	add    %rbp,%rax
  40ea5e:	48 2d 88 0c 00 00    	sub    $0xc88,%rax
  40ea64:	f3 0f 10 00          	movss  (%rax),%xmm0
  40ea68:	f3 0f 58 c1          	addss  %xmm1,%xmm0
  40ea6c:	f3 0f 11 85 68 f3 ff 	movss  %xmm0,-0xc98(%rbp)
  40ea73:	ff 
  40ea74:	f3 0f 10 8d 6c f3 ff 	movss  -0xc94(%rbp),%xmm1
  40ea7b:	ff 
  40ea7c:	8b 85 20 f3 ff ff    	mov    -0xce0(%rbp),%eax
  40ea82:	48 98                	cltq   
  40ea84:	48 c1 e0 04          	shl    $0x4,%rax
  40ea88:	48 01 e8             	add    %rbp,%rax
  40ea8b:	48 2d 84 0c 00 00    	sub    $0xc84,%rax
  40ea91:	f3 0f 10 00          	movss  (%rax),%xmm0
  40ea95:	f3 0f 58 c1          	addss  %xmm1,%xmm0
  40ea99:	f3 0f 11 85 6c f3 ff 	movss  %xmm0,-0xc94(%rbp)
  40eaa0:	ff 
  40eaa1:	83 85 20 f3 ff ff 01 	addl   $0x1,-0xce0(%rbp)
  40eaa8:	f3 0f 10 8d 60 f3 ff 	movss  -0xca0(%rbp),%xmm1
  40eaaf:	ff 
  40eab0:	8b 85 20 f3 ff ff    	mov    -0xce0(%rbp),%eax
  40eab6:	48 98                	cltq   
  40eab8:	48 c1 e0 04          	shl    $0x4,%rax
  40eabc:	48 01 e8             	add    %rbp,%rax
  40eabf:	48 2d 90 0c 00 00    	sub    $0xc90,%rax
  40eac5:	f3 0f 10 00          	movss  (%rax),%xmm0
  40eac9:	f3 0f 58 c1          	addss  %xmm1,%xmm0
  40eacd:	f3 0f 11 85 60 f3 ff 	movss  %xmm0,-0xca0(%rbp)
  40ead4:	ff 
  40ead5:	f3 0f 10 8d 64 f3 ff 	movss  -0xc9c(%rbp),%xmm1
  40eadc:	ff 
  40eadd:	8b 85 20 f3 ff ff    	mov    -0xce0(%rbp),%eax
  40eae3:	48 98                	cltq   
  40eae5:	48 c1 e0 04          	shl    $0x4,%rax
  40eae9:	48 01 e8             	add    %rbp,%rax
  40eaec:	48 2d 8c 0c 00 00    	sub    $0xc8c,%rax
  40eaf2:	f3 0f 10 00          	movss  (%rax),%xmm0
  40eaf6:	f3 0f 58 c1          	addss  %xmm1,%xmm0
  40eafa:	f3 0f 11 85 64 f3 ff 	movss  %xmm0,-0xc9c(%rbp)
  40eb01:	ff 
  40eb02:	f3 0f 10 8d 68 f3 ff 	movss  -0xc98(%rbp),%xmm1
  40eb09:	ff 
  40eb0a:	8b 85 20 f3 ff ff    	mov    -0xce0(%rbp),%eax
  40eb10:	48 98                	cltq   
  40eb12:	48 c1 e0 04          	shl    $0x4,%rax
  40eb16:	48 01 e8             	add    %rbp,%rax
  40eb19:	48 2d 88 0c 00 00    	sub    $0xc88,%rax
  40eb1f:	f3 0f 10 00          	movss  (%rax),%xmm0
  40eb23:	f3 0f 58 c1          	addss  %xmm1,%xmm0
  40eb27:	f3 0f 11 85 68 f3 ff 	movss  %xmm0,-0xc98(%rbp)
  40eb2e:	ff 
  40eb2f:	f3 0f 10 8d 6c f3 ff 	movss  -0xc94(%rbp),%xmm1
  40eb36:	ff 
  40eb37:	8b 85 20 f3 ff ff    	mov    -0xce0(%rbp),%eax
  40eb3d:	48 98                	cltq   
  40eb3f:	48 c1 e0 04          	shl    $0x4,%rax
  40eb43:	48 01 e8             	add    %rbp,%rax
  40eb46:	48 2d 84 0c 00 00    	sub    $0xc84,%rax
  40eb4c:	f3 0f 10 00          	movss  (%rax),%xmm0
  40eb50:	f3 0f 58 c1          	addss  %xmm1,%xmm0
  40eb54:	f3 0f 11 85 6c f3 ff 	movss  %xmm0,-0xc94(%rbp)
  40eb5b:	ff 
  40eb5c:	83 85 20 f3 ff ff 01 	addl   $0x1,-0xce0(%rbp)
  40eb63:	f3 0f 10 8d 60 f3 ff 	movss  -0xca0(%rbp),%xmm1
  40eb6a:	ff 
  40eb6b:	8b 85 20 f3 ff ff    	mov    -0xce0(%rbp),%eax
  40eb71:	48 98                	cltq   
  40eb73:	48 c1 e0 04          	shl    $0x4,%rax
  40eb77:	48 01 e8             	add    %rbp,%rax
  40eb7a:	48 2d 90 0c 00 00    	sub    $0xc90,%rax
  40eb80:	f3 0f 10 00          	movss  (%rax),%xmm0
  40eb84:	f3 0f 58 c1          	addss  %xmm1,%xmm0
  40eb88:	f3 0f 11 85 60 f3 ff 	movss  %xmm0,-0xca0(%rbp)
  40eb8f:	ff 
  40eb90:	f3 0f 10 8d 64 f3 ff 	movss  -0xc9c(%rbp),%xmm1
  40eb97:	ff 
  40eb98:	8b 85 20 f3 ff ff    	mov    -0xce0(%rbp),%eax
  40eb9e:	48 98                	cltq   
  40eba0:	48 c1 e0 04          	shl    $0x4,%rax
  40eba4:	48 01 e8             	add    %rbp,%rax
  40eba7:	48 2d 8c 0c 00 00    	sub    $0xc8c,%rax
  40ebad:	f3 0f 10 00          	movss  (%rax),%xmm0
  40ebb1:	f3 0f 58 c1          	addss  %xmm1,%xmm0
  40ebb5:	f3 0f 11 85 64 f3 ff 	movss  %xmm0,-0xc9c(%rbp)
  40ebbc:	ff 
  40ebbd:	f3 0f 10 8d 68 f3 ff 	movss  -0xc98(%rbp),%xmm1
  40ebc4:	ff 
  40ebc5:	8b 85 20 f3 ff ff    	mov    -0xce0(%rbp),%eax
  40ebcb:	48 98                	cltq   
  40ebcd:	48 c1 e0 04          	shl    $0x4,%rax
  40ebd1:	48 01 e8             	add    %rbp,%rax
  40ebd4:	48 2d 88 0c 00 00    	sub    $0xc88,%rax
  40ebda:	f3 0f 10 00          	movss  (%rax),%xmm0
  40ebde:	f3 0f 58 c1          	addss  %xmm1,%xmm0
  40ebe2:	f3 0f 11 85 68 f3 ff 	movss  %xmm0,-0xc98(%rbp)
  40ebe9:	ff 
  40ebea:	f3 0f 10 8d 6c f3 ff 	movss  -0xc94(%rbp),%xmm1
  40ebf1:	ff 
  40ebf2:	8b 85 20 f3 ff ff    	mov    -0xce0(%rbp),%eax
  40ebf8:	48 98                	cltq   
  40ebfa:	48 c1 e0 04          	shl    $0x4,%rax
  40ebfe:	48 01 e8             	add    %rbp,%rax
  40ec01:	48 2d 84 0c 00 00    	sub    $0xc84,%rax
  40ec07:	f3 0f 10 00          	movss  (%rax),%xmm0
  40ec0b:	f3 0f 58 c1          	addss  %xmm1,%xmm0
  40ec0f:	f3 0f 11 85 6c f3 ff 	movss  %xmm0,-0xc94(%rbp)
  40ec16:	ff 
  40ec17:	83 85 20 f3 ff ff 01 	addl   $0x1,-0xce0(%rbp)
  40ec1e:	f3 0f 10 8d 60 f3 ff 	movss  -0xca0(%rbp),%xmm1
  40ec25:	ff 
  40ec26:	8b 85 20 f3 ff ff    	mov    -0xce0(%rbp),%eax
  40ec2c:	48 98                	cltq   
  40ec2e:	48 c1 e0 04          	shl    $0x4,%rax
  40ec32:	48 01 e8             	add    %rbp,%rax
  40ec35:	48 2d 90 0c 00 00    	sub    $0xc90,%rax
  40ec3b:	f3 0f 10 00          	movss  (%rax),%xmm0
  40ec3f:	f3 0f 58 c1          	addss  %xmm1,%xmm0
  40ec43:	f3 0f 11 85 60 f3 ff 	movss  %xmm0,-0xca0(%rbp)
  40ec4a:	ff 
  40ec4b:	f3 0f 10 8d 64 f3 ff 	movss  -0xc9c(%rbp),%xmm1
  40ec52:	ff 
  40ec53:	8b 85 20 f3 ff ff    	mov    -0xce0(%rbp),%eax
  40ec59:	48 98                	cltq   
  40ec5b:	48 c1 e0 04          	shl    $0x4,%rax
  40ec5f:	48 01 e8             	add    %rbp,%rax
  40ec62:	48 2d 8c 0c 00 00    	sub    $0xc8c,%rax
  40ec68:	f3 0f 10 00          	movss  (%rax),%xmm0
  40ec6c:	f3 0f 58 c1          	addss  %xmm1,%xmm0
  40ec70:	f3 0f 11 85 64 f3 ff 	movss  %xmm0,-0xc9c(%rbp)
  40ec77:	ff 
  40ec78:	f3 0f 10 8d 68 f3 ff 	movss  -0xc98(%rbp),%xmm1
  40ec7f:	ff 
  40ec80:	8b 85 20 f3 ff ff    	mov    -0xce0(%rbp),%eax
  40ec86:	48 98                	cltq   
  40ec88:	48 c1 e0 04          	shl    $0x4,%rax
  40ec8c:	48 01 e8             	add    %rbp,%rax
  40ec8f:	48 2d 88 0c 00 00    	sub    $0xc88,%rax
  40ec95:	f3 0f 10 00          	movss  (%rax),%xmm0
  40ec99:	f3 0f 58 c1          	addss  %xmm1,%xmm0
  40ec9d:	f3 0f 11 85 68 f3 ff 	movss  %xmm0,-0xc98(%rbp)
  40eca4:	ff 
  40eca5:	f3 0f 10 8d 6c f3 ff 	movss  -0xc94(%rbp),%xmm1
  40ecac:	ff 
  40ecad:	8b 85 20 f3 ff ff    	mov    -0xce0(%rbp),%eax
  40ecb3:	48 98                	cltq   
  40ecb5:	48 c1 e0 04          	shl    $0x4,%rax
  40ecb9:	48 01 e8             	add    %rbp,%rax
  40ecbc:	48 2d 84 0c 00 00    	sub    $0xc84,%rax
  40ecc2:	f3 0f 10 00          	movss  (%rax),%xmm0
  40ecc6:	f3 0f 58 c1          	addss  %xmm1,%xmm0
  40ecca:	f3 0f 11 85 6c f3 ff 	movss  %xmm0,-0xc94(%rbp)
  40ecd1:	ff 
  40ecd2:	83 85 20 f3 ff ff 01 	addl   $0x1,-0xce0(%rbp)
  40ecd9:	f3 0f 10 8d 60 f3 ff 	movss  -0xca0(%rbp),%xmm1
  40ece0:	ff 
  40ece1:	8b 85 20 f3 ff ff    	mov    -0xce0(%rbp),%eax
  40ece7:	48 98                	cltq   
  40ece9:	48 c1 e0 04          	shl    $0x4,%rax
  40eced:	48 01 e8             	add    %rbp,%rax
  40ecf0:	48 2d 90 0c 00 00    	sub    $0xc90,%rax
  40ecf6:	f3 0f 10 00          	movss  (%rax),%xmm0
  40ecfa:	f3 0f 58 c1          	addss  %xmm1,%xmm0
  40ecfe:	f3 0f 11 85 60 f3 ff 	movss  %xmm0,-0xca0(%rbp)
  40ed05:	ff 
  40ed06:	f3 0f 10 8d 64 f3 ff 	movss  -0xc9c(%rbp),%xmm1
  40ed0d:	ff 
  40ed0e:	8b 85 20 f3 ff ff    	mov    -0xce0(%rbp),%eax
  40ed14:	48 98                	cltq   
  40ed16:	48 c1 e0 04          	shl    $0x4,%rax
  40ed1a:	48 01 e8             	add    %rbp,%rax
  40ed1d:	48 2d 8c 0c 00 00    	sub    $0xc8c,%rax
  40ed23:	f3 0f 10 00          	movss  (%rax),%xmm0
  40ed27:	f3 0f 58 c1          	addss  %xmm1,%xmm0
  40ed2b:	f3 0f 11 85 64 f3 ff 	movss  %xmm0,-0xc9c(%rbp)
  40ed32:	ff 
  40ed33:	f3 0f 10 8d 68 f3 ff 	movss  -0xc98(%rbp),%xmm1
  40ed3a:	ff 
  40ed3b:	8b 85 20 f3 ff ff    	mov    -0xce0(%rbp),%eax
  40ed41:	48 98                	cltq   
  40ed43:	48 c1 e0 04          	shl    $0x4,%rax
  40ed47:	48 01 e8             	add    %rbp,%rax
  40ed4a:	48 2d 88 0c 00 00    	sub    $0xc88,%rax
  40ed50:	f3 0f 10 00          	movss  (%rax),%xmm0
  40ed54:	f3 0f 58 c1          	addss  %xmm1,%xmm0
  40ed58:	f3 0f 11 85 68 f3 ff 	movss  %xmm0,-0xc98(%rbp)
  40ed5f:	ff 
  40ed60:	f3 0f 10 8d 6c f3 ff 	movss  -0xc94(%rbp),%xmm1
  40ed67:	ff 
  40ed68:	8b 85 20 f3 ff ff    	mov    -0xce0(%rbp),%eax
  40ed6e:	48 98                	cltq   
  40ed70:	48 c1 e0 04          	shl    $0x4,%rax
  40ed74:	48 01 e8             	add    %rbp,%rax
  40ed77:	48 2d 84 0c 00 00    	sub    $0xc84,%rax
  40ed7d:	f3 0f 10 00          	movss  (%rax),%xmm0
  40ed81:	f3 0f 58 c1          	addss  %xmm1,%xmm0
  40ed85:	f3 0f 11 85 6c f3 ff 	movss  %xmm0,-0xc94(%rbp)
  40ed8c:	ff 
  40ed8d:	83 85 20 f3 ff ff 01 	addl   $0x1,-0xce0(%rbp)
  40ed94:	f3 0f 10 8d 60 f3 ff 	movss  -0xca0(%rbp),%xmm1
  40ed9b:	ff 
  40ed9c:	8b 85 20 f3 ff ff    	mov    -0xce0(%rbp),%eax
  40eda2:	48 98                	cltq   
  40eda4:	48 c1 e0 04          	shl    $0x4,%rax
  40eda8:	48 01 e8             	add    %rbp,%rax
  40edab:	48 2d 90 0c 00 00    	sub    $0xc90,%rax
  40edb1:	f3 0f 10 00          	movss  (%rax),%xmm0
  40edb5:	f3 0f 58 c1          	addss  %xmm1,%xmm0
  40edb9:	f3 0f 11 85 60 f3 ff 	movss  %xmm0,-0xca0(%rbp)
  40edc0:	ff 
  40edc1:	f3 0f 10 8d 64 f3 ff 	movss  -0xc9c(%rbp),%xmm1
  40edc8:	ff 
  40edc9:	8b 85 20 f3 ff ff    	mov    -0xce0(%rbp),%eax
  40edcf:	48 98                	cltq   
  40edd1:	48 c1 e0 04          	shl    $0x4,%rax
  40edd5:	48 01 e8             	add    %rbp,%rax
  40edd8:	48 2d 8c 0c 00 00    	sub    $0xc8c,%rax
  40edde:	f3 0f 10 00          	movss  (%rax),%xmm0
  40ede2:	f3 0f 58 c1          	addss  %xmm1,%xmm0
  40ede6:	f3 0f 11 85 64 f3 ff 	movss  %xmm0,-0xc9c(%rbp)
  40eded:	ff 
  40edee:	f3 0f 10 8d 68 f3 ff 	movss  -0xc98(%rbp),%xmm1
  40edf5:	ff 
  40edf6:	8b 85 20 f3 ff ff    	mov    -0xce0(%rbp),%eax
  40edfc:	48 98                	cltq   
  40edfe:	48 c1 e0 04          	shl    $0x4,%rax
  40ee02:	48 01 e8             	add    %rbp,%rax
  40ee05:	48 2d 88 0c 00 00    	sub    $0xc88,%rax
  40ee0b:	f3 0f 10 00          	movss  (%rax),%xmm0
  40ee0f:	f3 0f 58 c1          	addss  %xmm1,%xmm0
  40ee13:	f3 0f 11 85 68 f3 ff 	movss  %xmm0,-0xc98(%rbp)
  40ee1a:	ff 
  40ee1b:	f3 0f 10 8d 6c f3 ff 	movss  -0xc94(%rbp),%xmm1
  40ee22:	ff 
  40ee23:	8b 85 20 f3 ff ff    	mov    -0xce0(%rbp),%eax
  40ee29:	48 98                	cltq   
  40ee2b:	48 c1 e0 04          	shl    $0x4,%rax
  40ee2f:	48 01 e8             	add    %rbp,%rax
  40ee32:	48 2d 84 0c 00 00    	sub    $0xc84,%rax
  40ee38:	f3 0f 10 00          	movss  (%rax),%xmm0
  40ee3c:	f3 0f 58 c1          	addss  %xmm1,%xmm0
  40ee40:	f3 0f 11 85 6c f3 ff 	movss  %xmm0,-0xc94(%rbp)
  40ee47:	ff 
  40ee48:	83 85 20 f3 ff ff 01 	addl   $0x1,-0xce0(%rbp)
  40ee4f:	f3 0f 10 8d 60 f3 ff 	movss  -0xca0(%rbp),%xmm1
  40ee56:	ff 
  40ee57:	8b 85 20 f3 ff ff    	mov    -0xce0(%rbp),%eax
  40ee5d:	48 98                	cltq   
  40ee5f:	48 c1 e0 04          	shl    $0x4,%rax
  40ee63:	48 01 e8             	add    %rbp,%rax
  40ee66:	48 2d 90 0c 00 00    	sub    $0xc90,%rax
  40ee6c:	f3 0f 10 00          	movss  (%rax),%xmm0
  40ee70:	f3 0f 58 c1          	addss  %xmm1,%xmm0
  40ee74:	f3 0f 11 85 60 f3 ff 	movss  %xmm0,-0xca0(%rbp)
  40ee7b:	ff 
  40ee7c:	f3 0f 10 8d 64 f3 ff 	movss  -0xc9c(%rbp),%xmm1
  40ee83:	ff 
  40ee84:	8b 85 20 f3 ff ff    	mov    -0xce0(%rbp),%eax
  40ee8a:	48 98                	cltq   
  40ee8c:	48 c1 e0 04          	shl    $0x4,%rax
  40ee90:	48 01 e8             	add    %rbp,%rax
  40ee93:	48 2d 8c 0c 00 00    	sub    $0xc8c,%rax
  40ee99:	f3 0f 10 00          	movss  (%rax),%xmm0
  40ee9d:	f3 0f 58 c1          	addss  %xmm1,%xmm0
  40eea1:	f3 0f 11 85 64 f3 ff 	movss  %xmm0,-0xc9c(%rbp)
  40eea8:	ff 
  40eea9:	f3 0f 10 8d 68 f3 ff 	movss  -0xc98(%rbp),%xmm1
  40eeb0:	ff 
  40eeb1:	8b 85 20 f3 ff ff    	mov    -0xce0(%rbp),%eax
  40eeb7:	48 98                	cltq   
  40eeb9:	48 c1 e0 04          	shl    $0x4,%rax
  40eebd:	48 01 e8             	add    %rbp,%rax
  40eec0:	48 2d 88 0c 00 00    	sub    $0xc88,%rax
  40eec6:	f3 0f 10 00          	movss  (%rax),%xmm0
  40eeca:	f3 0f 58 c1          	addss  %xmm1,%xmm0
  40eece:	f3 0f 11 85 68 f3 ff 	movss  %xmm0,-0xc98(%rbp)
  40eed5:	ff 
  40eed6:	f3 0f 10 8d 6c f3 ff 	movss  -0xc94(%rbp),%xmm1
  40eedd:	ff 
  40eede:	8b 85 20 f3 ff ff    	mov    -0xce0(%rbp),%eax
  40eee4:	48 98                	cltq   
  40eee6:	48 c1 e0 04          	shl    $0x4,%rax
  40eeea:	48 01 e8             	add    %rbp,%rax
  40eeed:	48 2d 84 0c 00 00    	sub    $0xc84,%rax
  40eef3:	f3 0f 10 00          	movss  (%rax),%xmm0
  40eef7:	f3 0f 58 c1          	addss  %xmm1,%xmm0
  40eefb:	f3 0f 11 85 6c f3 ff 	movss  %xmm0,-0xc94(%rbp)
  40ef02:	ff 
  40ef03:	83 85 20 f3 ff ff 01 	addl   $0x1,-0xce0(%rbp)
  40ef0a:	f3 0f 10 8d 60 f3 ff 	movss  -0xca0(%rbp),%xmm1
  40ef11:	ff 
  40ef12:	8b 85 20 f3 ff ff    	mov    -0xce0(%rbp),%eax
  40ef18:	48 98                	cltq   
  40ef1a:	48 c1 e0 04          	shl    $0x4,%rax
  40ef1e:	48 01 e8             	add    %rbp,%rax
  40ef21:	48 2d 90 0c 00 00    	sub    $0xc90,%rax
  40ef27:	f3 0f 10 00          	movss  (%rax),%xmm0
  40ef2b:	f3 0f 58 c1          	addss  %xmm1,%xmm0
  40ef2f:	f3 0f 11 85 60 f3 ff 	movss  %xmm0,-0xca0(%rbp)
  40ef36:	ff 
  40ef37:	f3 0f 10 8d 64 f3 ff 	movss  -0xc9c(%rbp),%xmm1
  40ef3e:	ff 
  40ef3f:	8b 85 20 f3 ff ff    	mov    -0xce0(%rbp),%eax
  40ef45:	48 98                	cltq   
  40ef47:	48 c1 e0 04          	shl    $0x4,%rax
  40ef4b:	48 01 e8             	add    %rbp,%rax
  40ef4e:	48 2d 8c 0c 00 00    	sub    $0xc8c,%rax
  40ef54:	f3 0f 10 00          	movss  (%rax),%xmm0
  40ef58:	f3 0f 58 c1          	addss  %xmm1,%xmm0
  40ef5c:	f3 0f 11 85 64 f3 ff 	movss  %xmm0,-0xc9c(%rbp)
  40ef63:	ff 
  40ef64:	f3 0f 10 8d 68 f3 ff 	movss  -0xc98(%rbp),%xmm1
  40ef6b:	ff 
  40ef6c:	8b 85 20 f3 ff ff    	mov    -0xce0(%rbp),%eax
  40ef72:	48 98                	cltq   
  40ef74:	48 c1 e0 04          	shl    $0x4,%rax
  40ef78:	48 01 e8             	add    %rbp,%rax
  40ef7b:	48 2d 88 0c 00 00    	sub    $0xc88,%rax
  40ef81:	f3 0f 10 00          	movss  (%rax),%xmm0
  40ef85:	f3 0f 58 c1          	addss  %xmm1,%xmm0
  40ef89:	f3 0f 11 85 68 f3 ff 	movss  %xmm0,-0xc98(%rbp)
  40ef90:	ff 
  40ef91:	f3 0f 10 8d 6c f3 ff 	movss  -0xc94(%rbp),%xmm1
  40ef98:	ff 
  40ef99:	8b 85 20 f3 ff ff    	mov    -0xce0(%rbp),%eax
  40ef9f:	48 98                	cltq   
  40efa1:	48 c1 e0 04          	shl    $0x4,%rax
  40efa5:	48 01 e8             	add    %rbp,%rax
  40efa8:	48 2d 84 0c 00 00    	sub    $0xc84,%rax
  40efae:	f3 0f 10 00          	movss  (%rax),%xmm0
  40efb2:	f3 0f 58 c1          	addss  %xmm1,%xmm0
  40efb6:	f3 0f 11 85 6c f3 ff 	movss  %xmm0,-0xc94(%rbp)
  40efbd:	ff 
  40efbe:	83 85 20 f3 ff ff 01 	addl   $0x1,-0xce0(%rbp)
  40efc5:	f3 0f 10 8d 60 f3 ff 	movss  -0xca0(%rbp),%xmm1
  40efcc:	ff 
  40efcd:	8b 85 20 f3 ff ff    	mov    -0xce0(%rbp),%eax
  40efd3:	48 98                	cltq   
  40efd5:	48 c1 e0 04          	shl    $0x4,%rax
  40efd9:	48 01 e8             	add    %rbp,%rax
  40efdc:	48 2d 90 0c 00 00    	sub    $0xc90,%rax
  40efe2:	f3 0f 10 00          	movss  (%rax),%xmm0
  40efe6:	f3 0f 58 c1          	addss  %xmm1,%xmm0
  40efea:	f3 0f 11 85 60 f3 ff 	movss  %xmm0,-0xca0(%rbp)
  40eff1:	ff 
  40eff2:	f3 0f 10 8d 64 f3 ff 	movss  -0xc9c(%rbp),%xmm1
  40eff9:	ff 
  40effa:	8b 85 20 f3 ff ff    	mov    -0xce0(%rbp),%eax
  40f000:	48 98                	cltq   
  40f002:	48 c1 e0 04          	shl    $0x4,%rax
  40f006:	48 01 e8             	add    %rbp,%rax
  40f009:	48 2d 8c 0c 00 00    	sub    $0xc8c,%rax
  40f00f:	f3 0f 10 00          	movss  (%rax),%xmm0
  40f013:	f3 0f 58 c1          	addss  %xmm1,%xmm0
  40f017:	f3 0f 11 85 64 f3 ff 	movss  %xmm0,-0xc9c(%rbp)
  40f01e:	ff 
  40f01f:	f3 0f 10 8d 68 f3 ff 	movss  -0xc98(%rbp),%xmm1
  40f026:	ff 
  40f027:	8b 85 20 f3 ff ff    	mov    -0xce0(%rbp),%eax
  40f02d:	48 98                	cltq   
  40f02f:	48 c1 e0 04          	shl    $0x4,%rax
  40f033:	48 01 e8             	add    %rbp,%rax
  40f036:	48 2d 88 0c 00 00    	sub    $0xc88,%rax
  40f03c:	f3 0f 10 00          	movss  (%rax),%xmm0
  40f040:	f3 0f 58 c1          	addss  %xmm1,%xmm0
  40f044:	f3 0f 11 85 68 f3 ff 	movss  %xmm0,-0xc98(%rbp)
  40f04b:	ff 
  40f04c:	f3 0f 10 8d 6c f3 ff 	movss  -0xc94(%rbp),%xmm1
  40f053:	ff 
  40f054:	8b 85 20 f3 ff ff    	mov    -0xce0(%rbp),%eax
  40f05a:	48 98                	cltq   
  40f05c:	48 c1 e0 04          	shl    $0x4,%rax
  40f060:	48 01 e8             	add    %rbp,%rax
  40f063:	48 2d 84 0c 00 00    	sub    $0xc84,%rax
  40f069:	f3 0f 10 00          	movss  (%rax),%xmm0
  40f06d:	f3 0f 58 c1          	addss  %xmm1,%xmm0
  40f071:	f3 0f 11 85 6c f3 ff 	movss  %xmm0,-0xc94(%rbp)
  40f078:	ff 
  40f079:	83 85 20 f3 ff ff 01 	addl   $0x1,-0xce0(%rbp)
  40f080:	f3 0f 10 8d 60 f3 ff 	movss  -0xca0(%rbp),%xmm1
  40f087:	ff 
  40f088:	8b 85 20 f3 ff ff    	mov    -0xce0(%rbp),%eax
  40f08e:	48 98                	cltq   
  40f090:	48 c1 e0 04          	shl    $0x4,%rax
  40f094:	48 01 e8             	add    %rbp,%rax
  40f097:	48 2d 90 0c 00 00    	sub    $0xc90,%rax
  40f09d:	f3 0f 10 00          	movss  (%rax),%xmm0
  40f0a1:	f3 0f 58 c1          	addss  %xmm1,%xmm0
  40f0a5:	f3 0f 11 85 60 f3 ff 	movss  %xmm0,-0xca0(%rbp)
  40f0ac:	ff 
  40f0ad:	f3 0f 10 8d 64 f3 ff 	movss  -0xc9c(%rbp),%xmm1
  40f0b4:	ff 
  40f0b5:	8b 85 20 f3 ff ff    	mov    -0xce0(%rbp),%eax
  40f0bb:	48 98                	cltq   
  40f0bd:	48 c1 e0 04          	shl    $0x4,%rax
  40f0c1:	48 01 e8             	add    %rbp,%rax
  40f0c4:	48 2d 8c 0c 00 00    	sub    $0xc8c,%rax
  40f0ca:	f3 0f 10 00          	movss  (%rax),%xmm0
  40f0ce:	f3 0f 58 c1          	addss  %xmm1,%xmm0
  40f0d2:	f3 0f 11 85 64 f3 ff 	movss  %xmm0,-0xc9c(%rbp)
  40f0d9:	ff 
  40f0da:	f3 0f 10 8d 68 f3 ff 	movss  -0xc98(%rbp),%xmm1
  40f0e1:	ff 
  40f0e2:	8b 85 20 f3 ff ff    	mov    -0xce0(%rbp),%eax
  40f0e8:	48 98                	cltq   
  40f0ea:	48 c1 e0 04          	shl    $0x4,%rax
  40f0ee:	48 01 e8             	add    %rbp,%rax
  40f0f1:	48 2d 88 0c 00 00    	sub    $0xc88,%rax
  40f0f7:	f3 0f 10 00          	movss  (%rax),%xmm0
  40f0fb:	f3 0f 58 c1          	addss  %xmm1,%xmm0
  40f0ff:	f3 0f 11 85 68 f3 ff 	movss  %xmm0,-0xc98(%rbp)
  40f106:	ff 
  40f107:	f3 0f 10 8d 6c f3 ff 	movss  -0xc94(%rbp),%xmm1
  40f10e:	ff 
  40f10f:	8b 85 20 f3 ff ff    	mov    -0xce0(%rbp),%eax
  40f115:	48 98                	cltq   
  40f117:	48 c1 e0 04          	shl    $0x4,%rax
  40f11b:	48 01 e8             	add    %rbp,%rax
  40f11e:	48 2d 84 0c 00 00    	sub    $0xc84,%rax
  40f124:	f3 0f 10 00          	movss  (%rax),%xmm0
  40f128:	f3 0f 58 c1          	addss  %xmm1,%xmm0
  40f12c:	f3 0f 11 85 6c f3 ff 	movss  %xmm0,-0xc94(%rbp)
  40f133:	ff 
  40f134:	83 85 20 f3 ff ff 01 	addl   $0x1,-0xce0(%rbp)
  40f13b:	f3 0f 10 8d 60 f3 ff 	movss  -0xca0(%rbp),%xmm1
  40f142:	ff 
  40f143:	8b 85 20 f3 ff ff    	mov    -0xce0(%rbp),%eax
  40f149:	48 98                	cltq   
  40f14b:	48 c1 e0 04          	shl    $0x4,%rax
  40f14f:	48 01 e8             	add    %rbp,%rax
  40f152:	48 2d 90 0c 00 00    	sub    $0xc90,%rax
  40f158:	f3 0f 10 00          	movss  (%rax),%xmm0
  40f15c:	f3 0f 58 c1          	addss  %xmm1,%xmm0
  40f160:	f3 0f 11 85 60 f3 ff 	movss  %xmm0,-0xca0(%rbp)
  40f167:	ff 
  40f168:	f3 0f 10 8d 64 f3 ff 	movss  -0xc9c(%rbp),%xmm1
  40f16f:	ff 
  40f170:	8b 85 20 f3 ff ff    	mov    -0xce0(%rbp),%eax
  40f176:	48 98                	cltq   
  40f178:	48 c1 e0 04          	shl    $0x4,%rax
  40f17c:	48 01 e8             	add    %rbp,%rax
  40f17f:	48 2d 8c 0c 00 00    	sub    $0xc8c,%rax
  40f185:	f3 0f 10 00          	movss  (%rax),%xmm0
  40f189:	f3 0f 58 c1          	addss  %xmm1,%xmm0
  40f18d:	f3 0f 11 85 64 f3 ff 	movss  %xmm0,-0xc9c(%rbp)
  40f194:	ff 
  40f195:	f3 0f 10 8d 68 f3 ff 	movss  -0xc98(%rbp),%xmm1
  40f19c:	ff 
  40f19d:	8b 85 20 f3 ff ff    	mov    -0xce0(%rbp),%eax
  40f1a3:	48 98                	cltq   
  40f1a5:	48 c1 e0 04          	shl    $0x4,%rax
  40f1a9:	48 01 e8             	add    %rbp,%rax
  40f1ac:	48 2d 88 0c 00 00    	sub    $0xc88,%rax
  40f1b2:	f3 0f 10 00          	movss  (%rax),%xmm0
  40f1b6:	f3 0f 58 c1          	addss  %xmm1,%xmm0
  40f1ba:	f3 0f 11 85 68 f3 ff 	movss  %xmm0,-0xc98(%rbp)
  40f1c1:	ff 
  40f1c2:	f3 0f 10 8d 6c f3 ff 	movss  -0xc94(%rbp),%xmm1
  40f1c9:	ff 
  40f1ca:	8b 85 20 f3 ff ff    	mov    -0xce0(%rbp),%eax
  40f1d0:	48 98                	cltq   
  40f1d2:	48 c1 e0 04          	shl    $0x4,%rax
  40f1d6:	48 01 e8             	add    %rbp,%rax
  40f1d9:	48 2d 84 0c 00 00    	sub    $0xc84,%rax
  40f1df:	f3 0f 10 00          	movss  (%rax),%xmm0
  40f1e3:	f3 0f 58 c1          	addss  %xmm1,%xmm0
  40f1e7:	f3 0f 11 85 6c f3 ff 	movss  %xmm0,-0xc94(%rbp)
  40f1ee:	ff 
  40f1ef:	83 85 20 f3 ff ff 01 	addl   $0x1,-0xce0(%rbp)
  40f1f6:	f3 0f 10 8d 60 f3 ff 	movss  -0xca0(%rbp),%xmm1
  40f1fd:	ff 
  40f1fe:	8b 85 20 f3 ff ff    	mov    -0xce0(%rbp),%eax
  40f204:	48 98                	cltq   
  40f206:	48 c1 e0 04          	shl    $0x4,%rax
  40f20a:	48 01 e8             	add    %rbp,%rax
  40f20d:	48 2d 90 0c 00 00    	sub    $0xc90,%rax
  40f213:	f3 0f 10 00          	movss  (%rax),%xmm0
  40f217:	f3 0f 58 c1          	addss  %xmm1,%xmm0
  40f21b:	f3 0f 11 85 60 f3 ff 	movss  %xmm0,-0xca0(%rbp)
  40f222:	ff 
  40f223:	f3 0f 10 8d 64 f3 ff 	movss  -0xc9c(%rbp),%xmm1
  40f22a:	ff 
  40f22b:	8b 85 20 f3 ff ff    	mov    -0xce0(%rbp),%eax
  40f231:	48 98                	cltq   
  40f233:	48 c1 e0 04          	shl    $0x4,%rax
  40f237:	48 01 e8             	add    %rbp,%rax
  40f23a:	48 2d 8c 0c 00 00    	sub    $0xc8c,%rax
  40f240:	f3 0f 10 00          	movss  (%rax),%xmm0
  40f244:	f3 0f 58 c1          	addss  %xmm1,%xmm0
  40f248:	f3 0f 11 85 64 f3 ff 	movss  %xmm0,-0xc9c(%rbp)
  40f24f:	ff 
  40f250:	f3 0f 10 8d 68 f3 ff 	movss  -0xc98(%rbp),%xmm1
  40f257:	ff 
  40f258:	8b 85 20 f3 ff ff    	mov    -0xce0(%rbp),%eax
  40f25e:	48 98                	cltq   
  40f260:	48 c1 e0 04          	shl    $0x4,%rax
  40f264:	48 01 e8             	add    %rbp,%rax
  40f267:	48 2d 88 0c 00 00    	sub    $0xc88,%rax
  40f26d:	f3 0f 10 00          	movss  (%rax),%xmm0
  40f271:	f3 0f 58 c1          	addss  %xmm1,%xmm0
  40f275:	f3 0f 11 85 68 f3 ff 	movss  %xmm0,-0xc98(%rbp)
  40f27c:	ff 
  40f27d:	f3 0f 10 8d 6c f3 ff 	movss  -0xc94(%rbp),%xmm1
  40f284:	ff 
  40f285:	8b 85 20 f3 ff ff    	mov    -0xce0(%rbp),%eax
  40f28b:	48 98                	cltq   
  40f28d:	48 c1 e0 04          	shl    $0x4,%rax
  40f291:	48 01 e8             	add    %rbp,%rax
  40f294:	48 2d 84 0c 00 00    	sub    $0xc84,%rax
  40f29a:	f3 0f 10 00          	movss  (%rax),%xmm0
  40f29e:	f3 0f 58 c1          	addss  %xmm1,%xmm0
  40f2a2:	f3 0f 11 85 6c f3 ff 	movss  %xmm0,-0xc94(%rbp)
  40f2a9:	ff 
  40f2aa:	83 85 20 f3 ff ff 01 	addl   $0x1,-0xce0(%rbp)
  40f2b1:	f3 0f 10 8d 60 f3 ff 	movss  -0xca0(%rbp),%xmm1
  40f2b8:	ff 
  40f2b9:	8b 85 20 f3 ff ff    	mov    -0xce0(%rbp),%eax
  40f2bf:	48 98                	cltq   
  40f2c1:	48 c1 e0 04          	shl    $0x4,%rax
  40f2c5:	48 01 e8             	add    %rbp,%rax
  40f2c8:	48 2d 90 0c 00 00    	sub    $0xc90,%rax
  40f2ce:	f3 0f 10 00          	movss  (%rax),%xmm0
  40f2d2:	f3 0f 58 c1          	addss  %xmm1,%xmm0
  40f2d6:	f3 0f 11 85 60 f3 ff 	movss  %xmm0,-0xca0(%rbp)
  40f2dd:	ff 
  40f2de:	f3 0f 10 8d 64 f3 ff 	movss  -0xc9c(%rbp),%xmm1
  40f2e5:	ff 
  40f2e6:	8b 85 20 f3 ff ff    	mov    -0xce0(%rbp),%eax
  40f2ec:	48 98                	cltq   
  40f2ee:	48 c1 e0 04          	shl    $0x4,%rax
  40f2f2:	48 01 e8             	add    %rbp,%rax
  40f2f5:	48 2d 8c 0c 00 00    	sub    $0xc8c,%rax
  40f2fb:	f3 0f 10 00          	movss  (%rax),%xmm0
  40f2ff:	f3 0f 58 c1          	addss  %xmm1,%xmm0
  40f303:	f3 0f 11 85 64 f3 ff 	movss  %xmm0,-0xc9c(%rbp)
  40f30a:	ff 
  40f30b:	f3 0f 10 8d 68 f3 ff 	movss  -0xc98(%rbp),%xmm1
  40f312:	ff 
  40f313:	8b 85 20 f3 ff ff    	mov    -0xce0(%rbp),%eax
  40f319:	48 98                	cltq   
  40f31b:	48 c1 e0 04          	shl    $0x4,%rax
  40f31f:	48 01 e8             	add    %rbp,%rax
  40f322:	48 2d 88 0c 00 00    	sub    $0xc88,%rax
  40f328:	f3 0f 10 00          	movss  (%rax),%xmm0
  40f32c:	f3 0f 58 c1          	addss  %xmm1,%xmm0
  40f330:	f3 0f 11 85 68 f3 ff 	movss  %xmm0,-0xc98(%rbp)
  40f337:	ff 
  40f338:	f3 0f 10 8d 6c f3 ff 	movss  -0xc94(%rbp),%xmm1
  40f33f:	ff 
  40f340:	8b 85 20 f3 ff ff    	mov    -0xce0(%rbp),%eax
  40f346:	48 98                	cltq   
  40f348:	48 c1 e0 04          	shl    $0x4,%rax
  40f34c:	48 01 e8             	add    %rbp,%rax
  40f34f:	48 2d 84 0c 00 00    	sub    $0xc84,%rax
  40f355:	f3 0f 10 00          	movss  (%rax),%xmm0
  40f359:	f3 0f 58 c1          	addss  %xmm1,%xmm0
  40f35d:	f3 0f 11 85 6c f3 ff 	movss  %xmm0,-0xc94(%rbp)
  40f364:	ff 
  40f365:	83 85 20 f3 ff ff 01 	addl   $0x1,-0xce0(%rbp)
  40f36c:	f3 0f 10 8d 60 f3 ff 	movss  -0xca0(%rbp),%xmm1
  40f373:	ff 
  40f374:	8b 85 20 f3 ff ff    	mov    -0xce0(%rbp),%eax
  40f37a:	48 98                	cltq   
  40f37c:	48 c1 e0 04          	shl    $0x4,%rax
  40f380:	48 01 e8             	add    %rbp,%rax
  40f383:	48 2d 90 0c 00 00    	sub    $0xc90,%rax
  40f389:	f3 0f 10 00          	movss  (%rax),%xmm0
  40f38d:	f3 0f 58 c1          	addss  %xmm1,%xmm0
  40f391:	f3 0f 11 85 60 f3 ff 	movss  %xmm0,-0xca0(%rbp)
  40f398:	ff 
  40f399:	f3 0f 10 8d 64 f3 ff 	movss  -0xc9c(%rbp),%xmm1
  40f3a0:	ff 
  40f3a1:	8b 85 20 f3 ff ff    	mov    -0xce0(%rbp),%eax
  40f3a7:	48 98                	cltq   
  40f3a9:	48 c1 e0 04          	shl    $0x4,%rax
  40f3ad:	48 01 e8             	add    %rbp,%rax
  40f3b0:	48 2d 8c 0c 00 00    	sub    $0xc8c,%rax
  40f3b6:	f3 0f 10 00          	movss  (%rax),%xmm0
  40f3ba:	f3 0f 58 c1          	addss  %xmm1,%xmm0
  40f3be:	f3 0f 11 85 64 f3 ff 	movss  %xmm0,-0xc9c(%rbp)
  40f3c5:	ff 
  40f3c6:	f3 0f 10 8d 68 f3 ff 	movss  -0xc98(%rbp),%xmm1
  40f3cd:	ff 
  40f3ce:	8b 85 20 f3 ff ff    	mov    -0xce0(%rbp),%eax
  40f3d4:	48 98                	cltq   
  40f3d6:	48 c1 e0 04          	shl    $0x4,%rax
  40f3da:	48 01 e8             	add    %rbp,%rax
  40f3dd:	48 2d 88 0c 00 00    	sub    $0xc88,%rax
  40f3e3:	f3 0f 10 00          	movss  (%rax),%xmm0
  40f3e7:	f3 0f 58 c1          	addss  %xmm1,%xmm0
  40f3eb:	f3 0f 11 85 68 f3 ff 	movss  %xmm0,-0xc98(%rbp)
  40f3f2:	ff 
  40f3f3:	f3 0f 10 8d 6c f3 ff 	movss  -0xc94(%rbp),%xmm1
  40f3fa:	ff 
  40f3fb:	8b 85 20 f3 ff ff    	mov    -0xce0(%rbp),%eax
  40f401:	48 98                	cltq   
  40f403:	48 c1 e0 04          	shl    $0x4,%rax
  40f407:	48 01 e8             	add    %rbp,%rax
  40f40a:	48 2d 84 0c 00 00    	sub    $0xc84,%rax
  40f410:	f3 0f 10 00          	movss  (%rax),%xmm0
  40f414:	f3 0f 58 c1          	addss  %xmm1,%xmm0
  40f418:	f3 0f 11 85 6c f3 ff 	movss  %xmm0,-0xc94(%rbp)
  40f41f:	ff 
  40f420:	83 85 20 f3 ff ff 01 	addl   $0x1,-0xce0(%rbp)
  40f427:	f3 0f 10 8d 60 f3 ff 	movss  -0xca0(%rbp),%xmm1
  40f42e:	ff 
  40f42f:	8b 85 20 f3 ff ff    	mov    -0xce0(%rbp),%eax
  40f435:	48 98                	cltq   
  40f437:	48 c1 e0 04          	shl    $0x4,%rax
  40f43b:	48 01 e8             	add    %rbp,%rax
  40f43e:	48 2d 90 0c 00 00    	sub    $0xc90,%rax
  40f444:	f3 0f 10 00          	movss  (%rax),%xmm0
  40f448:	f3 0f 58 c1          	addss  %xmm1,%xmm0
  40f44c:	f3 0f 11 85 60 f3 ff 	movss  %xmm0,-0xca0(%rbp)
  40f453:	ff 
  40f454:	f3 0f 10 8d 64 f3 ff 	movss  -0xc9c(%rbp),%xmm1
  40f45b:	ff 
  40f45c:	8b 85 20 f3 ff ff    	mov    -0xce0(%rbp),%eax
  40f462:	48 98                	cltq   
  40f464:	48 c1 e0 04          	shl    $0x4,%rax
  40f468:	48 01 e8             	add    %rbp,%rax
  40f46b:	48 2d 8c 0c 00 00    	sub    $0xc8c,%rax
  40f471:	f3 0f 10 00          	movss  (%rax),%xmm0
  40f475:	f3 0f 58 c1          	addss  %xmm1,%xmm0
  40f479:	f3 0f 11 85 64 f3 ff 	movss  %xmm0,-0xc9c(%rbp)
  40f480:	ff 
  40f481:	f3 0f 10 8d 68 f3 ff 	movss  -0xc98(%rbp),%xmm1
  40f488:	ff 
  40f489:	8b 85 20 f3 ff ff    	mov    -0xce0(%rbp),%eax
  40f48f:	48 98                	cltq   
  40f491:	48 c1 e0 04          	shl    $0x4,%rax
  40f495:	48 01 e8             	add    %rbp,%rax
  40f498:	48 2d 88 0c 00 00    	sub    $0xc88,%rax
  40f49e:	f3 0f 10 00          	movss  (%rax),%xmm0
  40f4a2:	f3 0f 58 c1          	addss  %xmm1,%xmm0
  40f4a6:	f3 0f 11 85 68 f3 ff 	movss  %xmm0,-0xc98(%rbp)
  40f4ad:	ff 
  40f4ae:	f3 0f 10 8d 6c f3 ff 	movss  -0xc94(%rbp),%xmm1
  40f4b5:	ff 
  40f4b6:	8b 85 20 f3 ff ff    	mov    -0xce0(%rbp),%eax
  40f4bc:	48 98                	cltq   
  40f4be:	48 c1 e0 04          	shl    $0x4,%rax
  40f4c2:	48 01 e8             	add    %rbp,%rax
  40f4c5:	48 2d 84 0c 00 00    	sub    $0xc84,%rax
  40f4cb:	f3 0f 10 00          	movss  (%rax),%xmm0
  40f4cf:	f3 0f 58 c1          	addss  %xmm1,%xmm0
  40f4d3:	f3 0f 11 85 6c f3 ff 	movss  %xmm0,-0xc94(%rbp)
  40f4da:	ff 
  40f4db:	83 85 20 f3 ff ff 01 	addl   $0x1,-0xce0(%rbp)
  40f4e2:	f3 0f 10 8d 60 f3 ff 	movss  -0xca0(%rbp),%xmm1
  40f4e9:	ff 
  40f4ea:	8b 85 20 f3 ff ff    	mov    -0xce0(%rbp),%eax
  40f4f0:	48 98                	cltq   
  40f4f2:	48 c1 e0 04          	shl    $0x4,%rax
  40f4f6:	48 01 e8             	add    %rbp,%rax
  40f4f9:	48 2d 90 0c 00 00    	sub    $0xc90,%rax
  40f4ff:	f3 0f 10 00          	movss  (%rax),%xmm0
  40f503:	f3 0f 58 c1          	addss  %xmm1,%xmm0
  40f507:	f3 0f 11 85 60 f3 ff 	movss  %xmm0,-0xca0(%rbp)
  40f50e:	ff 
  40f50f:	f3 0f 10 8d 64 f3 ff 	movss  -0xc9c(%rbp),%xmm1
  40f516:	ff 
  40f517:	8b 85 20 f3 ff ff    	mov    -0xce0(%rbp),%eax
  40f51d:	48 98                	cltq   
  40f51f:	48 c1 e0 04          	shl    $0x4,%rax
  40f523:	48 01 e8             	add    %rbp,%rax
  40f526:	48 2d 8c 0c 00 00    	sub    $0xc8c,%rax
  40f52c:	f3 0f 10 00          	movss  (%rax),%xmm0
  40f530:	f3 0f 58 c1          	addss  %xmm1,%xmm0
  40f534:	f3 0f 11 85 64 f3 ff 	movss  %xmm0,-0xc9c(%rbp)
  40f53b:	ff 
  40f53c:	f3 0f 10 8d 68 f3 ff 	movss  -0xc98(%rbp),%xmm1
  40f543:	ff 
  40f544:	8b 85 20 f3 ff ff    	mov    -0xce0(%rbp),%eax
  40f54a:	48 98                	cltq   
  40f54c:	48 c1 e0 04          	shl    $0x4,%rax
  40f550:	48 01 e8             	add    %rbp,%rax
  40f553:	48 2d 88 0c 00 00    	sub    $0xc88,%rax
  40f559:	f3 0f 10 00          	movss  (%rax),%xmm0
  40f55d:	f3 0f 58 c1          	addss  %xmm1,%xmm0
  40f561:	f3 0f 11 85 68 f3 ff 	movss  %xmm0,-0xc98(%rbp)
  40f568:	ff 
  40f569:	f3 0f 10 8d 6c f3 ff 	movss  -0xc94(%rbp),%xmm1
  40f570:	ff 
  40f571:	8b 85 20 f3 ff ff    	mov    -0xce0(%rbp),%eax
  40f577:	48 98                	cltq   
  40f579:	48 c1 e0 04          	shl    $0x4,%rax
  40f57d:	48 01 e8             	add    %rbp,%rax
  40f580:	48 2d 84 0c 00 00    	sub    $0xc84,%rax
  40f586:	f3 0f 10 00          	movss  (%rax),%xmm0
  40f58a:	f3 0f 58 c1          	addss  %xmm1,%xmm0
  40f58e:	f3 0f 11 85 6c f3 ff 	movss  %xmm0,-0xc94(%rbp)
  40f595:	ff 
  40f596:	83 85 20 f3 ff ff 01 	addl   $0x1,-0xce0(%rbp)
  40f59d:	f3 0f 10 8d 60 f3 ff 	movss  -0xca0(%rbp),%xmm1
  40f5a4:	ff 
  40f5a5:	8b 85 20 f3 ff ff    	mov    -0xce0(%rbp),%eax
  40f5ab:	48 98                	cltq   
  40f5ad:	48 c1 e0 04          	shl    $0x4,%rax
  40f5b1:	48 01 e8             	add    %rbp,%rax
  40f5b4:	48 2d 90 0c 00 00    	sub    $0xc90,%rax
  40f5ba:	f3 0f 10 00          	movss  (%rax),%xmm0
  40f5be:	f3 0f 58 c1          	addss  %xmm1,%xmm0
  40f5c2:	f3 0f 11 85 60 f3 ff 	movss  %xmm0,-0xca0(%rbp)
  40f5c9:	ff 
  40f5ca:	f3 0f 10 8d 64 f3 ff 	movss  -0xc9c(%rbp),%xmm1
  40f5d1:	ff 
  40f5d2:	8b 85 20 f3 ff ff    	mov    -0xce0(%rbp),%eax
  40f5d8:	48 98                	cltq   
  40f5da:	48 c1 e0 04          	shl    $0x4,%rax
  40f5de:	48 01 e8             	add    %rbp,%rax
  40f5e1:	48 2d 8c 0c 00 00    	sub    $0xc8c,%rax
  40f5e7:	f3 0f 10 00          	movss  (%rax),%xmm0
  40f5eb:	f3 0f 58 c1          	addss  %xmm1,%xmm0
  40f5ef:	f3 0f 11 85 64 f3 ff 	movss  %xmm0,-0xc9c(%rbp)
  40f5f6:	ff 
  40f5f7:	f3 0f 10 8d 68 f3 ff 	movss  -0xc98(%rbp),%xmm1
  40f5fe:	ff 
  40f5ff:	8b 85 20 f3 ff ff    	mov    -0xce0(%rbp),%eax
  40f605:	48 98                	cltq   
  40f607:	48 c1 e0 04          	shl    $0x4,%rax
  40f60b:	48 01 e8             	add    %rbp,%rax
  40f60e:	48 2d 88 0c 00 00    	sub    $0xc88,%rax
  40f614:	f3 0f 10 00          	movss  (%rax),%xmm0
  40f618:	f3 0f 58 c1          	addss  %xmm1,%xmm0
  40f61c:	f3 0f 11 85 68 f3 ff 	movss  %xmm0,-0xc98(%rbp)
  40f623:	ff 
  40f624:	f3 0f 10 8d 6c f3 ff 	movss  -0xc94(%rbp),%xmm1
  40f62b:	ff 
  40f62c:	8b 85 20 f3 ff ff    	mov    -0xce0(%rbp),%eax
  40f632:	48 98                	cltq   
  40f634:	48 c1 e0 04          	shl    $0x4,%rax
  40f638:	48 01 e8             	add    %rbp,%rax
  40f63b:	48 2d 84 0c 00 00    	sub    $0xc84,%rax
  40f641:	f3 0f 10 00          	movss  (%rax),%xmm0
  40f645:	f3 0f 58 c1          	addss  %xmm1,%xmm0
  40f649:	f3 0f 11 85 6c f3 ff 	movss  %xmm0,-0xc94(%rbp)
  40f650:	ff 
  40f651:	83 85 20 f3 ff ff 01 	addl   $0x1,-0xce0(%rbp)
  40f658:	f3 0f 10 8d 60 f3 ff 	movss  -0xca0(%rbp),%xmm1
  40f65f:	ff 
  40f660:	8b 85 20 f3 ff ff    	mov    -0xce0(%rbp),%eax
  40f666:	48 98                	cltq   
  40f668:	48 c1 e0 04          	shl    $0x4,%rax
  40f66c:	48 01 e8             	add    %rbp,%rax
  40f66f:	48 2d 90 0c 00 00    	sub    $0xc90,%rax
  40f675:	f3 0f 10 00          	movss  (%rax),%xmm0
  40f679:	f3 0f 58 c1          	addss  %xmm1,%xmm0
  40f67d:	f3 0f 11 85 60 f3 ff 	movss  %xmm0,-0xca0(%rbp)
  40f684:	ff 
  40f685:	f3 0f 10 8d 64 f3 ff 	movss  -0xc9c(%rbp),%xmm1
  40f68c:	ff 
  40f68d:	8b 85 20 f3 ff ff    	mov    -0xce0(%rbp),%eax
  40f693:	48 98                	cltq   
  40f695:	48 c1 e0 04          	shl    $0x4,%rax
  40f699:	48 01 e8             	add    %rbp,%rax
  40f69c:	48 2d 8c 0c 00 00    	sub    $0xc8c,%rax
  40f6a2:	f3 0f 10 00          	movss  (%rax),%xmm0
  40f6a6:	f3 0f 58 c1          	addss  %xmm1,%xmm0
  40f6aa:	f3 0f 11 85 64 f3 ff 	movss  %xmm0,-0xc9c(%rbp)
  40f6b1:	ff 
  40f6b2:	f3 0f 10 8d 68 f3 ff 	movss  -0xc98(%rbp),%xmm1
  40f6b9:	ff 
  40f6ba:	8b 85 20 f3 ff ff    	mov    -0xce0(%rbp),%eax
  40f6c0:	48 98                	cltq   
  40f6c2:	48 c1 e0 04          	shl    $0x4,%rax
  40f6c6:	48 01 e8             	add    %rbp,%rax
  40f6c9:	48 2d 88 0c 00 00    	sub    $0xc88,%rax
  40f6cf:	f3 0f 10 00          	movss  (%rax),%xmm0
  40f6d3:	f3 0f 58 c1          	addss  %xmm1,%xmm0
  40f6d7:	f3 0f 11 85 68 f3 ff 	movss  %xmm0,-0xc98(%rbp)
  40f6de:	ff 
  40f6df:	f3 0f 10 8d 6c f3 ff 	movss  -0xc94(%rbp),%xmm1
  40f6e6:	ff 
  40f6e7:	8b 85 20 f3 ff ff    	mov    -0xce0(%rbp),%eax
  40f6ed:	48 98                	cltq   
  40f6ef:	48 c1 e0 04          	shl    $0x4,%rax
  40f6f3:	48 01 e8             	add    %rbp,%rax
  40f6f6:	48 2d 84 0c 00 00    	sub    $0xc84,%rax
  40f6fc:	f3 0f 10 00          	movss  (%rax),%xmm0
  40f700:	f3 0f 58 c1          	addss  %xmm1,%xmm0
  40f704:	f3 0f 11 85 6c f3 ff 	movss  %xmm0,-0xc94(%rbp)
  40f70b:	ff 
  40f70c:	83 85 20 f3 ff ff 01 	addl   $0x1,-0xce0(%rbp)
  40f713:	f3 0f 10 8d 60 f3 ff 	movss  -0xca0(%rbp),%xmm1
  40f71a:	ff 
  40f71b:	8b 85 20 f3 ff ff    	mov    -0xce0(%rbp),%eax
  40f721:	48 98                	cltq   
  40f723:	48 c1 e0 04          	shl    $0x4,%rax
  40f727:	48 01 e8             	add    %rbp,%rax
  40f72a:	48 2d 90 0c 00 00    	sub    $0xc90,%rax
  40f730:	f3 0f 10 00          	movss  (%rax),%xmm0
  40f734:	f3 0f 58 c1          	addss  %xmm1,%xmm0
  40f738:	f3 0f 11 85 60 f3 ff 	movss  %xmm0,-0xca0(%rbp)
  40f73f:	ff 
  40f740:	f3 0f 10 8d 64 f3 ff 	movss  -0xc9c(%rbp),%xmm1
  40f747:	ff 
  40f748:	8b 85 20 f3 ff ff    	mov    -0xce0(%rbp),%eax
  40f74e:	48 98                	cltq   
  40f750:	48 c1 e0 04          	shl    $0x4,%rax
  40f754:	48 01 e8             	add    %rbp,%rax
  40f757:	48 2d 8c 0c 00 00    	sub    $0xc8c,%rax
  40f75d:	f3 0f 10 00          	movss  (%rax),%xmm0
  40f761:	f3 0f 58 c1          	addss  %xmm1,%xmm0
  40f765:	f3 0f 11 85 64 f3 ff 	movss  %xmm0,-0xc9c(%rbp)
  40f76c:	ff 
  40f76d:	f3 0f 10 8d 68 f3 ff 	movss  -0xc98(%rbp),%xmm1
  40f774:	ff 
  40f775:	8b 85 20 f3 ff ff    	mov    -0xce0(%rbp),%eax
  40f77b:	48 98                	cltq   
  40f77d:	48 c1 e0 04          	shl    $0x4,%rax
  40f781:	48 01 e8             	add    %rbp,%rax
  40f784:	48 2d 88 0c 00 00    	sub    $0xc88,%rax
  40f78a:	f3 0f 10 00          	movss  (%rax),%xmm0
  40f78e:	f3 0f 58 c1          	addss  %xmm1,%xmm0
  40f792:	f3 0f 11 85 68 f3 ff 	movss  %xmm0,-0xc98(%rbp)
  40f799:	ff 
  40f79a:	f3 0f 10 8d 6c f3 ff 	movss  -0xc94(%rbp),%xmm1
  40f7a1:	ff 
  40f7a2:	8b 85 20 f3 ff ff    	mov    -0xce0(%rbp),%eax
  40f7a8:	48 98                	cltq   
  40f7aa:	48 c1 e0 04          	shl    $0x4,%rax
  40f7ae:	48 01 e8             	add    %rbp,%rax
  40f7b1:	48 2d 84 0c 00 00    	sub    $0xc84,%rax
  40f7b7:	f3 0f 10 00          	movss  (%rax),%xmm0
  40f7bb:	f3 0f 58 c1          	addss  %xmm1,%xmm0
  40f7bf:	f3 0f 11 85 6c f3 ff 	movss  %xmm0,-0xc94(%rbp)
  40f7c6:	ff 
  40f7c7:	83 85 20 f3 ff ff 01 	addl   $0x1,-0xce0(%rbp)
  40f7ce:	f3 0f 10 8d 60 f3 ff 	movss  -0xca0(%rbp),%xmm1
  40f7d5:	ff 
  40f7d6:	8b 85 20 f3 ff ff    	mov    -0xce0(%rbp),%eax
  40f7dc:	48 98                	cltq   
  40f7de:	48 c1 e0 04          	shl    $0x4,%rax
  40f7e2:	48 01 e8             	add    %rbp,%rax
  40f7e5:	48 2d 90 0c 00 00    	sub    $0xc90,%rax
  40f7eb:	f3 0f 10 00          	movss  (%rax),%xmm0
  40f7ef:	f3 0f 58 c1          	addss  %xmm1,%xmm0
  40f7f3:	f3 0f 11 85 60 f3 ff 	movss  %xmm0,-0xca0(%rbp)
  40f7fa:	ff 
  40f7fb:	f3 0f 10 8d 64 f3 ff 	movss  -0xc9c(%rbp),%xmm1
  40f802:	ff 
  40f803:	8b 85 20 f3 ff ff    	mov    -0xce0(%rbp),%eax
  40f809:	48 98                	cltq   
  40f80b:	48 c1 e0 04          	shl    $0x4,%rax
  40f80f:	48 01 e8             	add    %rbp,%rax
  40f812:	48 2d 8c 0c 00 00    	sub    $0xc8c,%rax
  40f818:	f3 0f 10 00          	movss  (%rax),%xmm0
  40f81c:	f3 0f 58 c1          	addss  %xmm1,%xmm0
  40f820:	f3 0f 11 85 64 f3 ff 	movss  %xmm0,-0xc9c(%rbp)
  40f827:	ff 
  40f828:	f3 0f 10 8d 68 f3 ff 	movss  -0xc98(%rbp),%xmm1
  40f82f:	ff 
  40f830:	8b 85 20 f3 ff ff    	mov    -0xce0(%rbp),%eax
  40f836:	48 98                	cltq   
  40f838:	48 c1 e0 04          	shl    $0x4,%rax
  40f83c:	48 01 e8             	add    %rbp,%rax
  40f83f:	48 2d 88 0c 00 00    	sub    $0xc88,%rax
  40f845:	f3 0f 10 00          	movss  (%rax),%xmm0
  40f849:	f3 0f 58 c1          	addss  %xmm1,%xmm0
  40f84d:	f3 0f 11 85 68 f3 ff 	movss  %xmm0,-0xc98(%rbp)
  40f854:	ff 
  40f855:	f3 0f 10 8d 6c f3 ff 	movss  -0xc94(%rbp),%xmm1
  40f85c:	ff 
  40f85d:	8b 85 20 f3 ff ff    	mov    -0xce0(%rbp),%eax
  40f863:	48 98                	cltq   
  40f865:	48 c1 e0 04          	shl    $0x4,%rax
  40f869:	48 01 e8             	add    %rbp,%rax
  40f86c:	48 2d 84 0c 00 00    	sub    $0xc84,%rax
  40f872:	f3 0f 10 00          	movss  (%rax),%xmm0
  40f876:	f3 0f 58 c1          	addss  %xmm1,%xmm0
  40f87a:	f3 0f 11 85 6c f3 ff 	movss  %xmm0,-0xc94(%rbp)
  40f881:	ff 
  40f882:	83 85 20 f3 ff ff 01 	addl   $0x1,-0xce0(%rbp)
  40f889:	f3 0f 10 8d 60 f3 ff 	movss  -0xca0(%rbp),%xmm1
  40f890:	ff 
  40f891:	8b 85 20 f3 ff ff    	mov    -0xce0(%rbp),%eax
  40f897:	48 98                	cltq   
  40f899:	48 c1 e0 04          	shl    $0x4,%rax
  40f89d:	48 01 e8             	add    %rbp,%rax
  40f8a0:	48 2d 90 0c 00 00    	sub    $0xc90,%rax
  40f8a6:	f3 0f 10 00          	movss  (%rax),%xmm0
  40f8aa:	f3 0f 58 c1          	addss  %xmm1,%xmm0
  40f8ae:	f3 0f 11 85 60 f3 ff 	movss  %xmm0,-0xca0(%rbp)
  40f8b5:	ff 
  40f8b6:	f3 0f 10 8d 64 f3 ff 	movss  -0xc9c(%rbp),%xmm1
  40f8bd:	ff 
  40f8be:	8b 85 20 f3 ff ff    	mov    -0xce0(%rbp),%eax
  40f8c4:	48 98                	cltq   
  40f8c6:	48 c1 e0 04          	shl    $0x4,%rax
  40f8ca:	48 01 e8             	add    %rbp,%rax
  40f8cd:	48 2d 8c 0c 00 00    	sub    $0xc8c,%rax
  40f8d3:	f3 0f 10 00          	movss  (%rax),%xmm0
  40f8d7:	f3 0f 58 c1          	addss  %xmm1,%xmm0
  40f8db:	f3 0f 11 85 64 f3 ff 	movss  %xmm0,-0xc9c(%rbp)
  40f8e2:	ff 
  40f8e3:	f3 0f 10 8d 68 f3 ff 	movss  -0xc98(%rbp),%xmm1
  40f8ea:	ff 
  40f8eb:	8b 85 20 f3 ff ff    	mov    -0xce0(%rbp),%eax
  40f8f1:	48 98                	cltq   
  40f8f3:	48 c1 e0 04          	shl    $0x4,%rax
  40f8f7:	48 01 e8             	add    %rbp,%rax
  40f8fa:	48 2d 88 0c 00 00    	sub    $0xc88,%rax
  40f900:	f3 0f 10 00          	movss  (%rax),%xmm0
  40f904:	f3 0f 58 c1          	addss  %xmm1,%xmm0
  40f908:	f3 0f 11 85 68 f3 ff 	movss  %xmm0,-0xc98(%rbp)
  40f90f:	ff 
  40f910:	f3 0f 10 8d 6c f3 ff 	movss  -0xc94(%rbp),%xmm1
  40f917:	ff 
  40f918:	8b 85 20 f3 ff ff    	mov    -0xce0(%rbp),%eax
  40f91e:	48 98                	cltq   
  40f920:	48 c1 e0 04          	shl    $0x4,%rax
  40f924:	48 01 e8             	add    %rbp,%rax
  40f927:	48 2d 84 0c 00 00    	sub    $0xc84,%rax
  40f92d:	f3 0f 10 00          	movss  (%rax),%xmm0
  40f931:	f3 0f 58 c1          	addss  %xmm1,%xmm0
  40f935:	f3 0f 11 85 6c f3 ff 	movss  %xmm0,-0xc94(%rbp)
  40f93c:	ff 
  40f93d:	83 85 20 f3 ff ff 01 	addl   $0x1,-0xce0(%rbp)
  40f944:	f3 0f 10 8d 60 f3 ff 	movss  -0xca0(%rbp),%xmm1
  40f94b:	ff 
  40f94c:	8b 85 20 f3 ff ff    	mov    -0xce0(%rbp),%eax
  40f952:	48 98                	cltq   
  40f954:	48 c1 e0 04          	shl    $0x4,%rax
  40f958:	48 01 e8             	add    %rbp,%rax
  40f95b:	48 2d 90 0c 00 00    	sub    $0xc90,%rax
  40f961:	f3 0f 10 00          	movss  (%rax),%xmm0
  40f965:	f3 0f 58 c1          	addss  %xmm1,%xmm0
  40f969:	f3 0f 11 85 60 f3 ff 	movss  %xmm0,-0xca0(%rbp)
  40f970:	ff 
  40f971:	f3 0f 10 8d 64 f3 ff 	movss  -0xc9c(%rbp),%xmm1
  40f978:	ff 
  40f979:	8b 85 20 f3 ff ff    	mov    -0xce0(%rbp),%eax
  40f97f:	48 98                	cltq   
  40f981:	48 c1 e0 04          	shl    $0x4,%rax
  40f985:	48 01 e8             	add    %rbp,%rax
  40f988:	48 2d 8c 0c 00 00    	sub    $0xc8c,%rax
  40f98e:	f3 0f 10 00          	movss  (%rax),%xmm0
  40f992:	f3 0f 58 c1          	addss  %xmm1,%xmm0
  40f996:	f3 0f 11 85 64 f3 ff 	movss  %xmm0,-0xc9c(%rbp)
  40f99d:	ff 
  40f99e:	f3 0f 10 8d 68 f3 ff 	movss  -0xc98(%rbp),%xmm1
  40f9a5:	ff 
  40f9a6:	8b 85 20 f3 ff ff    	mov    -0xce0(%rbp),%eax
  40f9ac:	48 98                	cltq   
  40f9ae:	48 c1 e0 04          	shl    $0x4,%rax
  40f9b2:	48 01 e8             	add    %rbp,%rax
  40f9b5:	48 2d 88 0c 00 00    	sub    $0xc88,%rax
  40f9bb:	f3 0f 10 00          	movss  (%rax),%xmm0
  40f9bf:	f3 0f 58 c1          	addss  %xmm1,%xmm0
  40f9c3:	f3 0f 11 85 68 f3 ff 	movss  %xmm0,-0xc98(%rbp)
  40f9ca:	ff 
  40f9cb:	f3 0f 10 8d 6c f3 ff 	movss  -0xc94(%rbp),%xmm1
  40f9d2:	ff 
  40f9d3:	8b 85 20 f3 ff ff    	mov    -0xce0(%rbp),%eax
  40f9d9:	48 98                	cltq   
  40f9db:	48 c1 e0 04          	shl    $0x4,%rax
  40f9df:	48 01 e8             	add    %rbp,%rax
  40f9e2:	48 2d 84 0c 00 00    	sub    $0xc84,%rax
  40f9e8:	f3 0f 10 00          	movss  (%rax),%xmm0
  40f9ec:	f3 0f 58 c1          	addss  %xmm1,%xmm0
  40f9f0:	f3 0f 11 85 6c f3 ff 	movss  %xmm0,-0xc94(%rbp)
  40f9f7:	ff 
  40f9f8:	83 85 20 f3 ff ff 01 	addl   $0x1,-0xce0(%rbp)
  40f9ff:	f3 0f 10 8d 60 f3 ff 	movss  -0xca0(%rbp),%xmm1
  40fa06:	ff 
  40fa07:	8b 85 20 f3 ff ff    	mov    -0xce0(%rbp),%eax
  40fa0d:	48 98                	cltq   
  40fa0f:	48 c1 e0 04          	shl    $0x4,%rax
  40fa13:	48 01 e8             	add    %rbp,%rax
  40fa16:	48 2d 90 0c 00 00    	sub    $0xc90,%rax
  40fa1c:	f3 0f 10 00          	movss  (%rax),%xmm0
  40fa20:	f3 0f 58 c1          	addss  %xmm1,%xmm0
  40fa24:	f3 0f 11 85 60 f3 ff 	movss  %xmm0,-0xca0(%rbp)
  40fa2b:	ff 
  40fa2c:	f3 0f 10 8d 64 f3 ff 	movss  -0xc9c(%rbp),%xmm1
  40fa33:	ff 
  40fa34:	8b 85 20 f3 ff ff    	mov    -0xce0(%rbp),%eax
  40fa3a:	48 98                	cltq   
  40fa3c:	48 c1 e0 04          	shl    $0x4,%rax
  40fa40:	48 01 e8             	add    %rbp,%rax
  40fa43:	48 2d 8c 0c 00 00    	sub    $0xc8c,%rax
  40fa49:	f3 0f 10 00          	movss  (%rax),%xmm0
  40fa4d:	f3 0f 58 c1          	addss  %xmm1,%xmm0
  40fa51:	f3 0f 11 85 64 f3 ff 	movss  %xmm0,-0xc9c(%rbp)
  40fa58:	ff 
  40fa59:	f3 0f 10 8d 68 f3 ff 	movss  -0xc98(%rbp),%xmm1
  40fa60:	ff 
  40fa61:	8b 85 20 f3 ff ff    	mov    -0xce0(%rbp),%eax
  40fa67:	48 98                	cltq   
  40fa69:	48 c1 e0 04          	shl    $0x4,%rax
  40fa6d:	48 01 e8             	add    %rbp,%rax
  40fa70:	48 2d 88 0c 00 00    	sub    $0xc88,%rax
  40fa76:	f3 0f 10 00          	movss  (%rax),%xmm0
  40fa7a:	f3 0f 58 c1          	addss  %xmm1,%xmm0
  40fa7e:	f3 0f 11 85 68 f3 ff 	movss  %xmm0,-0xc98(%rbp)
  40fa85:	ff 
  40fa86:	f3 0f 10 8d 6c f3 ff 	movss  -0xc94(%rbp),%xmm1
  40fa8d:	ff 
  40fa8e:	8b 85 20 f3 ff ff    	mov    -0xce0(%rbp),%eax
  40fa94:	48 98                	cltq   
  40fa96:	48 c1 e0 04          	shl    $0x4,%rax
  40fa9a:	48 01 e8             	add    %rbp,%rax
  40fa9d:	48 2d 84 0c 00 00    	sub    $0xc84,%rax
  40faa3:	f3 0f 10 00          	movss  (%rax),%xmm0
  40faa7:	f3 0f 58 c1          	addss  %xmm1,%xmm0
  40faab:	f3 0f 11 85 6c f3 ff 	movss  %xmm0,-0xc94(%rbp)
  40fab2:	ff 
  40fab3:	83 85 20 f3 ff ff 01 	addl   $0x1,-0xce0(%rbp)
  40faba:	f3 0f 10 8d 60 f3 ff 	movss  -0xca0(%rbp),%xmm1
  40fac1:	ff 
  40fac2:	8b 85 20 f3 ff ff    	mov    -0xce0(%rbp),%eax
  40fac8:	48 98                	cltq   
  40faca:	48 c1 e0 04          	shl    $0x4,%rax
  40face:	48 01 e8             	add    %rbp,%rax
  40fad1:	48 2d 90 0c 00 00    	sub    $0xc90,%rax
  40fad7:	f3 0f 10 00          	movss  (%rax),%xmm0
  40fadb:	f3 0f 58 c1          	addss  %xmm1,%xmm0
  40fadf:	f3 0f 11 85 60 f3 ff 	movss  %xmm0,-0xca0(%rbp)
  40fae6:	ff 
  40fae7:	f3 0f 10 8d 64 f3 ff 	movss  -0xc9c(%rbp),%xmm1
  40faee:	ff 
  40faef:	8b 85 20 f3 ff ff    	mov    -0xce0(%rbp),%eax
  40faf5:	48 98                	cltq   
  40faf7:	48 c1 e0 04          	shl    $0x4,%rax
  40fafb:	48 01 e8             	add    %rbp,%rax
  40fafe:	48 2d 8c 0c 00 00    	sub    $0xc8c,%rax
  40fb04:	f3 0f 10 00          	movss  (%rax),%xmm0
  40fb08:	f3 0f 58 c1          	addss  %xmm1,%xmm0
  40fb0c:	f3 0f 11 85 64 f3 ff 	movss  %xmm0,-0xc9c(%rbp)
  40fb13:	ff 
  40fb14:	f3 0f 10 8d 68 f3 ff 	movss  -0xc98(%rbp),%xmm1
  40fb1b:	ff 
  40fb1c:	8b 85 20 f3 ff ff    	mov    -0xce0(%rbp),%eax
  40fb22:	48 98                	cltq   
  40fb24:	48 c1 e0 04          	shl    $0x4,%rax
  40fb28:	48 01 e8             	add    %rbp,%rax
  40fb2b:	48 2d 88 0c 00 00    	sub    $0xc88,%rax
  40fb31:	f3 0f 10 00          	movss  (%rax),%xmm0
  40fb35:	f3 0f 58 c1          	addss  %xmm1,%xmm0
  40fb39:	f3 0f 11 85 68 f3 ff 	movss  %xmm0,-0xc98(%rbp)
  40fb40:	ff 
  40fb41:	f3 0f 10 8d 6c f3 ff 	movss  -0xc94(%rbp),%xmm1
  40fb48:	ff 
  40fb49:	8b 85 20 f3 ff ff    	mov    -0xce0(%rbp),%eax
  40fb4f:	48 98                	cltq   
  40fb51:	48 c1 e0 04          	shl    $0x4,%rax
  40fb55:	48 01 e8             	add    %rbp,%rax
  40fb58:	48 2d 84 0c 00 00    	sub    $0xc84,%rax
  40fb5e:	f3 0f 10 00          	movss  (%rax),%xmm0
  40fb62:	f3 0f 58 c1          	addss  %xmm1,%xmm0
  40fb66:	f3 0f 11 85 6c f3 ff 	movss  %xmm0,-0xc94(%rbp)
  40fb6d:	ff 
  40fb6e:	83 85 20 f3 ff ff 01 	addl   $0x1,-0xce0(%rbp)
  40fb75:	f3 0f 10 8d 60 f3 ff 	movss  -0xca0(%rbp),%xmm1
  40fb7c:	ff 
  40fb7d:	8b 85 20 f3 ff ff    	mov    -0xce0(%rbp),%eax
  40fb83:	48 98                	cltq   
  40fb85:	48 c1 e0 04          	shl    $0x4,%rax
  40fb89:	48 01 e8             	add    %rbp,%rax
  40fb8c:	48 2d 90 0c 00 00    	sub    $0xc90,%rax
  40fb92:	f3 0f 10 00          	movss  (%rax),%xmm0
  40fb96:	f3 0f 58 c1          	addss  %xmm1,%xmm0
  40fb9a:	f3 0f 11 85 60 f3 ff 	movss  %xmm0,-0xca0(%rbp)
  40fba1:	ff 
  40fba2:	f3 0f 10 8d 64 f3 ff 	movss  -0xc9c(%rbp),%xmm1
  40fba9:	ff 
  40fbaa:	8b 85 20 f3 ff ff    	mov    -0xce0(%rbp),%eax
  40fbb0:	48 98                	cltq   
  40fbb2:	48 c1 e0 04          	shl    $0x4,%rax
  40fbb6:	48 01 e8             	add    %rbp,%rax
  40fbb9:	48 2d 8c 0c 00 00    	sub    $0xc8c,%rax
  40fbbf:	f3 0f 10 00          	movss  (%rax),%xmm0
  40fbc3:	f3 0f 58 c1          	addss  %xmm1,%xmm0
  40fbc7:	f3 0f 11 85 64 f3 ff 	movss  %xmm0,-0xc9c(%rbp)
  40fbce:	ff 
  40fbcf:	f3 0f 10 8d 68 f3 ff 	movss  -0xc98(%rbp),%xmm1
  40fbd6:	ff 
  40fbd7:	8b 85 20 f3 ff ff    	mov    -0xce0(%rbp),%eax
  40fbdd:	48 98                	cltq   
  40fbdf:	48 c1 e0 04          	shl    $0x4,%rax
  40fbe3:	48 01 e8             	add    %rbp,%rax
  40fbe6:	48 2d 88 0c 00 00    	sub    $0xc88,%rax
  40fbec:	f3 0f 10 00          	movss  (%rax),%xmm0
  40fbf0:	f3 0f 58 c1          	addss  %xmm1,%xmm0
  40fbf4:	f3 0f 11 85 68 f3 ff 	movss  %xmm0,-0xc98(%rbp)
  40fbfb:	ff 
  40fbfc:	f3 0f 10 8d 6c f3 ff 	movss  -0xc94(%rbp),%xmm1
  40fc03:	ff 
  40fc04:	8b 85 20 f3 ff ff    	mov    -0xce0(%rbp),%eax
  40fc0a:	48 98                	cltq   
  40fc0c:	48 c1 e0 04          	shl    $0x4,%rax
  40fc10:	48 01 e8             	add    %rbp,%rax
  40fc13:	48 2d 84 0c 00 00    	sub    $0xc84,%rax
  40fc19:	f3 0f 10 00          	movss  (%rax),%xmm0
  40fc1d:	f3 0f 58 c1          	addss  %xmm1,%xmm0
  40fc21:	f3 0f 11 85 6c f3 ff 	movss  %xmm0,-0xc94(%rbp)
  40fc28:	ff 
  40fc29:	83 85 20 f3 ff ff 01 	addl   $0x1,-0xce0(%rbp)
  40fc30:	f3 0f 10 8d 60 f3 ff 	movss  -0xca0(%rbp),%xmm1
  40fc37:	ff 
  40fc38:	8b 85 20 f3 ff ff    	mov    -0xce0(%rbp),%eax
  40fc3e:	48 98                	cltq   
  40fc40:	48 c1 e0 04          	shl    $0x4,%rax
  40fc44:	48 01 e8             	add    %rbp,%rax
  40fc47:	48 2d 90 0c 00 00    	sub    $0xc90,%rax
  40fc4d:	f3 0f 10 00          	movss  (%rax),%xmm0
  40fc51:	f3 0f 58 c1          	addss  %xmm1,%xmm0
  40fc55:	f3 0f 11 85 60 f3 ff 	movss  %xmm0,-0xca0(%rbp)
  40fc5c:	ff 
  40fc5d:	f3 0f 10 8d 64 f3 ff 	movss  -0xc9c(%rbp),%xmm1
  40fc64:	ff 
  40fc65:	8b 85 20 f3 ff ff    	mov    -0xce0(%rbp),%eax
  40fc6b:	48 98                	cltq   
  40fc6d:	48 c1 e0 04          	shl    $0x4,%rax
  40fc71:	48 01 e8             	add    %rbp,%rax
  40fc74:	48 2d 8c 0c 00 00    	sub    $0xc8c,%rax
  40fc7a:	f3 0f 10 00          	movss  (%rax),%xmm0
  40fc7e:	f3 0f 58 c1          	addss  %xmm1,%xmm0
  40fc82:	f3 0f 11 85 64 f3 ff 	movss  %xmm0,-0xc9c(%rbp)
  40fc89:	ff 
  40fc8a:	f3 0f 10 8d 68 f3 ff 	movss  -0xc98(%rbp),%xmm1
  40fc91:	ff 
  40fc92:	8b 85 20 f3 ff ff    	mov    -0xce0(%rbp),%eax
  40fc98:	48 98                	cltq   
  40fc9a:	48 c1 e0 04          	shl    $0x4,%rax
  40fc9e:	48 01 e8             	add    %rbp,%rax
  40fca1:	48 2d 88 0c 00 00    	sub    $0xc88,%rax
  40fca7:	f3 0f 10 00          	movss  (%rax),%xmm0
  40fcab:	f3 0f 58 c1          	addss  %xmm1,%xmm0
  40fcaf:	f3 0f 11 85 68 f3 ff 	movss  %xmm0,-0xc98(%rbp)
  40fcb6:	ff 
  40fcb7:	f3 0f 10 8d 6c f3 ff 	movss  -0xc94(%rbp),%xmm1
  40fcbe:	ff 
  40fcbf:	8b 85 20 f3 ff ff    	mov    -0xce0(%rbp),%eax
  40fcc5:	48 98                	cltq   
  40fcc7:	48 c1 e0 04          	shl    $0x4,%rax
  40fccb:	48 01 e8             	add    %rbp,%rax
  40fcce:	48 2d 84 0c 00 00    	sub    $0xc84,%rax
  40fcd4:	f3 0f 10 00          	movss  (%rax),%xmm0
  40fcd8:	f3 0f 58 c1          	addss  %xmm1,%xmm0
  40fcdc:	f3 0f 11 85 6c f3 ff 	movss  %xmm0,-0xc94(%rbp)
  40fce3:	ff 
  40fce4:	83 85 20 f3 ff ff 01 	addl   $0x1,-0xce0(%rbp)
  40fceb:	f3 0f 10 8d 60 f3 ff 	movss  -0xca0(%rbp),%xmm1
  40fcf2:	ff 
  40fcf3:	8b 85 20 f3 ff ff    	mov    -0xce0(%rbp),%eax
  40fcf9:	48 98                	cltq   
  40fcfb:	48 c1 e0 04          	shl    $0x4,%rax
  40fcff:	48 01 e8             	add    %rbp,%rax
  40fd02:	48 2d 90 0c 00 00    	sub    $0xc90,%rax
  40fd08:	f3 0f 10 00          	movss  (%rax),%xmm0
  40fd0c:	f3 0f 58 c1          	addss  %xmm1,%xmm0
  40fd10:	f3 0f 11 85 60 f3 ff 	movss  %xmm0,-0xca0(%rbp)
  40fd17:	ff 
  40fd18:	f3 0f 10 8d 64 f3 ff 	movss  -0xc9c(%rbp),%xmm1
  40fd1f:	ff 
  40fd20:	8b 85 20 f3 ff ff    	mov    -0xce0(%rbp),%eax
  40fd26:	48 98                	cltq   
  40fd28:	48 c1 e0 04          	shl    $0x4,%rax
  40fd2c:	48 01 e8             	add    %rbp,%rax
  40fd2f:	48 2d 8c 0c 00 00    	sub    $0xc8c,%rax
  40fd35:	f3 0f 10 00          	movss  (%rax),%xmm0
  40fd39:	f3 0f 58 c1          	addss  %xmm1,%xmm0
  40fd3d:	f3 0f 11 85 64 f3 ff 	movss  %xmm0,-0xc9c(%rbp)
  40fd44:	ff 
  40fd45:	f3 0f 10 8d 68 f3 ff 	movss  -0xc98(%rbp),%xmm1
  40fd4c:	ff 
  40fd4d:	8b 85 20 f3 ff ff    	mov    -0xce0(%rbp),%eax
  40fd53:	48 98                	cltq   
  40fd55:	48 c1 e0 04          	shl    $0x4,%rax
  40fd59:	48 01 e8             	add    %rbp,%rax
  40fd5c:	48 2d 88 0c 00 00    	sub    $0xc88,%rax
  40fd62:	f3 0f 10 00          	movss  (%rax),%xmm0
  40fd66:	f3 0f 58 c1          	addss  %xmm1,%xmm0
  40fd6a:	f3 0f 11 85 68 f3 ff 	movss  %xmm0,-0xc98(%rbp)
  40fd71:	ff 
  40fd72:	f3 0f 10 8d 6c f3 ff 	movss  -0xc94(%rbp),%xmm1
  40fd79:	ff 
  40fd7a:	8b 85 20 f3 ff ff    	mov    -0xce0(%rbp),%eax
  40fd80:	48 98                	cltq   
  40fd82:	48 c1 e0 04          	shl    $0x4,%rax
  40fd86:	48 01 e8             	add    %rbp,%rax
  40fd89:	48 2d 84 0c 00 00    	sub    $0xc84,%rax
  40fd8f:	f3 0f 10 00          	movss  (%rax),%xmm0
  40fd93:	f3 0f 58 c1          	addss  %xmm1,%xmm0
  40fd97:	f3 0f 11 85 6c f3 ff 	movss  %xmm0,-0xc94(%rbp)
  40fd9e:	ff 
  40fd9f:	83 85 20 f3 ff ff 01 	addl   $0x1,-0xce0(%rbp)
  40fda6:	f3 0f 10 85 1c f3 ff 	movss  -0xce4(%rbp),%xmm0
  40fdad:	ff 
  40fdae:	f3 0f 59 85 1c f3 ff 	mulss  -0xce4(%rbp),%xmm0
  40fdb5:	ff 
  40fdb6:	f3 0f 11 85 1c f3 ff 	movss  %xmm0,-0xce4(%rbp)
  40fdbd:	ff 
  40fdbe:	83 85 38 f3 ff ff 01 	addl   $0x1,-0xcc8(%rbp)
  40fdc5:	83 85 20 f3 ff ff 01 	addl   $0x1,-0xce0(%rbp)
  40fdcc:	f3 0f 10 8d 60 f3 ff 	movss  -0xca0(%rbp),%xmm1
  40fdd3:	ff 
  40fdd4:	8b 85 20 f3 ff ff    	mov    -0xce0(%rbp),%eax
  40fdda:	48 98                	cltq   
  40fddc:	48 c1 e0 04          	shl    $0x4,%rax
  40fde0:	48 01 e8             	add    %rbp,%rax
  40fde3:	48 2d 90 0c 00 00    	sub    $0xc90,%rax
  40fde9:	f3 0f 10 00          	movss  (%rax),%xmm0
  40fded:	f3 0f 58 c1          	addss  %xmm1,%xmm0
  40fdf1:	f3 0f 11 85 60 f3 ff 	movss  %xmm0,-0xca0(%rbp)
  40fdf8:	ff 
  40fdf9:	f3 0f 10 8d 64 f3 ff 	movss  -0xc9c(%rbp),%xmm1
  40fe00:	ff 
  40fe01:	8b 85 20 f3 ff ff    	mov    -0xce0(%rbp),%eax
  40fe07:	48 98                	cltq   
  40fe09:	48 c1 e0 04          	shl    $0x4,%rax
  40fe0d:	48 01 e8             	add    %rbp,%rax
  40fe10:	48 2d 8c 0c 00 00    	sub    $0xc8c,%rax
  40fe16:	f3 0f 10 00          	movss  (%rax),%xmm0
  40fe1a:	f3 0f 58 c1          	addss  %xmm1,%xmm0
  40fe1e:	f3 0f 11 85 64 f3 ff 	movss  %xmm0,-0xc9c(%rbp)
  40fe25:	ff 
  40fe26:	f3 0f 10 8d 68 f3 ff 	movss  -0xc98(%rbp),%xmm1
  40fe2d:	ff 
  40fe2e:	8b 85 20 f3 ff ff    	mov    -0xce0(%rbp),%eax
  40fe34:	48 98                	cltq   
  40fe36:	48 c1 e0 04          	shl    $0x4,%rax
  40fe3a:	48 01 e8             	add    %rbp,%rax
  40fe3d:	48 2d 88 0c 00 00    	sub    $0xc88,%rax
  40fe43:	f3 0f 10 00          	movss  (%rax),%xmm0
  40fe47:	f3 0f 58 c1          	addss  %xmm1,%xmm0
  40fe4b:	f3 0f 11 85 68 f3 ff 	movss  %xmm0,-0xc98(%rbp)
  40fe52:	ff 
  40fe53:	f3 0f 10 8d 6c f3 ff 	movss  -0xc94(%rbp),%xmm1
  40fe5a:	ff 
  40fe5b:	8b 85 20 f3 ff ff    	mov    -0xce0(%rbp),%eax
  40fe61:	48 98                	cltq   
  40fe63:	48 c1 e0 04          	shl    $0x4,%rax
  40fe67:	48 01 e8             	add    %rbp,%rax
  40fe6a:	48 2d 84 0c 00 00    	sub    $0xc84,%rax
  40fe70:	f3 0f 10 00          	movss  (%rax),%xmm0
  40fe74:	f3 0f 58 c1          	addss  %xmm1,%xmm0
  40fe78:	f3 0f 11 85 6c f3 ff 	movss  %xmm0,-0xc94(%rbp)
  40fe7f:	ff 
  40fe80:	83 85 20 f3 ff ff 01 	addl   $0x1,-0xce0(%rbp)
  40fe87:	f3 0f 10 8d 60 f3 ff 	movss  -0xca0(%rbp),%xmm1
  40fe8e:	ff 
  40fe8f:	8b 85 20 f3 ff ff    	mov    -0xce0(%rbp),%eax
  40fe95:	48 98                	cltq   
  40fe97:	48 c1 e0 04          	shl    $0x4,%rax
  40fe9b:	48 01 e8             	add    %rbp,%rax
  40fe9e:	48 2d 90 0c 00 00    	sub    $0xc90,%rax
  40fea4:	f3 0f 10 00          	movss  (%rax),%xmm0
  40fea8:	f3 0f 58 c1          	addss  %xmm1,%xmm0
  40feac:	f3 0f 11 85 60 f3 ff 	movss  %xmm0,-0xca0(%rbp)
  40feb3:	ff 
  40feb4:	f3 0f 10 8d 64 f3 ff 	movss  -0xc9c(%rbp),%xmm1
  40febb:	ff 
  40febc:	8b 85 20 f3 ff ff    	mov    -0xce0(%rbp),%eax
  40fec2:	48 98                	cltq   
  40fec4:	48 c1 e0 04          	shl    $0x4,%rax
  40fec8:	48 01 e8             	add    %rbp,%rax
  40fecb:	48 2d 8c 0c 00 00    	sub    $0xc8c,%rax
  40fed1:	f3 0f 10 00          	movss  (%rax),%xmm0
  40fed5:	f3 0f 58 c1          	addss  %xmm1,%xmm0
  40fed9:	f3 0f 11 85 64 f3 ff 	movss  %xmm0,-0xc9c(%rbp)
  40fee0:	ff 
  40fee1:	f3 0f 10 8d 68 f3 ff 	movss  -0xc98(%rbp),%xmm1
  40fee8:	ff 
  40fee9:	8b 85 20 f3 ff ff    	mov    -0xce0(%rbp),%eax
  40feef:	48 98                	cltq   
  40fef1:	48 c1 e0 04          	shl    $0x4,%rax
  40fef5:	48 01 e8             	add    %rbp,%rax
  40fef8:	48 2d 88 0c 00 00    	sub    $0xc88,%rax
  40fefe:	f3 0f 10 00          	movss  (%rax),%xmm0
  40ff02:	f3 0f 58 c1          	addss  %xmm1,%xmm0
  40ff06:	f3 0f 11 85 68 f3 ff 	movss  %xmm0,-0xc98(%rbp)
  40ff0d:	ff 
  40ff0e:	f3 0f 10 8d 6c f3 ff 	movss  -0xc94(%rbp),%xmm1
  40ff15:	ff 
  40ff16:	8b 85 20 f3 ff ff    	mov    -0xce0(%rbp),%eax
  40ff1c:	48 98                	cltq   
  40ff1e:	48 c1 e0 04          	shl    $0x4,%rax
  40ff22:	48 01 e8             	add    %rbp,%rax
  40ff25:	48 2d 84 0c 00 00    	sub    $0xc84,%rax
  40ff2b:	f3 0f 10 00          	movss  (%rax),%xmm0
  40ff2f:	f3 0f 58 c1          	addss  %xmm1,%xmm0
  40ff33:	f3 0f 11 85 6c f3 ff 	movss  %xmm0,-0xc94(%rbp)
  40ff3a:	ff 
  40ff3b:	83 85 20 f3 ff ff 01 	addl   $0x1,-0xce0(%rbp)
  40ff42:	f3 0f 10 8d 60 f3 ff 	movss  -0xca0(%rbp),%xmm1
  40ff49:	ff 
  40ff4a:	8b 85 20 f3 ff ff    	mov    -0xce0(%rbp),%eax
  40ff50:	48 98                	cltq   
  40ff52:	48 c1 e0 04          	shl    $0x4,%rax
  40ff56:	48 01 e8             	add    %rbp,%rax
  40ff59:	48 2d 90 0c 00 00    	sub    $0xc90,%rax
  40ff5f:	f3 0f 10 00          	movss  (%rax),%xmm0
  40ff63:	f3 0f 58 c1          	addss  %xmm1,%xmm0
  40ff67:	f3 0f 11 85 60 f3 ff 	movss  %xmm0,-0xca0(%rbp)
  40ff6e:	ff 
  40ff6f:	f3 0f 10 8d 64 f3 ff 	movss  -0xc9c(%rbp),%xmm1
  40ff76:	ff 
  40ff77:	8b 85 20 f3 ff ff    	mov    -0xce0(%rbp),%eax
  40ff7d:	48 98                	cltq   
  40ff7f:	48 c1 e0 04          	shl    $0x4,%rax
  40ff83:	48 01 e8             	add    %rbp,%rax
  40ff86:	48 2d 8c 0c 00 00    	sub    $0xc8c,%rax
  40ff8c:	f3 0f 10 00          	movss  (%rax),%xmm0
  40ff90:	f3 0f 58 c1          	addss  %xmm1,%xmm0
  40ff94:	f3 0f 11 85 64 f3 ff 	movss  %xmm0,-0xc9c(%rbp)
  40ff9b:	ff 
  40ff9c:	f3 0f 10 8d 68 f3 ff 	movss  -0xc98(%rbp),%xmm1
  40ffa3:	ff 
  40ffa4:	8b 85 20 f3 ff ff    	mov    -0xce0(%rbp),%eax
  40ffaa:	48 98                	cltq   
  40ffac:	48 c1 e0 04          	shl    $0x4,%rax
  40ffb0:	48 01 e8             	add    %rbp,%rax
  40ffb3:	48 2d 88 0c 00 00    	sub    $0xc88,%rax
  40ffb9:	f3 0f 10 00          	movss  (%rax),%xmm0
  40ffbd:	f3 0f 58 c1          	addss  %xmm1,%xmm0
  40ffc1:	f3 0f 11 85 68 f3 ff 	movss  %xmm0,-0xc98(%rbp)
  40ffc8:	ff 
  40ffc9:	f3 0f 10 8d 6c f3 ff 	movss  -0xc94(%rbp),%xmm1
  40ffd0:	ff 
  40ffd1:	8b 85 20 f3 ff ff    	mov    -0xce0(%rbp),%eax
  40ffd7:	48 98                	cltq   
  40ffd9:	48 c1 e0 04          	shl    $0x4,%rax
  40ffdd:	48 01 e8             	add    %rbp,%rax
  40ffe0:	48 2d 84 0c 00 00    	sub    $0xc84,%rax
  40ffe6:	f3 0f 10 00          	movss  (%rax),%xmm0
  40ffea:	f3 0f 58 c1          	addss  %xmm1,%xmm0
  40ffee:	f3 0f 11 85 6c f3 ff 	movss  %xmm0,-0xc94(%rbp)
  40fff5:	ff 
  40fff6:	83 85 20 f3 ff ff 01 	addl   $0x1,-0xce0(%rbp)
  40fffd:	f3 0f 10 8d 60 f3 ff 	movss  -0xca0(%rbp),%xmm1
  410004:	ff 
  410005:	8b 85 20 f3 ff ff    	mov    -0xce0(%rbp),%eax
  41000b:	48 98                	cltq   
  41000d:	48 c1 e0 04          	shl    $0x4,%rax
  410011:	48 01 e8             	add    %rbp,%rax
  410014:	48 2d 90 0c 00 00    	sub    $0xc90,%rax
  41001a:	f3 0f 10 00          	movss  (%rax),%xmm0
  41001e:	f3 0f 58 c1          	addss  %xmm1,%xmm0
  410022:	f3 0f 11 85 60 f3 ff 	movss  %xmm0,-0xca0(%rbp)
  410029:	ff 
  41002a:	f3 0f 10 8d 64 f3 ff 	movss  -0xc9c(%rbp),%xmm1
  410031:	ff 
  410032:	8b 85 20 f3 ff ff    	mov    -0xce0(%rbp),%eax
  410038:	48 98                	cltq   
  41003a:	48 c1 e0 04          	shl    $0x4,%rax
  41003e:	48 01 e8             	add    %rbp,%rax
  410041:	48 2d 8c 0c 00 00    	sub    $0xc8c,%rax
  410047:	f3 0f 10 00          	movss  (%rax),%xmm0
  41004b:	f3 0f 58 c1          	addss  %xmm1,%xmm0
  41004f:	f3 0f 11 85 64 f3 ff 	movss  %xmm0,-0xc9c(%rbp)
  410056:	ff 
  410057:	f3 0f 10 8d 68 f3 ff 	movss  -0xc98(%rbp),%xmm1
  41005e:	ff 
  41005f:	8b 85 20 f3 ff ff    	mov    -0xce0(%rbp),%eax
  410065:	48 98                	cltq   
  410067:	48 c1 e0 04          	shl    $0x4,%rax
  41006b:	48 01 e8             	add    %rbp,%rax
  41006e:	48 2d 88 0c 00 00    	sub    $0xc88,%rax
  410074:	f3 0f 10 00          	movss  (%rax),%xmm0
  410078:	f3 0f 58 c1          	addss  %xmm1,%xmm0
  41007c:	f3 0f 11 85 68 f3 ff 	movss  %xmm0,-0xc98(%rbp)
  410083:	ff 
  410084:	f3 0f 10 8d 6c f3 ff 	movss  -0xc94(%rbp),%xmm1
  41008b:	ff 
  41008c:	8b 85 20 f3 ff ff    	mov    -0xce0(%rbp),%eax
  410092:	48 98                	cltq   
  410094:	48 c1 e0 04          	shl    $0x4,%rax
  410098:	48 01 e8             	add    %rbp,%rax
  41009b:	48 2d 84 0c 00 00    	sub    $0xc84,%rax
  4100a1:	f3 0f 10 00          	movss  (%rax),%xmm0
  4100a5:	f3 0f 58 c1          	addss  %xmm1,%xmm0
  4100a9:	f3 0f 11 85 6c f3 ff 	movss  %xmm0,-0xc94(%rbp)
  4100b0:	ff 
  4100b1:	83 85 20 f3 ff ff 01 	addl   $0x1,-0xce0(%rbp)
  4100b8:	f3 0f 10 8d 60 f3 ff 	movss  -0xca0(%rbp),%xmm1
  4100bf:	ff 
  4100c0:	8b 85 20 f3 ff ff    	mov    -0xce0(%rbp),%eax
  4100c6:	48 98                	cltq   
  4100c8:	48 c1 e0 04          	shl    $0x4,%rax
  4100cc:	48 01 e8             	add    %rbp,%rax
  4100cf:	48 2d 90 0c 00 00    	sub    $0xc90,%rax
  4100d5:	f3 0f 10 00          	movss  (%rax),%xmm0
  4100d9:	f3 0f 58 c1          	addss  %xmm1,%xmm0
  4100dd:	f3 0f 11 85 60 f3 ff 	movss  %xmm0,-0xca0(%rbp)
  4100e4:	ff 
  4100e5:	f3 0f 10 8d 64 f3 ff 	movss  -0xc9c(%rbp),%xmm1
  4100ec:	ff 
  4100ed:	8b 85 20 f3 ff ff    	mov    -0xce0(%rbp),%eax
  4100f3:	48 98                	cltq   
  4100f5:	48 c1 e0 04          	shl    $0x4,%rax
  4100f9:	48 01 e8             	add    %rbp,%rax
  4100fc:	48 2d 8c 0c 00 00    	sub    $0xc8c,%rax
  410102:	f3 0f 10 00          	movss  (%rax),%xmm0
  410106:	f3 0f 58 c1          	addss  %xmm1,%xmm0
  41010a:	f3 0f 11 85 64 f3 ff 	movss  %xmm0,-0xc9c(%rbp)
  410111:	ff 
  410112:	f3 0f 10 8d 68 f3 ff 	movss  -0xc98(%rbp),%xmm1
  410119:	ff 
  41011a:	8b 85 20 f3 ff ff    	mov    -0xce0(%rbp),%eax
  410120:	48 98                	cltq   
  410122:	48 c1 e0 04          	shl    $0x4,%rax
  410126:	48 01 e8             	add    %rbp,%rax
  410129:	48 2d 88 0c 00 00    	sub    $0xc88,%rax
  41012f:	f3 0f 10 00          	movss  (%rax),%xmm0
  410133:	f3 0f 58 c1          	addss  %xmm1,%xmm0
  410137:	f3 0f 11 85 68 f3 ff 	movss  %xmm0,-0xc98(%rbp)
  41013e:	ff 
  41013f:	f3 0f 10 8d 6c f3 ff 	movss  -0xc94(%rbp),%xmm1
  410146:	ff 
  410147:	8b 85 20 f3 ff ff    	mov    -0xce0(%rbp),%eax
  41014d:	48 98                	cltq   
  41014f:	48 c1 e0 04          	shl    $0x4,%rax
  410153:	48 01 e8             	add    %rbp,%rax
  410156:	48 2d 84 0c 00 00    	sub    $0xc84,%rax
  41015c:	f3 0f 10 00          	movss  (%rax),%xmm0
  410160:	f3 0f 58 c1          	addss  %xmm1,%xmm0
  410164:	f3 0f 11 85 6c f3 ff 	movss  %xmm0,-0xc94(%rbp)
  41016b:	ff 
  41016c:	83 85 20 f3 ff ff 01 	addl   $0x1,-0xce0(%rbp)
  410173:	f3 0f 10 8d 60 f3 ff 	movss  -0xca0(%rbp),%xmm1
  41017a:	ff 
  41017b:	8b 85 20 f3 ff ff    	mov    -0xce0(%rbp),%eax
  410181:	48 98                	cltq   
  410183:	48 c1 e0 04          	shl    $0x4,%rax
  410187:	48 01 e8             	add    %rbp,%rax
  41018a:	48 2d 90 0c 00 00    	sub    $0xc90,%rax
  410190:	f3 0f 10 00          	movss  (%rax),%xmm0
  410194:	f3 0f 58 c1          	addss  %xmm1,%xmm0
  410198:	f3 0f 11 85 60 f3 ff 	movss  %xmm0,-0xca0(%rbp)
  41019f:	ff 
  4101a0:	f3 0f 10 8d 64 f3 ff 	movss  -0xc9c(%rbp),%xmm1
  4101a7:	ff 
  4101a8:	8b 85 20 f3 ff ff    	mov    -0xce0(%rbp),%eax
  4101ae:	48 98                	cltq   
  4101b0:	48 c1 e0 04          	shl    $0x4,%rax
  4101b4:	48 01 e8             	add    %rbp,%rax
  4101b7:	48 2d 8c 0c 00 00    	sub    $0xc8c,%rax
  4101bd:	f3 0f 10 00          	movss  (%rax),%xmm0
  4101c1:	f3 0f 58 c1          	addss  %xmm1,%xmm0
  4101c5:	f3 0f 11 85 64 f3 ff 	movss  %xmm0,-0xc9c(%rbp)
  4101cc:	ff 
  4101cd:	f3 0f 10 8d 68 f3 ff 	movss  -0xc98(%rbp),%xmm1
  4101d4:	ff 
  4101d5:	8b 85 20 f3 ff ff    	mov    -0xce0(%rbp),%eax
  4101db:	48 98                	cltq   
  4101dd:	48 c1 e0 04          	shl    $0x4,%rax
  4101e1:	48 01 e8             	add    %rbp,%rax
  4101e4:	48 2d 88 0c 00 00    	sub    $0xc88,%rax
  4101ea:	f3 0f 10 00          	movss  (%rax),%xmm0
  4101ee:	f3 0f 58 c1          	addss  %xmm1,%xmm0
  4101f2:	f3 0f 11 85 68 f3 ff 	movss  %xmm0,-0xc98(%rbp)
  4101f9:	ff 
  4101fa:	f3 0f 10 8d 6c f3 ff 	movss  -0xc94(%rbp),%xmm1
  410201:	ff 
  410202:	8b 85 20 f3 ff ff    	mov    -0xce0(%rbp),%eax
  410208:	48 98                	cltq   
  41020a:	48 c1 e0 04          	shl    $0x4,%rax
  41020e:	48 01 e8             	add    %rbp,%rax
  410211:	48 2d 84 0c 00 00    	sub    $0xc84,%rax
  410217:	f3 0f 10 00          	movss  (%rax),%xmm0
  41021b:	f3 0f 58 c1          	addss  %xmm1,%xmm0
  41021f:	f3 0f 11 85 6c f3 ff 	movss  %xmm0,-0xc94(%rbp)
  410226:	ff 
  410227:	83 85 20 f3 ff ff 01 	addl   $0x1,-0xce0(%rbp)
  41022e:	f3 0f 10 8d 60 f3 ff 	movss  -0xca0(%rbp),%xmm1
  410235:	ff 
  410236:	8b 85 20 f3 ff ff    	mov    -0xce0(%rbp),%eax
  41023c:	48 98                	cltq   
  41023e:	48 c1 e0 04          	shl    $0x4,%rax
  410242:	48 01 e8             	add    %rbp,%rax
  410245:	48 2d 90 0c 00 00    	sub    $0xc90,%rax
  41024b:	f3 0f 10 00          	movss  (%rax),%xmm0
  41024f:	f3 0f 58 c1          	addss  %xmm1,%xmm0
  410253:	f3 0f 11 85 60 f3 ff 	movss  %xmm0,-0xca0(%rbp)
  41025a:	ff 
  41025b:	f3 0f 10 8d 64 f3 ff 	movss  -0xc9c(%rbp),%xmm1
  410262:	ff 
  410263:	8b 85 20 f3 ff ff    	mov    -0xce0(%rbp),%eax
  410269:	48 98                	cltq   
  41026b:	48 c1 e0 04          	shl    $0x4,%rax
  41026f:	48 01 e8             	add    %rbp,%rax
  410272:	48 2d 8c 0c 00 00    	sub    $0xc8c,%rax
  410278:	f3 0f 10 00          	movss  (%rax),%xmm0
  41027c:	f3 0f 58 c1          	addss  %xmm1,%xmm0
  410280:	f3 0f 11 85 64 f3 ff 	movss  %xmm0,-0xc9c(%rbp)
  410287:	ff 
  410288:	f3 0f 10 8d 68 f3 ff 	movss  -0xc98(%rbp),%xmm1
  41028f:	ff 
  410290:	8b 85 20 f3 ff ff    	mov    -0xce0(%rbp),%eax
  410296:	48 98                	cltq   
  410298:	48 c1 e0 04          	shl    $0x4,%rax
  41029c:	48 01 e8             	add    %rbp,%rax
  41029f:	48 2d 88 0c 00 00    	sub    $0xc88,%rax
  4102a5:	f3 0f 10 00          	movss  (%rax),%xmm0
  4102a9:	f3 0f 58 c1          	addss  %xmm1,%xmm0
  4102ad:	f3 0f 11 85 68 f3 ff 	movss  %xmm0,-0xc98(%rbp)
  4102b4:	ff 
  4102b5:	f3 0f 10 8d 6c f3 ff 	movss  -0xc94(%rbp),%xmm1
  4102bc:	ff 
  4102bd:	8b 85 20 f3 ff ff    	mov    -0xce0(%rbp),%eax
  4102c3:	48 98                	cltq   
  4102c5:	48 c1 e0 04          	shl    $0x4,%rax
  4102c9:	48 01 e8             	add    %rbp,%rax
  4102cc:	48 2d 84 0c 00 00    	sub    $0xc84,%rax
  4102d2:	f3 0f 10 00          	movss  (%rax),%xmm0
  4102d6:	f3 0f 58 c1          	addss  %xmm1,%xmm0
  4102da:	f3 0f 11 85 6c f3 ff 	movss  %xmm0,-0xc94(%rbp)
  4102e1:	ff 
  4102e2:	83 85 20 f3 ff ff 01 	addl   $0x1,-0xce0(%rbp)
  4102e9:	f3 0f 10 8d 60 f3 ff 	movss  -0xca0(%rbp),%xmm1
  4102f0:	ff 
  4102f1:	8b 85 20 f3 ff ff    	mov    -0xce0(%rbp),%eax
  4102f7:	48 98                	cltq   
  4102f9:	48 c1 e0 04          	shl    $0x4,%rax
  4102fd:	48 01 e8             	add    %rbp,%rax
  410300:	48 2d 90 0c 00 00    	sub    $0xc90,%rax
  410306:	f3 0f 10 00          	movss  (%rax),%xmm0
  41030a:	f3 0f 58 c1          	addss  %xmm1,%xmm0
  41030e:	f3 0f 11 85 60 f3 ff 	movss  %xmm0,-0xca0(%rbp)
  410315:	ff 
  410316:	f3 0f 10 8d 64 f3 ff 	movss  -0xc9c(%rbp),%xmm1
  41031d:	ff 
  41031e:	8b 85 20 f3 ff ff    	mov    -0xce0(%rbp),%eax
  410324:	48 98                	cltq   
  410326:	48 c1 e0 04          	shl    $0x4,%rax
  41032a:	48 01 e8             	add    %rbp,%rax
  41032d:	48 2d 8c 0c 00 00    	sub    $0xc8c,%rax
  410333:	f3 0f 10 00          	movss  (%rax),%xmm0
  410337:	f3 0f 58 c1          	addss  %xmm1,%xmm0
  41033b:	f3 0f 11 85 64 f3 ff 	movss  %xmm0,-0xc9c(%rbp)
  410342:	ff 
  410343:	f3 0f 10 8d 68 f3 ff 	movss  -0xc98(%rbp),%xmm1
  41034a:	ff 
  41034b:	8b 85 20 f3 ff ff    	mov    -0xce0(%rbp),%eax
  410351:	48 98                	cltq   
  410353:	48 c1 e0 04          	shl    $0x4,%rax
  410357:	48 01 e8             	add    %rbp,%rax
  41035a:	48 2d 88 0c 00 00    	sub    $0xc88,%rax
  410360:	f3 0f 10 00          	movss  (%rax),%xmm0
  410364:	f3 0f 58 c1          	addss  %xmm1,%xmm0
  410368:	f3 0f 11 85 68 f3 ff 	movss  %xmm0,-0xc98(%rbp)
  41036f:	ff 
  410370:	f3 0f 10 8d 6c f3 ff 	movss  -0xc94(%rbp),%xmm1
  410377:	ff 
  410378:	8b 85 20 f3 ff ff    	mov    -0xce0(%rbp),%eax
  41037e:	48 98                	cltq   
  410380:	48 c1 e0 04          	shl    $0x4,%rax
  410384:	48 01 e8             	add    %rbp,%rax
  410387:	48 2d 84 0c 00 00    	sub    $0xc84,%rax
  41038d:	f3 0f 10 00          	movss  (%rax),%xmm0
  410391:	f3 0f 58 c1          	addss  %xmm1,%xmm0
  410395:	f3 0f 11 85 6c f3 ff 	movss  %xmm0,-0xc94(%rbp)
  41039c:	ff 
  41039d:	83 85 20 f3 ff ff 01 	addl   $0x1,-0xce0(%rbp)
  4103a4:	f3 0f 10 8d 60 f3 ff 	movss  -0xca0(%rbp),%xmm1
  4103ab:	ff 
  4103ac:	8b 85 20 f3 ff ff    	mov    -0xce0(%rbp),%eax
  4103b2:	48 98                	cltq   
  4103b4:	48 c1 e0 04          	shl    $0x4,%rax
  4103b8:	48 01 e8             	add    %rbp,%rax
  4103bb:	48 2d 90 0c 00 00    	sub    $0xc90,%rax
  4103c1:	f3 0f 10 00          	movss  (%rax),%xmm0
  4103c5:	f3 0f 58 c1          	addss  %xmm1,%xmm0
  4103c9:	f3 0f 11 85 60 f3 ff 	movss  %xmm0,-0xca0(%rbp)
  4103d0:	ff 
  4103d1:	f3 0f 10 8d 64 f3 ff 	movss  -0xc9c(%rbp),%xmm1
  4103d8:	ff 
  4103d9:	8b 85 20 f3 ff ff    	mov    -0xce0(%rbp),%eax
  4103df:	48 98                	cltq   
  4103e1:	48 c1 e0 04          	shl    $0x4,%rax
  4103e5:	48 01 e8             	add    %rbp,%rax
  4103e8:	48 2d 8c 0c 00 00    	sub    $0xc8c,%rax
  4103ee:	f3 0f 10 00          	movss  (%rax),%xmm0
  4103f2:	f3 0f 58 c1          	addss  %xmm1,%xmm0
  4103f6:	f3 0f 11 85 64 f3 ff 	movss  %xmm0,-0xc9c(%rbp)
  4103fd:	ff 
  4103fe:	f3 0f 10 8d 68 f3 ff 	movss  -0xc98(%rbp),%xmm1
  410405:	ff 
  410406:	8b 85 20 f3 ff ff    	mov    -0xce0(%rbp),%eax
  41040c:	48 98                	cltq   
  41040e:	48 c1 e0 04          	shl    $0x4,%rax
  410412:	48 01 e8             	add    %rbp,%rax
  410415:	48 2d 88 0c 00 00    	sub    $0xc88,%rax
  41041b:	f3 0f 10 00          	movss  (%rax),%xmm0
  41041f:	f3 0f 58 c1          	addss  %xmm1,%xmm0
  410423:	f3 0f 11 85 68 f3 ff 	movss  %xmm0,-0xc98(%rbp)
  41042a:	ff 
  41042b:	f3 0f 10 8d 6c f3 ff 	movss  -0xc94(%rbp),%xmm1
  410432:	ff 
  410433:	8b 85 20 f3 ff ff    	mov    -0xce0(%rbp),%eax
  410439:	48 98                	cltq   
  41043b:	48 c1 e0 04          	shl    $0x4,%rax
  41043f:	48 01 e8             	add    %rbp,%rax
  410442:	48 2d 84 0c 00 00    	sub    $0xc84,%rax
  410448:	f3 0f 10 00          	movss  (%rax),%xmm0
  41044c:	f3 0f 58 c1          	addss  %xmm1,%xmm0
  410450:	f3 0f 11 85 6c f3 ff 	movss  %xmm0,-0xc94(%rbp)
  410457:	ff 
  410458:	83 85 20 f3 ff ff 01 	addl   $0x1,-0xce0(%rbp)
  41045f:	f3 0f 10 8d 60 f3 ff 	movss  -0xca0(%rbp),%xmm1
  410466:	ff 
  410467:	8b 85 20 f3 ff ff    	mov    -0xce0(%rbp),%eax
  41046d:	48 98                	cltq   
  41046f:	48 c1 e0 04          	shl    $0x4,%rax
  410473:	48 01 e8             	add    %rbp,%rax
  410476:	48 2d 90 0c 00 00    	sub    $0xc90,%rax
  41047c:	f3 0f 10 00          	movss  (%rax),%xmm0
  410480:	f3 0f 58 c1          	addss  %xmm1,%xmm0
  410484:	f3 0f 11 85 60 f3 ff 	movss  %xmm0,-0xca0(%rbp)
  41048b:	ff 
  41048c:	f3 0f 10 8d 64 f3 ff 	movss  -0xc9c(%rbp),%xmm1
  410493:	ff 
  410494:	8b 85 20 f3 ff ff    	mov    -0xce0(%rbp),%eax
  41049a:	48 98                	cltq   
  41049c:	48 c1 e0 04          	shl    $0x4,%rax
  4104a0:	48 01 e8             	add    %rbp,%rax
  4104a3:	48 2d 8c 0c 00 00    	sub    $0xc8c,%rax
  4104a9:	f3 0f 10 00          	movss  (%rax),%xmm0
  4104ad:	f3 0f 58 c1          	addss  %xmm1,%xmm0
  4104b1:	f3 0f 11 85 64 f3 ff 	movss  %xmm0,-0xc9c(%rbp)
  4104b8:	ff 
  4104b9:	f3 0f 10 8d 68 f3 ff 	movss  -0xc98(%rbp),%xmm1
  4104c0:	ff 
  4104c1:	8b 85 20 f3 ff ff    	mov    -0xce0(%rbp),%eax
  4104c7:	48 98                	cltq   
  4104c9:	48 c1 e0 04          	shl    $0x4,%rax
  4104cd:	48 01 e8             	add    %rbp,%rax
  4104d0:	48 2d 88 0c 00 00    	sub    $0xc88,%rax
  4104d6:	f3 0f 10 00          	movss  (%rax),%xmm0
  4104da:	f3 0f 58 c1          	addss  %xmm1,%xmm0
  4104de:	f3 0f 11 85 68 f3 ff 	movss  %xmm0,-0xc98(%rbp)
  4104e5:	ff 
  4104e6:	f3 0f 10 8d 6c f3 ff 	movss  -0xc94(%rbp),%xmm1
  4104ed:	ff 
  4104ee:	8b 85 20 f3 ff ff    	mov    -0xce0(%rbp),%eax
  4104f4:	48 98                	cltq   
  4104f6:	48 c1 e0 04          	shl    $0x4,%rax
  4104fa:	48 01 e8             	add    %rbp,%rax
  4104fd:	48 2d 84 0c 00 00    	sub    $0xc84,%rax
  410503:	f3 0f 10 00          	movss  (%rax),%xmm0
  410507:	f3 0f 58 c1          	addss  %xmm1,%xmm0
  41050b:	f3 0f 11 85 6c f3 ff 	movss  %xmm0,-0xc94(%rbp)
  410512:	ff 
  410513:	83 85 20 f3 ff ff 01 	addl   $0x1,-0xce0(%rbp)
  41051a:	f3 0f 10 8d 60 f3 ff 	movss  -0xca0(%rbp),%xmm1
  410521:	ff 
  410522:	8b 85 20 f3 ff ff    	mov    -0xce0(%rbp),%eax
  410528:	48 98                	cltq   
  41052a:	48 c1 e0 04          	shl    $0x4,%rax
  41052e:	48 01 e8             	add    %rbp,%rax
  410531:	48 2d 90 0c 00 00    	sub    $0xc90,%rax
  410537:	f3 0f 10 00          	movss  (%rax),%xmm0
  41053b:	f3 0f 58 c1          	addss  %xmm1,%xmm0
  41053f:	f3 0f 11 85 60 f3 ff 	movss  %xmm0,-0xca0(%rbp)
  410546:	ff 
  410547:	f3 0f 10 8d 64 f3 ff 	movss  -0xc9c(%rbp),%xmm1
  41054e:	ff 
  41054f:	8b 85 20 f3 ff ff    	mov    -0xce0(%rbp),%eax
  410555:	48 98                	cltq   
  410557:	48 c1 e0 04          	shl    $0x4,%rax
  41055b:	48 01 e8             	add    %rbp,%rax
  41055e:	48 2d 8c 0c 00 00    	sub    $0xc8c,%rax
  410564:	f3 0f 10 00          	movss  (%rax),%xmm0
  410568:	f3 0f 58 c1          	addss  %xmm1,%xmm0
  41056c:	f3 0f 11 85 64 f3 ff 	movss  %xmm0,-0xc9c(%rbp)
  410573:	ff 
  410574:	f3 0f 10 8d 68 f3 ff 	movss  -0xc98(%rbp),%xmm1
  41057b:	ff 
  41057c:	8b 85 20 f3 ff ff    	mov    -0xce0(%rbp),%eax
  410582:	48 98                	cltq   
  410584:	48 c1 e0 04          	shl    $0x4,%rax
  410588:	48 01 e8             	add    %rbp,%rax
  41058b:	48 2d 88 0c 00 00    	sub    $0xc88,%rax
  410591:	f3 0f 10 00          	movss  (%rax),%xmm0
  410595:	f3 0f 58 c1          	addss  %xmm1,%xmm0
  410599:	f3 0f 11 85 68 f3 ff 	movss  %xmm0,-0xc98(%rbp)
  4105a0:	ff 
  4105a1:	f3 0f 10 8d 6c f3 ff 	movss  -0xc94(%rbp),%xmm1
  4105a8:	ff 
  4105a9:	8b 85 20 f3 ff ff    	mov    -0xce0(%rbp),%eax
  4105af:	48 98                	cltq   
  4105b1:	48 c1 e0 04          	shl    $0x4,%rax
  4105b5:	48 01 e8             	add    %rbp,%rax
  4105b8:	48 2d 84 0c 00 00    	sub    $0xc84,%rax
  4105be:	f3 0f 10 00          	movss  (%rax),%xmm0
  4105c2:	f3 0f 58 c1          	addss  %xmm1,%xmm0
  4105c6:	f3 0f 11 85 6c f3 ff 	movss  %xmm0,-0xc94(%rbp)
  4105cd:	ff 
  4105ce:	83 85 20 f3 ff ff 01 	addl   $0x1,-0xce0(%rbp)
  4105d5:	f3 0f 10 8d 60 f3 ff 	movss  -0xca0(%rbp),%xmm1
  4105dc:	ff 
  4105dd:	8b 85 20 f3 ff ff    	mov    -0xce0(%rbp),%eax
  4105e3:	48 98                	cltq   
  4105e5:	48 c1 e0 04          	shl    $0x4,%rax
  4105e9:	48 01 e8             	add    %rbp,%rax
  4105ec:	48 2d 90 0c 00 00    	sub    $0xc90,%rax
  4105f2:	f3 0f 10 00          	movss  (%rax),%xmm0
  4105f6:	f3 0f 58 c1          	addss  %xmm1,%xmm0
  4105fa:	f3 0f 11 85 60 f3 ff 	movss  %xmm0,-0xca0(%rbp)
  410601:	ff 
  410602:	f3 0f 10 8d 64 f3 ff 	movss  -0xc9c(%rbp),%xmm1
  410609:	ff 
  41060a:	8b 85 20 f3 ff ff    	mov    -0xce0(%rbp),%eax
  410610:	48 98                	cltq   
  410612:	48 c1 e0 04          	shl    $0x4,%rax
  410616:	48 01 e8             	add    %rbp,%rax
  410619:	48 2d 8c 0c 00 00    	sub    $0xc8c,%rax
  41061f:	f3 0f 10 00          	movss  (%rax),%xmm0
  410623:	f3 0f 58 c1          	addss  %xmm1,%xmm0
  410627:	f3 0f 11 85 64 f3 ff 	movss  %xmm0,-0xc9c(%rbp)
  41062e:	ff 
  41062f:	f3 0f 10 8d 68 f3 ff 	movss  -0xc98(%rbp),%xmm1
  410636:	ff 
  410637:	8b 85 20 f3 ff ff    	mov    -0xce0(%rbp),%eax
  41063d:	48 98                	cltq   
  41063f:	48 c1 e0 04          	shl    $0x4,%rax
  410643:	48 01 e8             	add    %rbp,%rax
  410646:	48 2d 88 0c 00 00    	sub    $0xc88,%rax
  41064c:	f3 0f 10 00          	movss  (%rax),%xmm0
  410650:	f3 0f 58 c1          	addss  %xmm1,%xmm0
  410654:	f3 0f 11 85 68 f3 ff 	movss  %xmm0,-0xc98(%rbp)
  41065b:	ff 
  41065c:	f3 0f 10 8d 6c f3 ff 	movss  -0xc94(%rbp),%xmm1
  410663:	ff 
  410664:	8b 85 20 f3 ff ff    	mov    -0xce0(%rbp),%eax
  41066a:	48 98                	cltq   
  41066c:	48 c1 e0 04          	shl    $0x4,%rax
  410670:	48 01 e8             	add    %rbp,%rax
  410673:	48 2d 84 0c 00 00    	sub    $0xc84,%rax
  410679:	f3 0f 10 00          	movss  (%rax),%xmm0
  41067d:	f3 0f 58 c1          	addss  %xmm1,%xmm0
  410681:	f3 0f 11 85 6c f3 ff 	movss  %xmm0,-0xc94(%rbp)
  410688:	ff 
  410689:	83 85 20 f3 ff ff 01 	addl   $0x1,-0xce0(%rbp)
  410690:	c7 85 20 f3 ff ff 00 	movl   $0x0,-0xce0(%rbp)
  410697:	00 00 00 
  41069a:	c7 85 38 f3 ff ff 00 	movl   $0x0,-0xcc8(%rbp)
  4106a1:	00 00 00 
  4106a4:	f3 0f 10 8d 60 f3 ff 	movss  -0xca0(%rbp),%xmm1
  4106ab:	ff 
  4106ac:	8b 85 20 f3 ff ff    	mov    -0xce0(%rbp),%eax
  4106b2:	48 98                	cltq   
  4106b4:	48 c1 e0 04          	shl    $0x4,%rax
  4106b8:	48 01 e8             	add    %rbp,%rax
  4106bb:	48 2d 90 0c 00 00    	sub    $0xc90,%rax
  4106c1:	f3 0f 10 00          	movss  (%rax),%xmm0
  4106c5:	f3 0f 58 c1          	addss  %xmm1,%xmm0
  4106c9:	f3 0f 11 85 60 f3 ff 	movss  %xmm0,-0xca0(%rbp)
  4106d0:	ff 
  4106d1:	f3 0f 10 8d 64 f3 ff 	movss  -0xc9c(%rbp),%xmm1
  4106d8:	ff 
  4106d9:	8b 85 20 f3 ff ff    	mov    -0xce0(%rbp),%eax
  4106df:	48 98                	cltq   
  4106e1:	48 c1 e0 04          	shl    $0x4,%rax
  4106e5:	48 01 e8             	add    %rbp,%rax
  4106e8:	48 2d 8c 0c 00 00    	sub    $0xc8c,%rax
  4106ee:	f3 0f 10 00          	movss  (%rax),%xmm0
  4106f2:	f3 0f 58 c1          	addss  %xmm1,%xmm0
  4106f6:	f3 0f 11 85 64 f3 ff 	movss  %xmm0,-0xc9c(%rbp)
  4106fd:	ff 
  4106fe:	f3 0f 10 8d 68 f3 ff 	movss  -0xc98(%rbp),%xmm1
  410705:	ff 
  410706:	8b 85 20 f3 ff ff    	mov    -0xce0(%rbp),%eax
  41070c:	48 98                	cltq   
  41070e:	48 c1 e0 04          	shl    $0x4,%rax
  410712:	48 01 e8             	add    %rbp,%rax
  410715:	48 2d 88 0c 00 00    	sub    $0xc88,%rax
  41071b:	f3 0f 10 00          	movss  (%rax),%xmm0
  41071f:	f3 0f 58 c1          	addss  %xmm1,%xmm0
  410723:	f3 0f 11 85 68 f3 ff 	movss  %xmm0,-0xc98(%rbp)
  41072a:	ff 
  41072b:	f3 0f 10 8d 6c f3 ff 	movss  -0xc94(%rbp),%xmm1
  410732:	ff 
  410733:	8b 85 20 f3 ff ff    	mov    -0xce0(%rbp),%eax
  410739:	48 98                	cltq   
  41073b:	48 c1 e0 04          	shl    $0x4,%rax
  41073f:	48 01 e8             	add    %rbp,%rax
  410742:	48 2d 84 0c 00 00    	sub    $0xc84,%rax
  410748:	f3 0f 10 00          	movss  (%rax),%xmm0
  41074c:	f3 0f 58 c1          	addss  %xmm1,%xmm0
  410750:	f3 0f 11 85 6c f3 ff 	movss  %xmm0,-0xc94(%rbp)
  410757:	ff 
  410758:	83 85 20 f3 ff ff 01 	addl   $0x1,-0xce0(%rbp)
  41075f:	f3 0f 10 8d 60 f3 ff 	movss  -0xca0(%rbp),%xmm1
  410766:	ff 
  410767:	8b 85 20 f3 ff ff    	mov    -0xce0(%rbp),%eax
  41076d:	48 98                	cltq   
  41076f:	48 c1 e0 04          	shl    $0x4,%rax
  410773:	48 01 e8             	add    %rbp,%rax
  410776:	48 2d 90 0c 00 00    	sub    $0xc90,%rax
  41077c:	f3 0f 10 00          	movss  (%rax),%xmm0
  410780:	f3 0f 58 c1          	addss  %xmm1,%xmm0
  410784:	f3 0f 11 85 60 f3 ff 	movss  %xmm0,-0xca0(%rbp)
  41078b:	ff 
  41078c:	f3 0f 10 8d 64 f3 ff 	movss  -0xc9c(%rbp),%xmm1
  410793:	ff 
  410794:	8b 85 20 f3 ff ff    	mov    -0xce0(%rbp),%eax
  41079a:	48 98                	cltq   
  41079c:	48 c1 e0 04          	shl    $0x4,%rax
  4107a0:	48 01 e8             	add    %rbp,%rax
  4107a3:	48 2d 8c 0c 00 00    	sub    $0xc8c,%rax
  4107a9:	f3 0f 10 00          	movss  (%rax),%xmm0
  4107ad:	f3 0f 58 c1          	addss  %xmm1,%xmm0
  4107b1:	f3 0f 11 85 64 f3 ff 	movss  %xmm0,-0xc9c(%rbp)
  4107b8:	ff 
  4107b9:	f3 0f 10 8d 68 f3 ff 	movss  -0xc98(%rbp),%xmm1
  4107c0:	ff 
  4107c1:	8b 85 20 f3 ff ff    	mov    -0xce0(%rbp),%eax
  4107c7:	48 98                	cltq   
  4107c9:	48 c1 e0 04          	shl    $0x4,%rax
  4107cd:	48 01 e8             	add    %rbp,%rax
  4107d0:	48 2d 88 0c 00 00    	sub    $0xc88,%rax
  4107d6:	f3 0f 10 00          	movss  (%rax),%xmm0
  4107da:	f3 0f 58 c1          	addss  %xmm1,%xmm0
  4107de:	f3 0f 11 85 68 f3 ff 	movss  %xmm0,-0xc98(%rbp)
  4107e5:	ff 
  4107e6:	f3 0f 10 8d 6c f3 ff 	movss  -0xc94(%rbp),%xmm1
  4107ed:	ff 
  4107ee:	8b 85 20 f3 ff ff    	mov    -0xce0(%rbp),%eax
  4107f4:	48 98                	cltq   
  4107f6:	48 c1 e0 04          	shl    $0x4,%rax
  4107fa:	48 01 e8             	add    %rbp,%rax
  4107fd:	48 2d 84 0c 00 00    	sub    $0xc84,%rax
  410803:	f3 0f 10 00          	movss  (%rax),%xmm0
  410807:	f3 0f 58 c1          	addss  %xmm1,%xmm0
  41080b:	f3 0f 11 85 6c f3 ff 	movss  %xmm0,-0xc94(%rbp)
  410812:	ff 
  410813:	83 85 20 f3 ff ff 01 	addl   $0x1,-0xce0(%rbp)
  41081a:	f3 0f 10 8d 60 f3 ff 	movss  -0xca0(%rbp),%xmm1
  410821:	ff 
  410822:	8b 85 20 f3 ff ff    	mov    -0xce0(%rbp),%eax
  410828:	48 98                	cltq   
  41082a:	48 c1 e0 04          	shl    $0x4,%rax
  41082e:	48 01 e8             	add    %rbp,%rax
  410831:	48 2d 90 0c 00 00    	sub    $0xc90,%rax
  410837:	f3 0f 10 00          	movss  (%rax),%xmm0
  41083b:	f3 0f 58 c1          	addss  %xmm1,%xmm0
  41083f:	f3 0f 11 85 60 f3 ff 	movss  %xmm0,-0xca0(%rbp)
  410846:	ff 
  410847:	f3 0f 10 8d 64 f3 ff 	movss  -0xc9c(%rbp),%xmm1
  41084e:	ff 
  41084f:	8b 85 20 f3 ff ff    	mov    -0xce0(%rbp),%eax
  410855:	48 98                	cltq   
  410857:	48 c1 e0 04          	shl    $0x4,%rax
  41085b:	48 01 e8             	add    %rbp,%rax
  41085e:	48 2d 8c 0c 00 00    	sub    $0xc8c,%rax
  410864:	f3 0f 10 00          	movss  (%rax),%xmm0
  410868:	f3 0f 58 c1          	addss  %xmm1,%xmm0
  41086c:	f3 0f 11 85 64 f3 ff 	movss  %xmm0,-0xc9c(%rbp)
  410873:	ff 
  410874:	f3 0f 10 8d 68 f3 ff 	movss  -0xc98(%rbp),%xmm1
  41087b:	ff 
  41087c:	8b 85 20 f3 ff ff    	mov    -0xce0(%rbp),%eax
  410882:	48 98                	cltq   
  410884:	48 c1 e0 04          	shl    $0x4,%rax
  410888:	48 01 e8             	add    %rbp,%rax
  41088b:	48 2d 88 0c 00 00    	sub    $0xc88,%rax
  410891:	f3 0f 10 00          	movss  (%rax),%xmm0
  410895:	f3 0f 58 c1          	addss  %xmm1,%xmm0
  410899:	f3 0f 11 85 68 f3 ff 	movss  %xmm0,-0xc98(%rbp)
  4108a0:	ff 
  4108a1:	f3 0f 10 8d 6c f3 ff 	movss  -0xc94(%rbp),%xmm1
  4108a8:	ff 
  4108a9:	8b 85 20 f3 ff ff    	mov    -0xce0(%rbp),%eax
  4108af:	48 98                	cltq   
  4108b1:	48 c1 e0 04          	shl    $0x4,%rax
  4108b5:	48 01 e8             	add    %rbp,%rax
  4108b8:	48 2d 84 0c 00 00    	sub    $0xc84,%rax
  4108be:	f3 0f 10 00          	movss  (%rax),%xmm0
  4108c2:	f3 0f 58 c1          	addss  %xmm1,%xmm0
  4108c6:	f3 0f 11 85 6c f3 ff 	movss  %xmm0,-0xc94(%rbp)
  4108cd:	ff 
  4108ce:	83 85 20 f3 ff ff 01 	addl   $0x1,-0xce0(%rbp)
  4108d5:	f3 0f 10 8d 60 f3 ff 	movss  -0xca0(%rbp),%xmm1
  4108dc:	ff 
  4108dd:	8b 85 20 f3 ff ff    	mov    -0xce0(%rbp),%eax
  4108e3:	48 98                	cltq   
  4108e5:	48 c1 e0 04          	shl    $0x4,%rax
  4108e9:	48 01 e8             	add    %rbp,%rax
  4108ec:	48 2d 90 0c 00 00    	sub    $0xc90,%rax
  4108f2:	f3 0f 10 00          	movss  (%rax),%xmm0
  4108f6:	f3 0f 58 c1          	addss  %xmm1,%xmm0
  4108fa:	f3 0f 11 85 60 f3 ff 	movss  %xmm0,-0xca0(%rbp)
  410901:	ff 
  410902:	f3 0f 10 8d 64 f3 ff 	movss  -0xc9c(%rbp),%xmm1
  410909:	ff 
  41090a:	8b 85 20 f3 ff ff    	mov    -0xce0(%rbp),%eax
  410910:	48 98                	cltq   
  410912:	48 c1 e0 04          	shl    $0x4,%rax
  410916:	48 01 e8             	add    %rbp,%rax
  410919:	48 2d 8c 0c 00 00    	sub    $0xc8c,%rax
  41091f:	f3 0f 10 00          	movss  (%rax),%xmm0
  410923:	f3 0f 58 c1          	addss  %xmm1,%xmm0
  410927:	f3 0f 11 85 64 f3 ff 	movss  %xmm0,-0xc9c(%rbp)
  41092e:	ff 
  41092f:	f3 0f 10 8d 68 f3 ff 	movss  -0xc98(%rbp),%xmm1
  410936:	ff 
  410937:	8b 85 20 f3 ff ff    	mov    -0xce0(%rbp),%eax
  41093d:	48 98                	cltq   
  41093f:	48 c1 e0 04          	shl    $0x4,%rax
  410943:	48 01 e8             	add    %rbp,%rax
  410946:	48 2d 88 0c 00 00    	sub    $0xc88,%rax
  41094c:	f3 0f 10 00          	movss  (%rax),%xmm0
  410950:	f3 0f 58 c1          	addss  %xmm1,%xmm0
  410954:	f3 0f 11 85 68 f3 ff 	movss  %xmm0,-0xc98(%rbp)
  41095b:	ff 
  41095c:	f3 0f 10 8d 6c f3 ff 	movss  -0xc94(%rbp),%xmm1
  410963:	ff 
  410964:	8b 85 20 f3 ff ff    	mov    -0xce0(%rbp),%eax
  41096a:	48 98                	cltq   
  41096c:	48 c1 e0 04          	shl    $0x4,%rax
  410970:	48 01 e8             	add    %rbp,%rax
  410973:	48 2d 84 0c 00 00    	sub    $0xc84,%rax
  410979:	f3 0f 10 00          	movss  (%rax),%xmm0
  41097d:	f3 0f 58 c1          	addss  %xmm1,%xmm0
  410981:	f3 0f 11 85 6c f3 ff 	movss  %xmm0,-0xc94(%rbp)
  410988:	ff 
  410989:	83 85 20 f3 ff ff 01 	addl   $0x1,-0xce0(%rbp)
  410990:	f3 0f 10 8d 60 f3 ff 	movss  -0xca0(%rbp),%xmm1
  410997:	ff 
  410998:	8b 85 20 f3 ff ff    	mov    -0xce0(%rbp),%eax
  41099e:	48 98                	cltq   
  4109a0:	48 c1 e0 04          	shl    $0x4,%rax
  4109a4:	48 01 e8             	add    %rbp,%rax
  4109a7:	48 2d 90 0c 00 00    	sub    $0xc90,%rax
  4109ad:	f3 0f 10 00          	movss  (%rax),%xmm0
  4109b1:	f3 0f 58 c1          	addss  %xmm1,%xmm0
  4109b5:	f3 0f 11 85 60 f3 ff 	movss  %xmm0,-0xca0(%rbp)
  4109bc:	ff 
  4109bd:	f3 0f 10 8d 64 f3 ff 	movss  -0xc9c(%rbp),%xmm1
  4109c4:	ff 
  4109c5:	8b 85 20 f3 ff ff    	mov    -0xce0(%rbp),%eax
  4109cb:	48 98                	cltq   
  4109cd:	48 c1 e0 04          	shl    $0x4,%rax
  4109d1:	48 01 e8             	add    %rbp,%rax
  4109d4:	48 2d 8c 0c 00 00    	sub    $0xc8c,%rax
  4109da:	f3 0f 10 00          	movss  (%rax),%xmm0
  4109de:	f3 0f 58 c1          	addss  %xmm1,%xmm0
  4109e2:	f3 0f 11 85 64 f3 ff 	movss  %xmm0,-0xc9c(%rbp)
  4109e9:	ff 
  4109ea:	f3 0f 10 8d 68 f3 ff 	movss  -0xc98(%rbp),%xmm1
  4109f1:	ff 
  4109f2:	8b 85 20 f3 ff ff    	mov    -0xce0(%rbp),%eax
  4109f8:	48 98                	cltq   
  4109fa:	48 c1 e0 04          	shl    $0x4,%rax
  4109fe:	48 01 e8             	add    %rbp,%rax
  410a01:	48 2d 88 0c 00 00    	sub    $0xc88,%rax
  410a07:	f3 0f 10 00          	movss  (%rax),%xmm0
  410a0b:	f3 0f 58 c1          	addss  %xmm1,%xmm0
  410a0f:	f3 0f 11 85 68 f3 ff 	movss  %xmm0,-0xc98(%rbp)
  410a16:	ff 
  410a17:	f3 0f 10 8d 6c f3 ff 	movss  -0xc94(%rbp),%xmm1
  410a1e:	ff 
  410a1f:	8b 85 20 f3 ff ff    	mov    -0xce0(%rbp),%eax
  410a25:	48 98                	cltq   
  410a27:	48 c1 e0 04          	shl    $0x4,%rax
  410a2b:	48 01 e8             	add    %rbp,%rax
  410a2e:	48 2d 84 0c 00 00    	sub    $0xc84,%rax
  410a34:	f3 0f 10 00          	movss  (%rax),%xmm0
  410a38:	f3 0f 58 c1          	addss  %xmm1,%xmm0
  410a3c:	f3 0f 11 85 6c f3 ff 	movss  %xmm0,-0xc94(%rbp)
  410a43:	ff 
  410a44:	83 85 20 f3 ff ff 01 	addl   $0x1,-0xce0(%rbp)
  410a4b:	f3 0f 10 8d 60 f3 ff 	movss  -0xca0(%rbp),%xmm1
  410a52:	ff 
  410a53:	8b 85 20 f3 ff ff    	mov    -0xce0(%rbp),%eax
  410a59:	48 98                	cltq   
  410a5b:	48 c1 e0 04          	shl    $0x4,%rax
  410a5f:	48 01 e8             	add    %rbp,%rax
  410a62:	48 2d 90 0c 00 00    	sub    $0xc90,%rax
  410a68:	f3 0f 10 00          	movss  (%rax),%xmm0
  410a6c:	f3 0f 58 c1          	addss  %xmm1,%xmm0
  410a70:	f3 0f 11 85 60 f3 ff 	movss  %xmm0,-0xca0(%rbp)
  410a77:	ff 
  410a78:	f3 0f 10 8d 64 f3 ff 	movss  -0xc9c(%rbp),%xmm1
  410a7f:	ff 
  410a80:	8b 85 20 f3 ff ff    	mov    -0xce0(%rbp),%eax
  410a86:	48 98                	cltq   
  410a88:	48 c1 e0 04          	shl    $0x4,%rax
  410a8c:	48 01 e8             	add    %rbp,%rax
  410a8f:	48 2d 8c 0c 00 00    	sub    $0xc8c,%rax
  410a95:	f3 0f 10 00          	movss  (%rax),%xmm0
  410a99:	f3 0f 58 c1          	addss  %xmm1,%xmm0
  410a9d:	f3 0f 11 85 64 f3 ff 	movss  %xmm0,-0xc9c(%rbp)
  410aa4:	ff 
  410aa5:	f3 0f 10 8d 68 f3 ff 	movss  -0xc98(%rbp),%xmm1
  410aac:	ff 
  410aad:	8b 85 20 f3 ff ff    	mov    -0xce0(%rbp),%eax
  410ab3:	48 98                	cltq   
  410ab5:	48 c1 e0 04          	shl    $0x4,%rax
  410ab9:	48 01 e8             	add    %rbp,%rax
  410abc:	48 2d 88 0c 00 00    	sub    $0xc88,%rax
  410ac2:	f3 0f 10 00          	movss  (%rax),%xmm0
  410ac6:	f3 0f 58 c1          	addss  %xmm1,%xmm0
  410aca:	f3 0f 11 85 68 f3 ff 	movss  %xmm0,-0xc98(%rbp)
  410ad1:	ff 
  410ad2:	f3 0f 10 8d 6c f3 ff 	movss  -0xc94(%rbp),%xmm1
  410ad9:	ff 
  410ada:	8b 85 20 f3 ff ff    	mov    -0xce0(%rbp),%eax
  410ae0:	48 98                	cltq   
  410ae2:	48 c1 e0 04          	shl    $0x4,%rax
  410ae6:	48 01 e8             	add    %rbp,%rax
  410ae9:	48 2d 84 0c 00 00    	sub    $0xc84,%rax
  410aef:	f3 0f 10 00          	movss  (%rax),%xmm0
  410af3:	f3 0f 58 c1          	addss  %xmm1,%xmm0
  410af7:	f3 0f 11 85 6c f3 ff 	movss  %xmm0,-0xc94(%rbp)
  410afe:	ff 
  410aff:	83 85 20 f3 ff ff 01 	addl   $0x1,-0xce0(%rbp)
  410b06:	f3 0f 10 8d 60 f3 ff 	movss  -0xca0(%rbp),%xmm1
  410b0d:	ff 
  410b0e:	8b 85 20 f3 ff ff    	mov    -0xce0(%rbp),%eax
  410b14:	48 98                	cltq   
  410b16:	48 c1 e0 04          	shl    $0x4,%rax
  410b1a:	48 01 e8             	add    %rbp,%rax
  410b1d:	48 2d 90 0c 00 00    	sub    $0xc90,%rax
  410b23:	f3 0f 10 00          	movss  (%rax),%xmm0
  410b27:	f3 0f 58 c1          	addss  %xmm1,%xmm0
  410b2b:	f3 0f 11 85 60 f3 ff 	movss  %xmm0,-0xca0(%rbp)
  410b32:	ff 
  410b33:	f3 0f 10 8d 64 f3 ff 	movss  -0xc9c(%rbp),%xmm1
  410b3a:	ff 
  410b3b:	8b 85 20 f3 ff ff    	mov    -0xce0(%rbp),%eax
  410b41:	48 98                	cltq   
  410b43:	48 c1 e0 04          	shl    $0x4,%rax
  410b47:	48 01 e8             	add    %rbp,%rax
  410b4a:	48 2d 8c 0c 00 00    	sub    $0xc8c,%rax
  410b50:	f3 0f 10 00          	movss  (%rax),%xmm0
  410b54:	f3 0f 58 c1          	addss  %xmm1,%xmm0
  410b58:	f3 0f 11 85 64 f3 ff 	movss  %xmm0,-0xc9c(%rbp)
  410b5f:	ff 
  410b60:	f3 0f 10 8d 68 f3 ff 	movss  -0xc98(%rbp),%xmm1
  410b67:	ff 
  410b68:	8b 85 20 f3 ff ff    	mov    -0xce0(%rbp),%eax
  410b6e:	48 98                	cltq   
  410b70:	48 c1 e0 04          	shl    $0x4,%rax
  410b74:	48 01 e8             	add    %rbp,%rax
  410b77:	48 2d 88 0c 00 00    	sub    $0xc88,%rax
  410b7d:	f3 0f 10 00          	movss  (%rax),%xmm0
  410b81:	f3 0f 58 c1          	addss  %xmm1,%xmm0
  410b85:	f3 0f 11 85 68 f3 ff 	movss  %xmm0,-0xc98(%rbp)
  410b8c:	ff 
  410b8d:	f3 0f 10 8d 6c f3 ff 	movss  -0xc94(%rbp),%xmm1
  410b94:	ff 
  410b95:	8b 85 20 f3 ff ff    	mov    -0xce0(%rbp),%eax
  410b9b:	48 98                	cltq   
  410b9d:	48 c1 e0 04          	shl    $0x4,%rax
  410ba1:	48 01 e8             	add    %rbp,%rax
  410ba4:	48 2d 84 0c 00 00    	sub    $0xc84,%rax
  410baa:	f3 0f 10 00          	movss  (%rax),%xmm0
  410bae:	f3 0f 58 c1          	addss  %xmm1,%xmm0
  410bb2:	f3 0f 11 85 6c f3 ff 	movss  %xmm0,-0xc94(%rbp)
  410bb9:	ff 
  410bba:	83 85 20 f3 ff ff 01 	addl   $0x1,-0xce0(%rbp)
  410bc1:	f3 0f 10 8d 60 f3 ff 	movss  -0xca0(%rbp),%xmm1
  410bc8:	ff 
  410bc9:	8b 85 20 f3 ff ff    	mov    -0xce0(%rbp),%eax
  410bcf:	48 98                	cltq   
  410bd1:	48 c1 e0 04          	shl    $0x4,%rax
  410bd5:	48 01 e8             	add    %rbp,%rax
  410bd8:	48 2d 90 0c 00 00    	sub    $0xc90,%rax
  410bde:	f3 0f 10 00          	movss  (%rax),%xmm0
  410be2:	f3 0f 58 c1          	addss  %xmm1,%xmm0
  410be6:	f3 0f 11 85 60 f3 ff 	movss  %xmm0,-0xca0(%rbp)
  410bed:	ff 
  410bee:	f3 0f 10 8d 64 f3 ff 	movss  -0xc9c(%rbp),%xmm1
  410bf5:	ff 
  410bf6:	8b 85 20 f3 ff ff    	mov    -0xce0(%rbp),%eax
  410bfc:	48 98                	cltq   
  410bfe:	48 c1 e0 04          	shl    $0x4,%rax
  410c02:	48 01 e8             	add    %rbp,%rax
  410c05:	48 2d 8c 0c 00 00    	sub    $0xc8c,%rax
  410c0b:	f3 0f 10 00          	movss  (%rax),%xmm0
  410c0f:	f3 0f 58 c1          	addss  %xmm1,%xmm0
  410c13:	f3 0f 11 85 64 f3 ff 	movss  %xmm0,-0xc9c(%rbp)
  410c1a:	ff 
  410c1b:	f3 0f 10 8d 68 f3 ff 	movss  -0xc98(%rbp),%xmm1
  410c22:	ff 
  410c23:	8b 85 20 f3 ff ff    	mov    -0xce0(%rbp),%eax
  410c29:	48 98                	cltq   
  410c2b:	48 c1 e0 04          	shl    $0x4,%rax
  410c2f:	48 01 e8             	add    %rbp,%rax
  410c32:	48 2d 88 0c 00 00    	sub    $0xc88,%rax
  410c38:	f3 0f 10 00          	movss  (%rax),%xmm0
  410c3c:	f3 0f 58 c1          	addss  %xmm1,%xmm0
  410c40:	f3 0f 11 85 68 f3 ff 	movss  %xmm0,-0xc98(%rbp)
  410c47:	ff 
  410c48:	f3 0f 10 8d 6c f3 ff 	movss  -0xc94(%rbp),%xmm1
  410c4f:	ff 
  410c50:	8b 85 20 f3 ff ff    	mov    -0xce0(%rbp),%eax
  410c56:	48 98                	cltq   
  410c58:	48 c1 e0 04          	shl    $0x4,%rax
  410c5c:	48 01 e8             	add    %rbp,%rax
  410c5f:	48 2d 84 0c 00 00    	sub    $0xc84,%rax
  410c65:	f3 0f 10 00          	movss  (%rax),%xmm0
  410c69:	f3 0f 58 c1          	addss  %xmm1,%xmm0
  410c6d:	f3 0f 11 85 6c f3 ff 	movss  %xmm0,-0xc94(%rbp)
  410c74:	ff 
  410c75:	83 85 20 f3 ff ff 01 	addl   $0x1,-0xce0(%rbp)
  410c7c:	f3 0f 10 8d 60 f3 ff 	movss  -0xca0(%rbp),%xmm1
  410c83:	ff 
  410c84:	8b 85 20 f3 ff ff    	mov    -0xce0(%rbp),%eax
  410c8a:	48 98                	cltq   
  410c8c:	48 c1 e0 04          	shl    $0x4,%rax
  410c90:	48 01 e8             	add    %rbp,%rax
  410c93:	48 2d 90 0c 00 00    	sub    $0xc90,%rax
  410c99:	f3 0f 10 00          	movss  (%rax),%xmm0
  410c9d:	f3 0f 58 c1          	addss  %xmm1,%xmm0
  410ca1:	f3 0f 11 85 60 f3 ff 	movss  %xmm0,-0xca0(%rbp)
  410ca8:	ff 
  410ca9:	f3 0f 10 8d 64 f3 ff 	movss  -0xc9c(%rbp),%xmm1
  410cb0:	ff 
  410cb1:	8b 85 20 f3 ff ff    	mov    -0xce0(%rbp),%eax
  410cb7:	48 98                	cltq   
  410cb9:	48 c1 e0 04          	shl    $0x4,%rax
  410cbd:	48 01 e8             	add    %rbp,%rax
  410cc0:	48 2d 8c 0c 00 00    	sub    $0xc8c,%rax
  410cc6:	f3 0f 10 00          	movss  (%rax),%xmm0
  410cca:	f3 0f 58 c1          	addss  %xmm1,%xmm0
  410cce:	f3 0f 11 85 64 f3 ff 	movss  %xmm0,-0xc9c(%rbp)
  410cd5:	ff 
  410cd6:	f3 0f 10 8d 68 f3 ff 	movss  -0xc98(%rbp),%xmm1
  410cdd:	ff 
  410cde:	8b 85 20 f3 ff ff    	mov    -0xce0(%rbp),%eax
  410ce4:	48 98                	cltq   
  410ce6:	48 c1 e0 04          	shl    $0x4,%rax
  410cea:	48 01 e8             	add    %rbp,%rax
  410ced:	48 2d 88 0c 00 00    	sub    $0xc88,%rax
  410cf3:	f3 0f 10 00          	movss  (%rax),%xmm0
  410cf7:	f3 0f 58 c1          	addss  %xmm1,%xmm0
  410cfb:	f3 0f 11 85 68 f3 ff 	movss  %xmm0,-0xc98(%rbp)
  410d02:	ff 
  410d03:	f3 0f 10 8d 6c f3 ff 	movss  -0xc94(%rbp),%xmm1
  410d0a:	ff 
  410d0b:	8b 85 20 f3 ff ff    	mov    -0xce0(%rbp),%eax
  410d11:	48 98                	cltq   
  410d13:	48 c1 e0 04          	shl    $0x4,%rax
  410d17:	48 01 e8             	add    %rbp,%rax
  410d1a:	48 2d 84 0c 00 00    	sub    $0xc84,%rax
  410d20:	f3 0f 10 00          	movss  (%rax),%xmm0
  410d24:	f3 0f 58 c1          	addss  %xmm1,%xmm0
  410d28:	f3 0f 11 85 6c f3 ff 	movss  %xmm0,-0xc94(%rbp)
  410d2f:	ff 
  410d30:	83 85 20 f3 ff ff 01 	addl   $0x1,-0xce0(%rbp)
  410d37:	f3 0f 10 8d 60 f3 ff 	movss  -0xca0(%rbp),%xmm1
  410d3e:	ff 
  410d3f:	8b 85 20 f3 ff ff    	mov    -0xce0(%rbp),%eax
  410d45:	48 98                	cltq   
  410d47:	48 c1 e0 04          	shl    $0x4,%rax
  410d4b:	48 01 e8             	add    %rbp,%rax
  410d4e:	48 2d 90 0c 00 00    	sub    $0xc90,%rax
  410d54:	f3 0f 10 00          	movss  (%rax),%xmm0
  410d58:	f3 0f 58 c1          	addss  %xmm1,%xmm0
  410d5c:	f3 0f 11 85 60 f3 ff 	movss  %xmm0,-0xca0(%rbp)
  410d63:	ff 
  410d64:	f3 0f 10 8d 64 f3 ff 	movss  -0xc9c(%rbp),%xmm1
  410d6b:	ff 
  410d6c:	8b 85 20 f3 ff ff    	mov    -0xce0(%rbp),%eax
  410d72:	48 98                	cltq   
  410d74:	48 c1 e0 04          	shl    $0x4,%rax
  410d78:	48 01 e8             	add    %rbp,%rax
  410d7b:	48 2d 8c 0c 00 00    	sub    $0xc8c,%rax
  410d81:	f3 0f 10 00          	movss  (%rax),%xmm0
  410d85:	f3 0f 58 c1          	addss  %xmm1,%xmm0
  410d89:	f3 0f 11 85 64 f3 ff 	movss  %xmm0,-0xc9c(%rbp)
  410d90:	ff 
  410d91:	f3 0f 10 8d 68 f3 ff 	movss  -0xc98(%rbp),%xmm1
  410d98:	ff 
  410d99:	8b 85 20 f3 ff ff    	mov    -0xce0(%rbp),%eax
  410d9f:	48 98                	cltq   
  410da1:	48 c1 e0 04          	shl    $0x4,%rax
  410da5:	48 01 e8             	add    %rbp,%rax
  410da8:	48 2d 88 0c 00 00    	sub    $0xc88,%rax
  410dae:	f3 0f 10 00          	movss  (%rax),%xmm0
  410db2:	f3 0f 58 c1          	addss  %xmm1,%xmm0
  410db6:	f3 0f 11 85 68 f3 ff 	movss  %xmm0,-0xc98(%rbp)
  410dbd:	ff 
  410dbe:	f3 0f 10 8d 6c f3 ff 	movss  -0xc94(%rbp),%xmm1
  410dc5:	ff 
  410dc6:	8b 85 20 f3 ff ff    	mov    -0xce0(%rbp),%eax
  410dcc:	48 98                	cltq   
  410dce:	48 c1 e0 04          	shl    $0x4,%rax
  410dd2:	48 01 e8             	add    %rbp,%rax
  410dd5:	48 2d 84 0c 00 00    	sub    $0xc84,%rax
  410ddb:	f3 0f 10 00          	movss  (%rax),%xmm0
  410ddf:	f3 0f 58 c1          	addss  %xmm1,%xmm0
  410de3:	f3 0f 11 85 6c f3 ff 	movss  %xmm0,-0xc94(%rbp)
  410dea:	ff 
  410deb:	83 85 20 f3 ff ff 01 	addl   $0x1,-0xce0(%rbp)
  410df2:	f3 0f 10 8d 60 f3 ff 	movss  -0xca0(%rbp),%xmm1
  410df9:	ff 
  410dfa:	8b 85 20 f3 ff ff    	mov    -0xce0(%rbp),%eax
  410e00:	48 98                	cltq   
  410e02:	48 c1 e0 04          	shl    $0x4,%rax
  410e06:	48 01 e8             	add    %rbp,%rax
  410e09:	48 2d 90 0c 00 00    	sub    $0xc90,%rax
  410e0f:	f3 0f 10 00          	movss  (%rax),%xmm0
  410e13:	f3 0f 58 c1          	addss  %xmm1,%xmm0
  410e17:	f3 0f 11 85 60 f3 ff 	movss  %xmm0,-0xca0(%rbp)
  410e1e:	ff 
  410e1f:	f3 0f 10 8d 64 f3 ff 	movss  -0xc9c(%rbp),%xmm1
  410e26:	ff 
  410e27:	8b 85 20 f3 ff ff    	mov    -0xce0(%rbp),%eax
  410e2d:	48 98                	cltq   
  410e2f:	48 c1 e0 04          	shl    $0x4,%rax
  410e33:	48 01 e8             	add    %rbp,%rax
  410e36:	48 2d 8c 0c 00 00    	sub    $0xc8c,%rax
  410e3c:	f3 0f 10 00          	movss  (%rax),%xmm0
  410e40:	f3 0f 58 c1          	addss  %xmm1,%xmm0
  410e44:	f3 0f 11 85 64 f3 ff 	movss  %xmm0,-0xc9c(%rbp)
  410e4b:	ff 
  410e4c:	f3 0f 10 8d 68 f3 ff 	movss  -0xc98(%rbp),%xmm1
  410e53:	ff 
  410e54:	8b 85 20 f3 ff ff    	mov    -0xce0(%rbp),%eax
  410e5a:	48 98                	cltq   
  410e5c:	48 c1 e0 04          	shl    $0x4,%rax
  410e60:	48 01 e8             	add    %rbp,%rax
  410e63:	48 2d 88 0c 00 00    	sub    $0xc88,%rax
  410e69:	f3 0f 10 00          	movss  (%rax),%xmm0
  410e6d:	f3 0f 58 c1          	addss  %xmm1,%xmm0
  410e71:	f3 0f 11 85 68 f3 ff 	movss  %xmm0,-0xc98(%rbp)
  410e78:	ff 
  410e79:	f3 0f 10 8d 6c f3 ff 	movss  -0xc94(%rbp),%xmm1
  410e80:	ff 
  410e81:	8b 85 20 f3 ff ff    	mov    -0xce0(%rbp),%eax
  410e87:	48 98                	cltq   
  410e89:	48 c1 e0 04          	shl    $0x4,%rax
  410e8d:	48 01 e8             	add    %rbp,%rax
  410e90:	48 2d 84 0c 00 00    	sub    $0xc84,%rax
  410e96:	f3 0f 10 00          	movss  (%rax),%xmm0
  410e9a:	f3 0f 58 c1          	addss  %xmm1,%xmm0
  410e9e:	f3 0f 11 85 6c f3 ff 	movss  %xmm0,-0xc94(%rbp)
  410ea5:	ff 
  410ea6:	83 85 20 f3 ff ff 01 	addl   $0x1,-0xce0(%rbp)
  410ead:	f3 0f 10 8d 60 f3 ff 	movss  -0xca0(%rbp),%xmm1
  410eb4:	ff 
  410eb5:	8b 85 20 f3 ff ff    	mov    -0xce0(%rbp),%eax
  410ebb:	48 98                	cltq   
  410ebd:	48 c1 e0 04          	shl    $0x4,%rax
  410ec1:	48 01 e8             	add    %rbp,%rax
  410ec4:	48 2d 90 0c 00 00    	sub    $0xc90,%rax
  410eca:	f3 0f 10 00          	movss  (%rax),%xmm0
  410ece:	f3 0f 58 c1          	addss  %xmm1,%xmm0
  410ed2:	f3 0f 11 85 60 f3 ff 	movss  %xmm0,-0xca0(%rbp)
  410ed9:	ff 
  410eda:	f3 0f 10 8d 64 f3 ff 	movss  -0xc9c(%rbp),%xmm1
  410ee1:	ff 
  410ee2:	8b 85 20 f3 ff ff    	mov    -0xce0(%rbp),%eax
  410ee8:	48 98                	cltq   
  410eea:	48 c1 e0 04          	shl    $0x4,%rax
  410eee:	48 01 e8             	add    %rbp,%rax
  410ef1:	48 2d 8c 0c 00 00    	sub    $0xc8c,%rax
  410ef7:	f3 0f 10 00          	movss  (%rax),%xmm0
  410efb:	f3 0f 58 c1          	addss  %xmm1,%xmm0
  410eff:	f3 0f 11 85 64 f3 ff 	movss  %xmm0,-0xc9c(%rbp)
  410f06:	ff 
  410f07:	f3 0f 10 8d 68 f3 ff 	movss  -0xc98(%rbp),%xmm1
  410f0e:	ff 
  410f0f:	8b 85 20 f3 ff ff    	mov    -0xce0(%rbp),%eax
  410f15:	48 98                	cltq   
  410f17:	48 c1 e0 04          	shl    $0x4,%rax
  410f1b:	48 01 e8             	add    %rbp,%rax
  410f1e:	48 2d 88 0c 00 00    	sub    $0xc88,%rax
  410f24:	f3 0f 10 00          	movss  (%rax),%xmm0
  410f28:	f3 0f 58 c1          	addss  %xmm1,%xmm0
  410f2c:	f3 0f 11 85 68 f3 ff 	movss  %xmm0,-0xc98(%rbp)
  410f33:	ff 
  410f34:	f3 0f 10 8d 6c f3 ff 	movss  -0xc94(%rbp),%xmm1
  410f3b:	ff 
  410f3c:	8b 85 20 f3 ff ff    	mov    -0xce0(%rbp),%eax
  410f42:	48 98                	cltq   
  410f44:	48 c1 e0 04          	shl    $0x4,%rax
  410f48:	48 01 e8             	add    %rbp,%rax
  410f4b:	48 2d 84 0c 00 00    	sub    $0xc84,%rax
  410f51:	f3 0f 10 00          	movss  (%rax),%xmm0
  410f55:	f3 0f 58 c1          	addss  %xmm1,%xmm0
  410f59:	f3 0f 11 85 6c f3 ff 	movss  %xmm0,-0xc94(%rbp)
  410f60:	ff 
  410f61:	83 85 20 f3 ff ff 01 	addl   $0x1,-0xce0(%rbp)
  410f68:	f3 0f 10 8d 60 f3 ff 	movss  -0xca0(%rbp),%xmm1
  410f6f:	ff 
  410f70:	8b 85 20 f3 ff ff    	mov    -0xce0(%rbp),%eax
  410f76:	48 98                	cltq   
  410f78:	48 c1 e0 04          	shl    $0x4,%rax
  410f7c:	48 01 e8             	add    %rbp,%rax
  410f7f:	48 2d 90 0c 00 00    	sub    $0xc90,%rax
  410f85:	f3 0f 10 00          	movss  (%rax),%xmm0
  410f89:	f3 0f 58 c1          	addss  %xmm1,%xmm0
  410f8d:	f3 0f 11 85 60 f3 ff 	movss  %xmm0,-0xca0(%rbp)
  410f94:	ff 
  410f95:	f3 0f 10 8d 64 f3 ff 	movss  -0xc9c(%rbp),%xmm1
  410f9c:	ff 
  410f9d:	8b 85 20 f3 ff ff    	mov    -0xce0(%rbp),%eax
  410fa3:	48 98                	cltq   
  410fa5:	48 c1 e0 04          	shl    $0x4,%rax
  410fa9:	48 01 e8             	add    %rbp,%rax
  410fac:	48 2d 8c 0c 00 00    	sub    $0xc8c,%rax
  410fb2:	f3 0f 10 00          	movss  (%rax),%xmm0
  410fb6:	f3 0f 58 c1          	addss  %xmm1,%xmm0
  410fba:	f3 0f 11 85 64 f3 ff 	movss  %xmm0,-0xc9c(%rbp)
  410fc1:	ff 
  410fc2:	f3 0f 10 8d 68 f3 ff 	movss  -0xc98(%rbp),%xmm1
  410fc9:	ff 
  410fca:	8b 85 20 f3 ff ff    	mov    -0xce0(%rbp),%eax
  410fd0:	48 98                	cltq   
  410fd2:	48 c1 e0 04          	shl    $0x4,%rax
  410fd6:	48 01 e8             	add    %rbp,%rax
  410fd9:	48 2d 88 0c 00 00    	sub    $0xc88,%rax
  410fdf:	f3 0f 10 00          	movss  (%rax),%xmm0
  410fe3:	f3 0f 58 c1          	addss  %xmm1,%xmm0
  410fe7:	f3 0f 11 85 68 f3 ff 	movss  %xmm0,-0xc98(%rbp)
  410fee:	ff 
  410fef:	f3 0f 10 8d 6c f3 ff 	movss  -0xc94(%rbp),%xmm1
  410ff6:	ff 
  410ff7:	8b 85 20 f3 ff ff    	mov    -0xce0(%rbp),%eax
  410ffd:	48 98                	cltq   
  410fff:	48 c1 e0 04          	shl    $0x4,%rax
  411003:	48 01 e8             	add    %rbp,%rax
  411006:	48 2d 84 0c 00 00    	sub    $0xc84,%rax
  41100c:	f3 0f 10 00          	movss  (%rax),%xmm0
  411010:	f3 0f 58 c1          	addss  %xmm1,%xmm0
  411014:	f3 0f 11 85 6c f3 ff 	movss  %xmm0,-0xc94(%rbp)
  41101b:	ff 
  41101c:	83 85 20 f3 ff ff 01 	addl   $0x1,-0xce0(%rbp)
  411023:	f3 0f 10 8d 60 f3 ff 	movss  -0xca0(%rbp),%xmm1
  41102a:	ff 
  41102b:	8b 85 20 f3 ff ff    	mov    -0xce0(%rbp),%eax
  411031:	48 98                	cltq   
  411033:	48 c1 e0 04          	shl    $0x4,%rax
  411037:	48 01 e8             	add    %rbp,%rax
  41103a:	48 2d 90 0c 00 00    	sub    $0xc90,%rax
  411040:	f3 0f 10 00          	movss  (%rax),%xmm0
  411044:	f3 0f 58 c1          	addss  %xmm1,%xmm0
  411048:	f3 0f 11 85 60 f3 ff 	movss  %xmm0,-0xca0(%rbp)
  41104f:	ff 
  411050:	f3 0f 10 8d 64 f3 ff 	movss  -0xc9c(%rbp),%xmm1
  411057:	ff 
  411058:	8b 85 20 f3 ff ff    	mov    -0xce0(%rbp),%eax
  41105e:	48 98                	cltq   
  411060:	48 c1 e0 04          	shl    $0x4,%rax
  411064:	48 01 e8             	add    %rbp,%rax
  411067:	48 2d 8c 0c 00 00    	sub    $0xc8c,%rax
  41106d:	f3 0f 10 00          	movss  (%rax),%xmm0
  411071:	f3 0f 58 c1          	addss  %xmm1,%xmm0
  411075:	f3 0f 11 85 64 f3 ff 	movss  %xmm0,-0xc9c(%rbp)
  41107c:	ff 
  41107d:	f3 0f 10 8d 68 f3 ff 	movss  -0xc98(%rbp),%xmm1
  411084:	ff 
  411085:	8b 85 20 f3 ff ff    	mov    -0xce0(%rbp),%eax
  41108b:	48 98                	cltq   
  41108d:	48 c1 e0 04          	shl    $0x4,%rax
  411091:	48 01 e8             	add    %rbp,%rax
  411094:	48 2d 88 0c 00 00    	sub    $0xc88,%rax
  41109a:	f3 0f 10 00          	movss  (%rax),%xmm0
  41109e:	f3 0f 58 c1          	addss  %xmm1,%xmm0
  4110a2:	f3 0f 11 85 68 f3 ff 	movss  %xmm0,-0xc98(%rbp)
  4110a9:	ff 
  4110aa:	f3 0f 10 8d 6c f3 ff 	movss  -0xc94(%rbp),%xmm1
  4110b1:	ff 
  4110b2:	8b 85 20 f3 ff ff    	mov    -0xce0(%rbp),%eax
  4110b8:	48 98                	cltq   
  4110ba:	48 c1 e0 04          	shl    $0x4,%rax
  4110be:	48 01 e8             	add    %rbp,%rax
  4110c1:	48 2d 84 0c 00 00    	sub    $0xc84,%rax
  4110c7:	f3 0f 10 00          	movss  (%rax),%xmm0
  4110cb:	f3 0f 58 c1          	addss  %xmm1,%xmm0
  4110cf:	f3 0f 11 85 6c f3 ff 	movss  %xmm0,-0xc94(%rbp)
  4110d6:	ff 
  4110d7:	83 85 20 f3 ff ff 01 	addl   $0x1,-0xce0(%rbp)
  4110de:	f3 0f 10 8d 60 f3 ff 	movss  -0xca0(%rbp),%xmm1
  4110e5:	ff 
  4110e6:	8b 85 20 f3 ff ff    	mov    -0xce0(%rbp),%eax
  4110ec:	48 98                	cltq   
  4110ee:	48 c1 e0 04          	shl    $0x4,%rax
  4110f2:	48 01 e8             	add    %rbp,%rax
  4110f5:	48 2d 90 0c 00 00    	sub    $0xc90,%rax
  4110fb:	f3 0f 10 00          	movss  (%rax),%xmm0
  4110ff:	f3 0f 58 c1          	addss  %xmm1,%xmm0
  411103:	f3 0f 11 85 60 f3 ff 	movss  %xmm0,-0xca0(%rbp)
  41110a:	ff 
  41110b:	f3 0f 10 8d 64 f3 ff 	movss  -0xc9c(%rbp),%xmm1
  411112:	ff 
  411113:	8b 85 20 f3 ff ff    	mov    -0xce0(%rbp),%eax
  411119:	48 98                	cltq   
  41111b:	48 c1 e0 04          	shl    $0x4,%rax
  41111f:	48 01 e8             	add    %rbp,%rax
  411122:	48 2d 8c 0c 00 00    	sub    $0xc8c,%rax
  411128:	f3 0f 10 00          	movss  (%rax),%xmm0
  41112c:	f3 0f 58 c1          	addss  %xmm1,%xmm0
  411130:	f3 0f 11 85 64 f3 ff 	movss  %xmm0,-0xc9c(%rbp)
  411137:	ff 
  411138:	f3 0f 10 8d 68 f3 ff 	movss  -0xc98(%rbp),%xmm1
  41113f:	ff 
  411140:	8b 85 20 f3 ff ff    	mov    -0xce0(%rbp),%eax
  411146:	48 98                	cltq   
  411148:	48 c1 e0 04          	shl    $0x4,%rax
  41114c:	48 01 e8             	add    %rbp,%rax
  41114f:	48 2d 88 0c 00 00    	sub    $0xc88,%rax
  411155:	f3 0f 10 00          	movss  (%rax),%xmm0
  411159:	f3 0f 58 c1          	addss  %xmm1,%xmm0
  41115d:	f3 0f 11 85 68 f3 ff 	movss  %xmm0,-0xc98(%rbp)
  411164:	ff 
  411165:	f3 0f 10 8d 6c f3 ff 	movss  -0xc94(%rbp),%xmm1
  41116c:	ff 
  41116d:	8b 85 20 f3 ff ff    	mov    -0xce0(%rbp),%eax
  411173:	48 98                	cltq   
  411175:	48 c1 e0 04          	shl    $0x4,%rax
  411179:	48 01 e8             	add    %rbp,%rax
  41117c:	48 2d 84 0c 00 00    	sub    $0xc84,%rax
  411182:	f3 0f 10 00          	movss  (%rax),%xmm0
  411186:	f3 0f 58 c1          	addss  %xmm1,%xmm0
  41118a:	f3 0f 11 85 6c f3 ff 	movss  %xmm0,-0xc94(%rbp)
  411191:	ff 
  411192:	83 85 20 f3 ff ff 01 	addl   $0x1,-0xce0(%rbp)
  411199:	f3 0f 10 85 1c f3 ff 	movss  -0xce4(%rbp),%xmm0
  4111a0:	ff 
  4111a1:	f3 0f 59 85 1c f3 ff 	mulss  -0xce4(%rbp),%xmm0
  4111a8:	ff 
  4111a9:	f3 0f 11 85 1c f3 ff 	movss  %xmm0,-0xce4(%rbp)
  4111b0:	ff 
  4111b1:	83 85 38 f3 ff ff 01 	addl   $0x1,-0xcc8(%rbp)
  4111b8:	83 85 20 f3 ff ff 01 	addl   $0x1,-0xce0(%rbp)
  4111bf:	f3 0f 10 8d 60 f3 ff 	movss  -0xca0(%rbp),%xmm1
  4111c6:	ff 
  4111c7:	8b 85 20 f3 ff ff    	mov    -0xce0(%rbp),%eax
  4111cd:	48 98                	cltq   
  4111cf:	48 c1 e0 04          	shl    $0x4,%rax
  4111d3:	48 01 e8             	add    %rbp,%rax
  4111d6:	48 2d 90 0c 00 00    	sub    $0xc90,%rax
  4111dc:	f3 0f 10 00          	movss  (%rax),%xmm0
  4111e0:	f3 0f 58 c1          	addss  %xmm1,%xmm0
  4111e4:	f3 0f 11 85 60 f3 ff 	movss  %xmm0,-0xca0(%rbp)
  4111eb:	ff 
  4111ec:	f3 0f 10 8d 64 f3 ff 	movss  -0xc9c(%rbp),%xmm1
  4111f3:	ff 
  4111f4:	8b 85 20 f3 ff ff    	mov    -0xce0(%rbp),%eax
  4111fa:	48 98                	cltq   
  4111fc:	48 c1 e0 04          	shl    $0x4,%rax
  411200:	48 01 e8             	add    %rbp,%rax
  411203:	48 2d 8c 0c 00 00    	sub    $0xc8c,%rax
  411209:	f3 0f 10 00          	movss  (%rax),%xmm0
  41120d:	f3 0f 58 c1          	addss  %xmm1,%xmm0
  411211:	f3 0f 11 85 64 f3 ff 	movss  %xmm0,-0xc9c(%rbp)
  411218:	ff 
  411219:	f3 0f 10 8d 68 f3 ff 	movss  -0xc98(%rbp),%xmm1
  411220:	ff 
  411221:	8b 85 20 f3 ff ff    	mov    -0xce0(%rbp),%eax
  411227:	48 98                	cltq   
  411229:	48 c1 e0 04          	shl    $0x4,%rax
  41122d:	48 01 e8             	add    %rbp,%rax
  411230:	48 2d 88 0c 00 00    	sub    $0xc88,%rax
  411236:	f3 0f 10 00          	movss  (%rax),%xmm0
  41123a:	f3 0f 58 c1          	addss  %xmm1,%xmm0
  41123e:	f3 0f 11 85 68 f3 ff 	movss  %xmm0,-0xc98(%rbp)
  411245:	ff 
  411246:	f3 0f 10 8d 6c f3 ff 	movss  -0xc94(%rbp),%xmm1
  41124d:	ff 
  41124e:	8b 85 20 f3 ff ff    	mov    -0xce0(%rbp),%eax
  411254:	48 98                	cltq   
  411256:	48 c1 e0 04          	shl    $0x4,%rax
  41125a:	48 01 e8             	add    %rbp,%rax
  41125d:	48 2d 84 0c 00 00    	sub    $0xc84,%rax
  411263:	f3 0f 10 00          	movss  (%rax),%xmm0
  411267:	f3 0f 58 c1          	addss  %xmm1,%xmm0
  41126b:	f3 0f 11 85 6c f3 ff 	movss  %xmm0,-0xc94(%rbp)
  411272:	ff 
  411273:	83 85 20 f3 ff ff 01 	addl   $0x1,-0xce0(%rbp)
  41127a:	f3 0f 10 8d 60 f3 ff 	movss  -0xca0(%rbp),%xmm1
  411281:	ff 
  411282:	8b 85 20 f3 ff ff    	mov    -0xce0(%rbp),%eax
  411288:	48 98                	cltq   
  41128a:	48 c1 e0 04          	shl    $0x4,%rax
  41128e:	48 01 e8             	add    %rbp,%rax
  411291:	48 2d 90 0c 00 00    	sub    $0xc90,%rax
  411297:	f3 0f 10 00          	movss  (%rax),%xmm0
  41129b:	f3 0f 58 c1          	addss  %xmm1,%xmm0
  41129f:	f3 0f 11 85 60 f3 ff 	movss  %xmm0,-0xca0(%rbp)
  4112a6:	ff 
  4112a7:	f3 0f 10 8d 64 f3 ff 	movss  -0xc9c(%rbp),%xmm1
  4112ae:	ff 
  4112af:	8b 85 20 f3 ff ff    	mov    -0xce0(%rbp),%eax
  4112b5:	48 98                	cltq   
  4112b7:	48 c1 e0 04          	shl    $0x4,%rax
  4112bb:	48 01 e8             	add    %rbp,%rax
  4112be:	48 2d 8c 0c 00 00    	sub    $0xc8c,%rax
  4112c4:	f3 0f 10 00          	movss  (%rax),%xmm0
  4112c8:	f3 0f 58 c1          	addss  %xmm1,%xmm0
  4112cc:	f3 0f 11 85 64 f3 ff 	movss  %xmm0,-0xc9c(%rbp)
  4112d3:	ff 
  4112d4:	f3 0f 10 8d 68 f3 ff 	movss  -0xc98(%rbp),%xmm1
  4112db:	ff 
  4112dc:	8b 85 20 f3 ff ff    	mov    -0xce0(%rbp),%eax
  4112e2:	48 98                	cltq   
  4112e4:	48 c1 e0 04          	shl    $0x4,%rax
  4112e8:	48 01 e8             	add    %rbp,%rax
  4112eb:	48 2d 88 0c 00 00    	sub    $0xc88,%rax
  4112f1:	f3 0f 10 00          	movss  (%rax),%xmm0
  4112f5:	f3 0f 58 c1          	addss  %xmm1,%xmm0
  4112f9:	f3 0f 11 85 68 f3 ff 	movss  %xmm0,-0xc98(%rbp)
  411300:	ff 
  411301:	f3 0f 10 8d 6c f3 ff 	movss  -0xc94(%rbp),%xmm1
  411308:	ff 
  411309:	8b 85 20 f3 ff ff    	mov    -0xce0(%rbp),%eax
  41130f:	48 98                	cltq   
  411311:	48 c1 e0 04          	shl    $0x4,%rax
  411315:	48 01 e8             	add    %rbp,%rax
  411318:	48 2d 84 0c 00 00    	sub    $0xc84,%rax
  41131e:	f3 0f 10 00          	movss  (%rax),%xmm0
  411322:	f3 0f 58 c1          	addss  %xmm1,%xmm0
  411326:	f3 0f 11 85 6c f3 ff 	movss  %xmm0,-0xc94(%rbp)
  41132d:	ff 
  41132e:	83 85 20 f3 ff ff 01 	addl   $0x1,-0xce0(%rbp)
  411335:	f3 0f 10 8d 60 f3 ff 	movss  -0xca0(%rbp),%xmm1
  41133c:	ff 
  41133d:	8b 85 20 f3 ff ff    	mov    -0xce0(%rbp),%eax
  411343:	48 98                	cltq   
  411345:	48 c1 e0 04          	shl    $0x4,%rax
  411349:	48 01 e8             	add    %rbp,%rax
  41134c:	48 2d 90 0c 00 00    	sub    $0xc90,%rax
  411352:	f3 0f 10 00          	movss  (%rax),%xmm0
  411356:	f3 0f 58 c1          	addss  %xmm1,%xmm0
  41135a:	f3 0f 11 85 60 f3 ff 	movss  %xmm0,-0xca0(%rbp)
  411361:	ff 
  411362:	f3 0f 10 8d 64 f3 ff 	movss  -0xc9c(%rbp),%xmm1
  411369:	ff 
  41136a:	8b 85 20 f3 ff ff    	mov    -0xce0(%rbp),%eax
  411370:	48 98                	cltq   
  411372:	48 c1 e0 04          	shl    $0x4,%rax
  411376:	48 01 e8             	add    %rbp,%rax
  411379:	48 2d 8c 0c 00 00    	sub    $0xc8c,%rax
  41137f:	f3 0f 10 00          	movss  (%rax),%xmm0
  411383:	f3 0f 58 c1          	addss  %xmm1,%xmm0
  411387:	f3 0f 11 85 64 f3 ff 	movss  %xmm0,-0xc9c(%rbp)
  41138e:	ff 
  41138f:	f3 0f 10 8d 68 f3 ff 	movss  -0xc98(%rbp),%xmm1
  411396:	ff 
  411397:	8b 85 20 f3 ff ff    	mov    -0xce0(%rbp),%eax
  41139d:	48 98                	cltq   
  41139f:	48 c1 e0 04          	shl    $0x4,%rax
  4113a3:	48 01 e8             	add    %rbp,%rax
  4113a6:	48 2d 88 0c 00 00    	sub    $0xc88,%rax
  4113ac:	f3 0f 10 00          	movss  (%rax),%xmm0
  4113b0:	f3 0f 58 c1          	addss  %xmm1,%xmm0
  4113b4:	f3 0f 11 85 68 f3 ff 	movss  %xmm0,-0xc98(%rbp)
  4113bb:	ff 
  4113bc:	f3 0f 10 8d 6c f3 ff 	movss  -0xc94(%rbp),%xmm1
  4113c3:	ff 
  4113c4:	8b 85 20 f3 ff ff    	mov    -0xce0(%rbp),%eax
  4113ca:	48 98                	cltq   
  4113cc:	48 c1 e0 04          	shl    $0x4,%rax
  4113d0:	48 01 e8             	add    %rbp,%rax
  4113d3:	48 2d 84 0c 00 00    	sub    $0xc84,%rax
  4113d9:	f3 0f 10 00          	movss  (%rax),%xmm0
  4113dd:	f3 0f 58 c1          	addss  %xmm1,%xmm0
  4113e1:	f3 0f 11 85 6c f3 ff 	movss  %xmm0,-0xc94(%rbp)
  4113e8:	ff 
  4113e9:	83 85 20 f3 ff ff 01 	addl   $0x1,-0xce0(%rbp)
  4113f0:	f3 0f 10 8d 60 f3 ff 	movss  -0xca0(%rbp),%xmm1
  4113f7:	ff 
  4113f8:	8b 85 20 f3 ff ff    	mov    -0xce0(%rbp),%eax
  4113fe:	48 98                	cltq   
  411400:	48 c1 e0 04          	shl    $0x4,%rax
  411404:	48 01 e8             	add    %rbp,%rax
  411407:	48 2d 90 0c 00 00    	sub    $0xc90,%rax
  41140d:	f3 0f 10 00          	movss  (%rax),%xmm0
  411411:	f3 0f 58 c1          	addss  %xmm1,%xmm0
  411415:	f3 0f 11 85 60 f3 ff 	movss  %xmm0,-0xca0(%rbp)
  41141c:	ff 
  41141d:	f3 0f 10 8d 64 f3 ff 	movss  -0xc9c(%rbp),%xmm1
  411424:	ff 
  411425:	8b 85 20 f3 ff ff    	mov    -0xce0(%rbp),%eax
  41142b:	48 98                	cltq   
  41142d:	48 c1 e0 04          	shl    $0x4,%rax
  411431:	48 01 e8             	add    %rbp,%rax
  411434:	48 2d 8c 0c 00 00    	sub    $0xc8c,%rax
  41143a:	f3 0f 10 00          	movss  (%rax),%xmm0
  41143e:	f3 0f 58 c1          	addss  %xmm1,%xmm0
  411442:	f3 0f 11 85 64 f3 ff 	movss  %xmm0,-0xc9c(%rbp)
  411449:	ff 
  41144a:	f3 0f 10 8d 68 f3 ff 	movss  -0xc98(%rbp),%xmm1
  411451:	ff 
  411452:	8b 85 20 f3 ff ff    	mov    -0xce0(%rbp),%eax
  411458:	48 98                	cltq   
  41145a:	48 c1 e0 04          	shl    $0x4,%rax
  41145e:	48 01 e8             	add    %rbp,%rax
  411461:	48 2d 88 0c 00 00    	sub    $0xc88,%rax
  411467:	f3 0f 10 00          	movss  (%rax),%xmm0
  41146b:	f3 0f 58 c1          	addss  %xmm1,%xmm0
  41146f:	f3 0f 11 85 68 f3 ff 	movss  %xmm0,-0xc98(%rbp)
  411476:	ff 
  411477:	f3 0f 10 8d 6c f3 ff 	movss  -0xc94(%rbp),%xmm1
  41147e:	ff 
  41147f:	8b 85 20 f3 ff ff    	mov    -0xce0(%rbp),%eax
  411485:	48 98                	cltq   
  411487:	48 c1 e0 04          	shl    $0x4,%rax
  41148b:	48 01 e8             	add    %rbp,%rax
  41148e:	48 2d 84 0c 00 00    	sub    $0xc84,%rax
  411494:	f3 0f 10 00          	movss  (%rax),%xmm0
  411498:	f3 0f 58 c1          	addss  %xmm1,%xmm0
  41149c:	f3 0f 11 85 6c f3 ff 	movss  %xmm0,-0xc94(%rbp)
  4114a3:	ff 
  4114a4:	83 85 20 f3 ff ff 01 	addl   $0x1,-0xce0(%rbp)
  4114ab:	f3 0f 10 8d 60 f3 ff 	movss  -0xca0(%rbp),%xmm1
  4114b2:	ff 
  4114b3:	8b 85 20 f3 ff ff    	mov    -0xce0(%rbp),%eax
  4114b9:	48 98                	cltq   
  4114bb:	48 c1 e0 04          	shl    $0x4,%rax
  4114bf:	48 01 e8             	add    %rbp,%rax
  4114c2:	48 2d 90 0c 00 00    	sub    $0xc90,%rax
  4114c8:	f3 0f 10 00          	movss  (%rax),%xmm0
  4114cc:	f3 0f 58 c1          	addss  %xmm1,%xmm0
  4114d0:	f3 0f 11 85 60 f3 ff 	movss  %xmm0,-0xca0(%rbp)
  4114d7:	ff 
  4114d8:	f3 0f 10 8d 64 f3 ff 	movss  -0xc9c(%rbp),%xmm1
  4114df:	ff 
  4114e0:	8b 85 20 f3 ff ff    	mov    -0xce0(%rbp),%eax
  4114e6:	48 98                	cltq   
  4114e8:	48 c1 e0 04          	shl    $0x4,%rax
  4114ec:	48 01 e8             	add    %rbp,%rax
  4114ef:	48 2d 8c 0c 00 00    	sub    $0xc8c,%rax
  4114f5:	f3 0f 10 00          	movss  (%rax),%xmm0
  4114f9:	f3 0f 58 c1          	addss  %xmm1,%xmm0
  4114fd:	f3 0f 11 85 64 f3 ff 	movss  %xmm0,-0xc9c(%rbp)
  411504:	ff 
  411505:	f3 0f 10 8d 68 f3 ff 	movss  -0xc98(%rbp),%xmm1
  41150c:	ff 
  41150d:	8b 85 20 f3 ff ff    	mov    -0xce0(%rbp),%eax
  411513:	48 98                	cltq   
  411515:	48 c1 e0 04          	shl    $0x4,%rax
  411519:	48 01 e8             	add    %rbp,%rax
  41151c:	48 2d 88 0c 00 00    	sub    $0xc88,%rax
  411522:	f3 0f 10 00          	movss  (%rax),%xmm0
  411526:	f3 0f 58 c1          	addss  %xmm1,%xmm0
  41152a:	f3 0f 11 85 68 f3 ff 	movss  %xmm0,-0xc98(%rbp)
  411531:	ff 
  411532:	f3 0f 10 8d 6c f3 ff 	movss  -0xc94(%rbp),%xmm1
  411539:	ff 
  41153a:	8b 85 20 f3 ff ff    	mov    -0xce0(%rbp),%eax
  411540:	48 98                	cltq   
  411542:	48 c1 e0 04          	shl    $0x4,%rax
  411546:	48 01 e8             	add    %rbp,%rax
  411549:	48 2d 84 0c 00 00    	sub    $0xc84,%rax
  41154f:	f3 0f 10 00          	movss  (%rax),%xmm0
  411553:	f3 0f 58 c1          	addss  %xmm1,%xmm0
  411557:	f3 0f 11 85 6c f3 ff 	movss  %xmm0,-0xc94(%rbp)
  41155e:	ff 
  41155f:	83 85 20 f3 ff ff 01 	addl   $0x1,-0xce0(%rbp)
  411566:	f3 0f 10 8d 60 f3 ff 	movss  -0xca0(%rbp),%xmm1
  41156d:	ff 
  41156e:	8b 85 20 f3 ff ff    	mov    -0xce0(%rbp),%eax
  411574:	48 98                	cltq   
  411576:	48 c1 e0 04          	shl    $0x4,%rax
  41157a:	48 01 e8             	add    %rbp,%rax
  41157d:	48 2d 90 0c 00 00    	sub    $0xc90,%rax
  411583:	f3 0f 10 00          	movss  (%rax),%xmm0
  411587:	f3 0f 58 c1          	addss  %xmm1,%xmm0
  41158b:	f3 0f 11 85 60 f3 ff 	movss  %xmm0,-0xca0(%rbp)
  411592:	ff 
  411593:	f3 0f 10 8d 64 f3 ff 	movss  -0xc9c(%rbp),%xmm1
  41159a:	ff 
  41159b:	8b 85 20 f3 ff ff    	mov    -0xce0(%rbp),%eax
  4115a1:	48 98                	cltq   
  4115a3:	48 c1 e0 04          	shl    $0x4,%rax
  4115a7:	48 01 e8             	add    %rbp,%rax
  4115aa:	48 2d 8c 0c 00 00    	sub    $0xc8c,%rax
  4115b0:	f3 0f 10 00          	movss  (%rax),%xmm0
  4115b4:	f3 0f 58 c1          	addss  %xmm1,%xmm0
  4115b8:	f3 0f 11 85 64 f3 ff 	movss  %xmm0,-0xc9c(%rbp)
  4115bf:	ff 
  4115c0:	f3 0f 10 8d 68 f3 ff 	movss  -0xc98(%rbp),%xmm1
  4115c7:	ff 
  4115c8:	8b 85 20 f3 ff ff    	mov    -0xce0(%rbp),%eax
  4115ce:	48 98                	cltq   
  4115d0:	48 c1 e0 04          	shl    $0x4,%rax
  4115d4:	48 01 e8             	add    %rbp,%rax
  4115d7:	48 2d 88 0c 00 00    	sub    $0xc88,%rax
  4115dd:	f3 0f 10 00          	movss  (%rax),%xmm0
  4115e1:	f3 0f 58 c1          	addss  %xmm1,%xmm0
  4115e5:	f3 0f 11 85 68 f3 ff 	movss  %xmm0,-0xc98(%rbp)
  4115ec:	ff 
  4115ed:	f3 0f 10 8d 6c f3 ff 	movss  -0xc94(%rbp),%xmm1
  4115f4:	ff 
  4115f5:	8b 85 20 f3 ff ff    	mov    -0xce0(%rbp),%eax
  4115fb:	48 98                	cltq   
  4115fd:	48 c1 e0 04          	shl    $0x4,%rax
  411601:	48 01 e8             	add    %rbp,%rax
  411604:	48 2d 84 0c 00 00    	sub    $0xc84,%rax
  41160a:	f3 0f 10 00          	movss  (%rax),%xmm0
  41160e:	f3 0f 58 c1          	addss  %xmm1,%xmm0
  411612:	f3 0f 11 85 6c f3 ff 	movss  %xmm0,-0xc94(%rbp)
  411619:	ff 
  41161a:	83 85 20 f3 ff ff 01 	addl   $0x1,-0xce0(%rbp)
  411621:	f3 0f 10 8d 60 f3 ff 	movss  -0xca0(%rbp),%xmm1
  411628:	ff 
  411629:	8b 85 20 f3 ff ff    	mov    -0xce0(%rbp),%eax
  41162f:	48 98                	cltq   
  411631:	48 c1 e0 04          	shl    $0x4,%rax
  411635:	48 01 e8             	add    %rbp,%rax
  411638:	48 2d 90 0c 00 00    	sub    $0xc90,%rax
  41163e:	f3 0f 10 00          	movss  (%rax),%xmm0
  411642:	f3 0f 58 c1          	addss  %xmm1,%xmm0
  411646:	f3 0f 11 85 60 f3 ff 	movss  %xmm0,-0xca0(%rbp)
  41164d:	ff 
  41164e:	f3 0f 10 8d 64 f3 ff 	movss  -0xc9c(%rbp),%xmm1
  411655:	ff 
  411656:	8b 85 20 f3 ff ff    	mov    -0xce0(%rbp),%eax
  41165c:	48 98                	cltq   
  41165e:	48 c1 e0 04          	shl    $0x4,%rax
  411662:	48 01 e8             	add    %rbp,%rax
  411665:	48 2d 8c 0c 00 00    	sub    $0xc8c,%rax
  41166b:	f3 0f 10 00          	movss  (%rax),%xmm0
  41166f:	f3 0f 58 c1          	addss  %xmm1,%xmm0
  411673:	f3 0f 11 85 64 f3 ff 	movss  %xmm0,-0xc9c(%rbp)
  41167a:	ff 
  41167b:	f3 0f 10 8d 68 f3 ff 	movss  -0xc98(%rbp),%xmm1
  411682:	ff 
  411683:	8b 85 20 f3 ff ff    	mov    -0xce0(%rbp),%eax
  411689:	48 98                	cltq   
  41168b:	48 c1 e0 04          	shl    $0x4,%rax
  41168f:	48 01 e8             	add    %rbp,%rax
  411692:	48 2d 88 0c 00 00    	sub    $0xc88,%rax
  411698:	f3 0f 10 00          	movss  (%rax),%xmm0
  41169c:	f3 0f 58 c1          	addss  %xmm1,%xmm0
  4116a0:	f3 0f 11 85 68 f3 ff 	movss  %xmm0,-0xc98(%rbp)
  4116a7:	ff 
  4116a8:	f3 0f 10 8d 6c f3 ff 	movss  -0xc94(%rbp),%xmm1
  4116af:	ff 
  4116b0:	8b 85 20 f3 ff ff    	mov    -0xce0(%rbp),%eax
  4116b6:	48 98                	cltq   
  4116b8:	48 c1 e0 04          	shl    $0x4,%rax
  4116bc:	48 01 e8             	add    %rbp,%rax
  4116bf:	48 2d 84 0c 00 00    	sub    $0xc84,%rax
  4116c5:	f3 0f 10 00          	movss  (%rax),%xmm0
  4116c9:	f3 0f 58 c1          	addss  %xmm1,%xmm0
  4116cd:	f3 0f 11 85 6c f3 ff 	movss  %xmm0,-0xc94(%rbp)
  4116d4:	ff 
  4116d5:	83 85 20 f3 ff ff 01 	addl   $0x1,-0xce0(%rbp)
  4116dc:	f3 0f 10 8d 60 f3 ff 	movss  -0xca0(%rbp),%xmm1
  4116e3:	ff 
  4116e4:	8b 85 20 f3 ff ff    	mov    -0xce0(%rbp),%eax
  4116ea:	48 98                	cltq   
  4116ec:	48 c1 e0 04          	shl    $0x4,%rax
  4116f0:	48 01 e8             	add    %rbp,%rax
  4116f3:	48 2d 90 0c 00 00    	sub    $0xc90,%rax
  4116f9:	f3 0f 10 00          	movss  (%rax),%xmm0
  4116fd:	f3 0f 58 c1          	addss  %xmm1,%xmm0
  411701:	f3 0f 11 85 60 f3 ff 	movss  %xmm0,-0xca0(%rbp)
  411708:	ff 
  411709:	f3 0f 10 8d 64 f3 ff 	movss  -0xc9c(%rbp),%xmm1
  411710:	ff 
  411711:	8b 85 20 f3 ff ff    	mov    -0xce0(%rbp),%eax
  411717:	48 98                	cltq   
  411719:	48 c1 e0 04          	shl    $0x4,%rax
  41171d:	48 01 e8             	add    %rbp,%rax
  411720:	48 2d 8c 0c 00 00    	sub    $0xc8c,%rax
  411726:	f3 0f 10 00          	movss  (%rax),%xmm0
  41172a:	f3 0f 58 c1          	addss  %xmm1,%xmm0
  41172e:	f3 0f 11 85 64 f3 ff 	movss  %xmm0,-0xc9c(%rbp)
  411735:	ff 
  411736:	f3 0f 10 8d 68 f3 ff 	movss  -0xc98(%rbp),%xmm1
  41173d:	ff 
  41173e:	8b 85 20 f3 ff ff    	mov    -0xce0(%rbp),%eax
  411744:	48 98                	cltq   
  411746:	48 c1 e0 04          	shl    $0x4,%rax
  41174a:	48 01 e8             	add    %rbp,%rax
  41174d:	48 2d 88 0c 00 00    	sub    $0xc88,%rax
  411753:	f3 0f 10 00          	movss  (%rax),%xmm0
  411757:	f3 0f 58 c1          	addss  %xmm1,%xmm0
  41175b:	f3 0f 11 85 68 f3 ff 	movss  %xmm0,-0xc98(%rbp)
  411762:	ff 
  411763:	f3 0f 10 8d 6c f3 ff 	movss  -0xc94(%rbp),%xmm1
  41176a:	ff 
  41176b:	8b 85 20 f3 ff ff    	mov    -0xce0(%rbp),%eax
  411771:	48 98                	cltq   
  411773:	48 c1 e0 04          	shl    $0x4,%rax
  411777:	48 01 e8             	add    %rbp,%rax
  41177a:	48 2d 84 0c 00 00    	sub    $0xc84,%rax
  411780:	f3 0f 10 00          	movss  (%rax),%xmm0
  411784:	f3 0f 58 c1          	addss  %xmm1,%xmm0
  411788:	f3 0f 11 85 6c f3 ff 	movss  %xmm0,-0xc94(%rbp)
  41178f:	ff 
  411790:	83 85 20 f3 ff ff 01 	addl   $0x1,-0xce0(%rbp)
  411797:	f3 0f 10 8d 60 f3 ff 	movss  -0xca0(%rbp),%xmm1
  41179e:	ff 
  41179f:	8b 85 20 f3 ff ff    	mov    -0xce0(%rbp),%eax
  4117a5:	48 98                	cltq   
  4117a7:	48 c1 e0 04          	shl    $0x4,%rax
  4117ab:	48 01 e8             	add    %rbp,%rax
  4117ae:	48 2d 90 0c 00 00    	sub    $0xc90,%rax
  4117b4:	f3 0f 10 00          	movss  (%rax),%xmm0
  4117b8:	f3 0f 58 c1          	addss  %xmm1,%xmm0
  4117bc:	f3 0f 11 85 60 f3 ff 	movss  %xmm0,-0xca0(%rbp)
  4117c3:	ff 
  4117c4:	f3 0f 10 8d 64 f3 ff 	movss  -0xc9c(%rbp),%xmm1
  4117cb:	ff 
  4117cc:	8b 85 20 f3 ff ff    	mov    -0xce0(%rbp),%eax
  4117d2:	48 98                	cltq   
  4117d4:	48 c1 e0 04          	shl    $0x4,%rax
  4117d8:	48 01 e8             	add    %rbp,%rax
  4117db:	48 2d 8c 0c 00 00    	sub    $0xc8c,%rax
  4117e1:	f3 0f 10 00          	movss  (%rax),%xmm0
  4117e5:	f3 0f 58 c1          	addss  %xmm1,%xmm0
  4117e9:	f3 0f 11 85 64 f3 ff 	movss  %xmm0,-0xc9c(%rbp)
  4117f0:	ff 
  4117f1:	f3 0f 10 8d 68 f3 ff 	movss  -0xc98(%rbp),%xmm1
  4117f8:	ff 
  4117f9:	8b 85 20 f3 ff ff    	mov    -0xce0(%rbp),%eax
  4117ff:	48 98                	cltq   
  411801:	48 c1 e0 04          	shl    $0x4,%rax
  411805:	48 01 e8             	add    %rbp,%rax
  411808:	48 2d 88 0c 00 00    	sub    $0xc88,%rax
  41180e:	f3 0f 10 00          	movss  (%rax),%xmm0
  411812:	f3 0f 58 c1          	addss  %xmm1,%xmm0
  411816:	f3 0f 11 85 68 f3 ff 	movss  %xmm0,-0xc98(%rbp)
  41181d:	ff 
  41181e:	f3 0f 10 8d 6c f3 ff 	movss  -0xc94(%rbp),%xmm1
  411825:	ff 
  411826:	8b 85 20 f3 ff ff    	mov    -0xce0(%rbp),%eax
  41182c:	48 98                	cltq   
  41182e:	48 c1 e0 04          	shl    $0x4,%rax
  411832:	48 01 e8             	add    %rbp,%rax
  411835:	48 2d 84 0c 00 00    	sub    $0xc84,%rax
  41183b:	f3 0f 10 00          	movss  (%rax),%xmm0
  41183f:	f3 0f 58 c1          	addss  %xmm1,%xmm0
  411843:	f3 0f 11 85 6c f3 ff 	movss  %xmm0,-0xc94(%rbp)
  41184a:	ff 
  41184b:	83 85 20 f3 ff ff 01 	addl   $0x1,-0xce0(%rbp)
  411852:	f3 0f 10 8d 60 f3 ff 	movss  -0xca0(%rbp),%xmm1
  411859:	ff 
  41185a:	8b 85 20 f3 ff ff    	mov    -0xce0(%rbp),%eax
  411860:	48 98                	cltq   
  411862:	48 c1 e0 04          	shl    $0x4,%rax
  411866:	48 01 e8             	add    %rbp,%rax
  411869:	48 2d 90 0c 00 00    	sub    $0xc90,%rax
  41186f:	f3 0f 10 00          	movss  (%rax),%xmm0
  411873:	f3 0f 58 c1          	addss  %xmm1,%xmm0
  411877:	f3 0f 11 85 60 f3 ff 	movss  %xmm0,-0xca0(%rbp)
  41187e:	ff 
  41187f:	f3 0f 10 8d 64 f3 ff 	movss  -0xc9c(%rbp),%xmm1
  411886:	ff 
  411887:	8b 85 20 f3 ff ff    	mov    -0xce0(%rbp),%eax
  41188d:	48 98                	cltq   
  41188f:	48 c1 e0 04          	shl    $0x4,%rax
  411893:	48 01 e8             	add    %rbp,%rax
  411896:	48 2d 8c 0c 00 00    	sub    $0xc8c,%rax
  41189c:	f3 0f 10 00          	movss  (%rax),%xmm0
  4118a0:	f3 0f 58 c1          	addss  %xmm1,%xmm0
  4118a4:	f3 0f 11 85 64 f3 ff 	movss  %xmm0,-0xc9c(%rbp)
  4118ab:	ff 
  4118ac:	f3 0f 10 8d 68 f3 ff 	movss  -0xc98(%rbp),%xmm1
  4118b3:	ff 
  4118b4:	8b 85 20 f3 ff ff    	mov    -0xce0(%rbp),%eax
  4118ba:	48 98                	cltq   
  4118bc:	48 c1 e0 04          	shl    $0x4,%rax
  4118c0:	48 01 e8             	add    %rbp,%rax
  4118c3:	48 2d 88 0c 00 00    	sub    $0xc88,%rax
  4118c9:	f3 0f 10 00          	movss  (%rax),%xmm0
  4118cd:	f3 0f 58 c1          	addss  %xmm1,%xmm0
  4118d1:	f3 0f 11 85 68 f3 ff 	movss  %xmm0,-0xc98(%rbp)
  4118d8:	ff 
  4118d9:	f3 0f 10 8d 6c f3 ff 	movss  -0xc94(%rbp),%xmm1
  4118e0:	ff 
  4118e1:	8b 85 20 f3 ff ff    	mov    -0xce0(%rbp),%eax
  4118e7:	48 98                	cltq   
  4118e9:	48 c1 e0 04          	shl    $0x4,%rax
  4118ed:	48 01 e8             	add    %rbp,%rax
  4118f0:	48 2d 84 0c 00 00    	sub    $0xc84,%rax
  4118f6:	f3 0f 10 00          	movss  (%rax),%xmm0
  4118fa:	f3 0f 58 c1          	addss  %xmm1,%xmm0
  4118fe:	f3 0f 11 85 6c f3 ff 	movss  %xmm0,-0xc94(%rbp)
  411905:	ff 
  411906:	83 85 20 f3 ff ff 01 	addl   $0x1,-0xce0(%rbp)
  41190d:	f3 0f 10 8d 60 f3 ff 	movss  -0xca0(%rbp),%xmm1
  411914:	ff 
  411915:	8b 85 20 f3 ff ff    	mov    -0xce0(%rbp),%eax
  41191b:	48 98                	cltq   
  41191d:	48 c1 e0 04          	shl    $0x4,%rax
  411921:	48 01 e8             	add    %rbp,%rax
  411924:	48 2d 90 0c 00 00    	sub    $0xc90,%rax
  41192a:	f3 0f 10 00          	movss  (%rax),%xmm0
  41192e:	f3 0f 58 c1          	addss  %xmm1,%xmm0
  411932:	f3 0f 11 85 60 f3 ff 	movss  %xmm0,-0xca0(%rbp)
  411939:	ff 
  41193a:	f3 0f 10 8d 64 f3 ff 	movss  -0xc9c(%rbp),%xmm1
  411941:	ff 
  411942:	8b 85 20 f3 ff ff    	mov    -0xce0(%rbp),%eax
  411948:	48 98                	cltq   
  41194a:	48 c1 e0 04          	shl    $0x4,%rax
  41194e:	48 01 e8             	add    %rbp,%rax
  411951:	48 2d 8c 0c 00 00    	sub    $0xc8c,%rax
  411957:	f3 0f 10 00          	movss  (%rax),%xmm0
  41195b:	f3 0f 58 c1          	addss  %xmm1,%xmm0
  41195f:	f3 0f 11 85 64 f3 ff 	movss  %xmm0,-0xc9c(%rbp)
  411966:	ff 
  411967:	f3 0f 10 8d 68 f3 ff 	movss  -0xc98(%rbp),%xmm1
  41196e:	ff 
  41196f:	8b 85 20 f3 ff ff    	mov    -0xce0(%rbp),%eax
  411975:	48 98                	cltq   
  411977:	48 c1 e0 04          	shl    $0x4,%rax
  41197b:	48 01 e8             	add    %rbp,%rax
  41197e:	48 2d 88 0c 00 00    	sub    $0xc88,%rax
  411984:	f3 0f 10 00          	movss  (%rax),%xmm0
  411988:	f3 0f 58 c1          	addss  %xmm1,%xmm0
  41198c:	f3 0f 11 85 68 f3 ff 	movss  %xmm0,-0xc98(%rbp)
  411993:	ff 
  411994:	f3 0f 10 8d 6c f3 ff 	movss  -0xc94(%rbp),%xmm1
  41199b:	ff 
  41199c:	8b 85 20 f3 ff ff    	mov    -0xce0(%rbp),%eax
  4119a2:	48 98                	cltq   
  4119a4:	48 c1 e0 04          	shl    $0x4,%rax
  4119a8:	48 01 e8             	add    %rbp,%rax
  4119ab:	48 2d 84 0c 00 00    	sub    $0xc84,%rax
  4119b1:	f3 0f 10 00          	movss  (%rax),%xmm0
  4119b5:	f3 0f 58 c1          	addss  %xmm1,%xmm0
  4119b9:	f3 0f 11 85 6c f3 ff 	movss  %xmm0,-0xc94(%rbp)
  4119c0:	ff 
  4119c1:	83 85 20 f3 ff ff 01 	addl   $0x1,-0xce0(%rbp)
  4119c8:	f3 0f 10 8d 60 f3 ff 	movss  -0xca0(%rbp),%xmm1
  4119cf:	ff 
  4119d0:	8b 85 20 f3 ff ff    	mov    -0xce0(%rbp),%eax
  4119d6:	48 98                	cltq   
  4119d8:	48 c1 e0 04          	shl    $0x4,%rax
  4119dc:	48 01 e8             	add    %rbp,%rax
  4119df:	48 2d 90 0c 00 00    	sub    $0xc90,%rax
  4119e5:	f3 0f 10 00          	movss  (%rax),%xmm0
  4119e9:	f3 0f 58 c1          	addss  %xmm1,%xmm0
  4119ed:	f3 0f 11 85 60 f3 ff 	movss  %xmm0,-0xca0(%rbp)
  4119f4:	ff 
  4119f5:	f3 0f 10 8d 64 f3 ff 	movss  -0xc9c(%rbp),%xmm1
  4119fc:	ff 
  4119fd:	8b 85 20 f3 ff ff    	mov    -0xce0(%rbp),%eax
  411a03:	48 98                	cltq   
  411a05:	48 c1 e0 04          	shl    $0x4,%rax
  411a09:	48 01 e8             	add    %rbp,%rax
  411a0c:	48 2d 8c 0c 00 00    	sub    $0xc8c,%rax
  411a12:	f3 0f 10 00          	movss  (%rax),%xmm0
  411a16:	f3 0f 58 c1          	addss  %xmm1,%xmm0
  411a1a:	f3 0f 11 85 64 f3 ff 	movss  %xmm0,-0xc9c(%rbp)
  411a21:	ff 
  411a22:	f3 0f 10 8d 68 f3 ff 	movss  -0xc98(%rbp),%xmm1
  411a29:	ff 
  411a2a:	8b 85 20 f3 ff ff    	mov    -0xce0(%rbp),%eax
  411a30:	48 98                	cltq   
  411a32:	48 c1 e0 04          	shl    $0x4,%rax
  411a36:	48 01 e8             	add    %rbp,%rax
  411a39:	48 2d 88 0c 00 00    	sub    $0xc88,%rax
  411a3f:	f3 0f 10 00          	movss  (%rax),%xmm0
  411a43:	f3 0f 58 c1          	addss  %xmm1,%xmm0
  411a47:	f3 0f 11 85 68 f3 ff 	movss  %xmm0,-0xc98(%rbp)
  411a4e:	ff 
  411a4f:	f3 0f 10 8d 6c f3 ff 	movss  -0xc94(%rbp),%xmm1
  411a56:	ff 
  411a57:	8b 85 20 f3 ff ff    	mov    -0xce0(%rbp),%eax
  411a5d:	48 98                	cltq   
  411a5f:	48 c1 e0 04          	shl    $0x4,%rax
  411a63:	48 01 e8             	add    %rbp,%rax
  411a66:	48 2d 84 0c 00 00    	sub    $0xc84,%rax
  411a6c:	f3 0f 10 00          	movss  (%rax),%xmm0
  411a70:	f3 0f 58 c1          	addss  %xmm1,%xmm0
  411a74:	f3 0f 11 85 6c f3 ff 	movss  %xmm0,-0xc94(%rbp)
  411a7b:	ff 
  411a7c:	83 85 20 f3 ff ff 01 	addl   $0x1,-0xce0(%rbp)
  411a83:	f3 0f 10 8d 60 f3 ff 	movss  -0xca0(%rbp),%xmm1
  411a8a:	ff 
  411a8b:	8b 85 20 f3 ff ff    	mov    -0xce0(%rbp),%eax
  411a91:	48 98                	cltq   
  411a93:	48 c1 e0 04          	shl    $0x4,%rax
  411a97:	48 01 e8             	add    %rbp,%rax
  411a9a:	48 2d 90 0c 00 00    	sub    $0xc90,%rax
  411aa0:	f3 0f 10 00          	movss  (%rax),%xmm0
  411aa4:	f3 0f 58 c1          	addss  %xmm1,%xmm0
  411aa8:	f3 0f 11 85 60 f3 ff 	movss  %xmm0,-0xca0(%rbp)
  411aaf:	ff 
  411ab0:	f3 0f 10 8d 64 f3 ff 	movss  -0xc9c(%rbp),%xmm1
  411ab7:	ff 
  411ab8:	8b 85 20 f3 ff ff    	mov    -0xce0(%rbp),%eax
  411abe:	48 98                	cltq   
  411ac0:	48 c1 e0 04          	shl    $0x4,%rax
  411ac4:	48 01 e8             	add    %rbp,%rax
  411ac7:	48 2d 8c 0c 00 00    	sub    $0xc8c,%rax
  411acd:	f3 0f 10 00          	movss  (%rax),%xmm0
  411ad1:	f3 0f 58 c1          	addss  %xmm1,%xmm0
  411ad5:	f3 0f 11 85 64 f3 ff 	movss  %xmm0,-0xc9c(%rbp)
  411adc:	ff 
  411add:	f3 0f 10 8d 68 f3 ff 	movss  -0xc98(%rbp),%xmm1
  411ae4:	ff 
  411ae5:	8b 85 20 f3 ff ff    	mov    -0xce0(%rbp),%eax
  411aeb:	48 98                	cltq   
  411aed:	48 c1 e0 04          	shl    $0x4,%rax
  411af1:	48 01 e8             	add    %rbp,%rax
  411af4:	48 2d 88 0c 00 00    	sub    $0xc88,%rax
  411afa:	f3 0f 10 00          	movss  (%rax),%xmm0
  411afe:	f3 0f 58 c1          	addss  %xmm1,%xmm0
  411b02:	f3 0f 11 85 68 f3 ff 	movss  %xmm0,-0xc98(%rbp)
  411b09:	ff 
  411b0a:	f3 0f 10 8d 6c f3 ff 	movss  -0xc94(%rbp),%xmm1
  411b11:	ff 
  411b12:	8b 85 20 f3 ff ff    	mov    -0xce0(%rbp),%eax
  411b18:	48 98                	cltq   
  411b1a:	48 c1 e0 04          	shl    $0x4,%rax
  411b1e:	48 01 e8             	add    %rbp,%rax
  411b21:	48 2d 84 0c 00 00    	sub    $0xc84,%rax
  411b27:	f3 0f 10 00          	movss  (%rax),%xmm0
  411b2b:	f3 0f 58 c1          	addss  %xmm1,%xmm0
  411b2f:	f3 0f 11 85 6c f3 ff 	movss  %xmm0,-0xc94(%rbp)
  411b36:	ff 
  411b37:	83 85 20 f3 ff ff 01 	addl   $0x1,-0xce0(%rbp)
  411b3e:	f3 0f 10 8d 60 f3 ff 	movss  -0xca0(%rbp),%xmm1
  411b45:	ff 
  411b46:	8b 85 20 f3 ff ff    	mov    -0xce0(%rbp),%eax
  411b4c:	48 98                	cltq   
  411b4e:	48 c1 e0 04          	shl    $0x4,%rax
  411b52:	48 01 e8             	add    %rbp,%rax
  411b55:	48 2d 90 0c 00 00    	sub    $0xc90,%rax
  411b5b:	f3 0f 10 00          	movss  (%rax),%xmm0
  411b5f:	f3 0f 58 c1          	addss  %xmm1,%xmm0
  411b63:	f3 0f 11 85 60 f3 ff 	movss  %xmm0,-0xca0(%rbp)
  411b6a:	ff 
  411b6b:	f3 0f 10 8d 64 f3 ff 	movss  -0xc9c(%rbp),%xmm1
  411b72:	ff 
  411b73:	8b 85 20 f3 ff ff    	mov    -0xce0(%rbp),%eax
  411b79:	48 98                	cltq   
  411b7b:	48 c1 e0 04          	shl    $0x4,%rax
  411b7f:	48 01 e8             	add    %rbp,%rax
  411b82:	48 2d 8c 0c 00 00    	sub    $0xc8c,%rax
  411b88:	f3 0f 10 00          	movss  (%rax),%xmm0
  411b8c:	f3 0f 58 c1          	addss  %xmm1,%xmm0
  411b90:	f3 0f 11 85 64 f3 ff 	movss  %xmm0,-0xc9c(%rbp)
  411b97:	ff 
  411b98:	f3 0f 10 8d 68 f3 ff 	movss  -0xc98(%rbp),%xmm1
  411b9f:	ff 
  411ba0:	8b 85 20 f3 ff ff    	mov    -0xce0(%rbp),%eax
  411ba6:	48 98                	cltq   
  411ba8:	48 c1 e0 04          	shl    $0x4,%rax
  411bac:	48 01 e8             	add    %rbp,%rax
  411baf:	48 2d 88 0c 00 00    	sub    $0xc88,%rax
  411bb5:	f3 0f 10 00          	movss  (%rax),%xmm0
  411bb9:	f3 0f 58 c1          	addss  %xmm1,%xmm0
  411bbd:	f3 0f 11 85 68 f3 ff 	movss  %xmm0,-0xc98(%rbp)
  411bc4:	ff 
  411bc5:	f3 0f 10 8d 6c f3 ff 	movss  -0xc94(%rbp),%xmm1
  411bcc:	ff 
  411bcd:	8b 85 20 f3 ff ff    	mov    -0xce0(%rbp),%eax
  411bd3:	48 98                	cltq   
  411bd5:	48 c1 e0 04          	shl    $0x4,%rax
  411bd9:	48 01 e8             	add    %rbp,%rax
  411bdc:	48 2d 84 0c 00 00    	sub    $0xc84,%rax
  411be2:	f3 0f 10 00          	movss  (%rax),%xmm0
  411be6:	f3 0f 58 c1          	addss  %xmm1,%xmm0
  411bea:	f3 0f 11 85 6c f3 ff 	movss  %xmm0,-0xc94(%rbp)
  411bf1:	ff 
  411bf2:	83 85 20 f3 ff ff 01 	addl   $0x1,-0xce0(%rbp)
  411bf9:	f3 0f 10 8d 60 f3 ff 	movss  -0xca0(%rbp),%xmm1
  411c00:	ff 
  411c01:	8b 85 20 f3 ff ff    	mov    -0xce0(%rbp),%eax
  411c07:	48 98                	cltq   
  411c09:	48 c1 e0 04          	shl    $0x4,%rax
  411c0d:	48 01 e8             	add    %rbp,%rax
  411c10:	48 2d 90 0c 00 00    	sub    $0xc90,%rax
  411c16:	f3 0f 10 00          	movss  (%rax),%xmm0
  411c1a:	f3 0f 58 c1          	addss  %xmm1,%xmm0
  411c1e:	f3 0f 11 85 60 f3 ff 	movss  %xmm0,-0xca0(%rbp)
  411c25:	ff 
  411c26:	f3 0f 10 8d 64 f3 ff 	movss  -0xc9c(%rbp),%xmm1
  411c2d:	ff 
  411c2e:	8b 85 20 f3 ff ff    	mov    -0xce0(%rbp),%eax
  411c34:	48 98                	cltq   
  411c36:	48 c1 e0 04          	shl    $0x4,%rax
  411c3a:	48 01 e8             	add    %rbp,%rax
  411c3d:	48 2d 8c 0c 00 00    	sub    $0xc8c,%rax
  411c43:	f3 0f 10 00          	movss  (%rax),%xmm0
  411c47:	f3 0f 58 c1          	addss  %xmm1,%xmm0
  411c4b:	f3 0f 11 85 64 f3 ff 	movss  %xmm0,-0xc9c(%rbp)
  411c52:	ff 
  411c53:	f3 0f 10 8d 68 f3 ff 	movss  -0xc98(%rbp),%xmm1
  411c5a:	ff 
  411c5b:	8b 85 20 f3 ff ff    	mov    -0xce0(%rbp),%eax
  411c61:	48 98                	cltq   
  411c63:	48 c1 e0 04          	shl    $0x4,%rax
  411c67:	48 01 e8             	add    %rbp,%rax
  411c6a:	48 2d 88 0c 00 00    	sub    $0xc88,%rax
  411c70:	f3 0f 10 00          	movss  (%rax),%xmm0
  411c74:	f3 0f 58 c1          	addss  %xmm1,%xmm0
  411c78:	f3 0f 11 85 68 f3 ff 	movss  %xmm0,-0xc98(%rbp)
  411c7f:	ff 
  411c80:	f3 0f 10 8d 6c f3 ff 	movss  -0xc94(%rbp),%xmm1
  411c87:	ff 
  411c88:	8b 85 20 f3 ff ff    	mov    -0xce0(%rbp),%eax
  411c8e:	48 98                	cltq   
  411c90:	48 c1 e0 04          	shl    $0x4,%rax
  411c94:	48 01 e8             	add    %rbp,%rax
  411c97:	48 2d 84 0c 00 00    	sub    $0xc84,%rax
  411c9d:	f3 0f 10 00          	movss  (%rax),%xmm0
  411ca1:	f3 0f 58 c1          	addss  %xmm1,%xmm0
  411ca5:	f3 0f 11 85 6c f3 ff 	movss  %xmm0,-0xc94(%rbp)
  411cac:	ff 
  411cad:	83 85 20 f3 ff ff 01 	addl   $0x1,-0xce0(%rbp)
  411cb4:	f3 0f 10 8d 60 f3 ff 	movss  -0xca0(%rbp),%xmm1
  411cbb:	ff 
  411cbc:	8b 85 20 f3 ff ff    	mov    -0xce0(%rbp),%eax
  411cc2:	48 98                	cltq   
  411cc4:	48 c1 e0 04          	shl    $0x4,%rax
  411cc8:	48 01 e8             	add    %rbp,%rax
  411ccb:	48 2d 90 0c 00 00    	sub    $0xc90,%rax
  411cd1:	f3 0f 10 00          	movss  (%rax),%xmm0
  411cd5:	f3 0f 58 c1          	addss  %xmm1,%xmm0
  411cd9:	f3 0f 11 85 60 f3 ff 	movss  %xmm0,-0xca0(%rbp)
  411ce0:	ff 
  411ce1:	f3 0f 10 8d 64 f3 ff 	movss  -0xc9c(%rbp),%xmm1
  411ce8:	ff 
  411ce9:	8b 85 20 f3 ff ff    	mov    -0xce0(%rbp),%eax
  411cef:	48 98                	cltq   
  411cf1:	48 c1 e0 04          	shl    $0x4,%rax
  411cf5:	48 01 e8             	add    %rbp,%rax
  411cf8:	48 2d 8c 0c 00 00    	sub    $0xc8c,%rax
  411cfe:	f3 0f 10 00          	movss  (%rax),%xmm0
  411d02:	f3 0f 58 c1          	addss  %xmm1,%xmm0
  411d06:	f3 0f 11 85 64 f3 ff 	movss  %xmm0,-0xc9c(%rbp)
  411d0d:	ff 
  411d0e:	f3 0f 10 8d 68 f3 ff 	movss  -0xc98(%rbp),%xmm1
  411d15:	ff 
  411d16:	8b 85 20 f3 ff ff    	mov    -0xce0(%rbp),%eax
  411d1c:	48 98                	cltq   
  411d1e:	48 c1 e0 04          	shl    $0x4,%rax
  411d22:	48 01 e8             	add    %rbp,%rax
  411d25:	48 2d 88 0c 00 00    	sub    $0xc88,%rax
  411d2b:	f3 0f 10 00          	movss  (%rax),%xmm0
  411d2f:	f3 0f 58 c1          	addss  %xmm1,%xmm0
  411d33:	f3 0f 11 85 68 f3 ff 	movss  %xmm0,-0xc98(%rbp)
  411d3a:	ff 
  411d3b:	f3 0f 10 8d 6c f3 ff 	movss  -0xc94(%rbp),%xmm1
  411d42:	ff 
  411d43:	8b 85 20 f3 ff ff    	mov    -0xce0(%rbp),%eax
  411d49:	48 98                	cltq   
  411d4b:	48 c1 e0 04          	shl    $0x4,%rax
  411d4f:	48 01 e8             	add    %rbp,%rax
  411d52:	48 2d 84 0c 00 00    	sub    $0xc84,%rax
  411d58:	f3 0f 10 00          	movss  (%rax),%xmm0
  411d5c:	f3 0f 58 c1          	addss  %xmm1,%xmm0
  411d60:	f3 0f 11 85 6c f3 ff 	movss  %xmm0,-0xc94(%rbp)
  411d67:	ff 
  411d68:	83 85 20 f3 ff ff 01 	addl   $0x1,-0xce0(%rbp)
  411d6f:	f3 0f 10 8d 60 f3 ff 	movss  -0xca0(%rbp),%xmm1
  411d76:	ff 
  411d77:	8b 85 20 f3 ff ff    	mov    -0xce0(%rbp),%eax
  411d7d:	48 98                	cltq   
  411d7f:	48 c1 e0 04          	shl    $0x4,%rax
  411d83:	48 01 e8             	add    %rbp,%rax
  411d86:	48 2d 90 0c 00 00    	sub    $0xc90,%rax
  411d8c:	f3 0f 10 00          	movss  (%rax),%xmm0
  411d90:	f3 0f 58 c1          	addss  %xmm1,%xmm0
  411d94:	f3 0f 11 85 60 f3 ff 	movss  %xmm0,-0xca0(%rbp)
  411d9b:	ff 
  411d9c:	f3 0f 10 8d 64 f3 ff 	movss  -0xc9c(%rbp),%xmm1
  411da3:	ff 
  411da4:	8b 85 20 f3 ff ff    	mov    -0xce0(%rbp),%eax
  411daa:	48 98                	cltq   
  411dac:	48 c1 e0 04          	shl    $0x4,%rax
  411db0:	48 01 e8             	add    %rbp,%rax
  411db3:	48 2d 8c 0c 00 00    	sub    $0xc8c,%rax
  411db9:	f3 0f 10 00          	movss  (%rax),%xmm0
  411dbd:	f3 0f 58 c1          	addss  %xmm1,%xmm0
  411dc1:	f3 0f 11 85 64 f3 ff 	movss  %xmm0,-0xc9c(%rbp)
  411dc8:	ff 
  411dc9:	f3 0f 10 8d 68 f3 ff 	movss  -0xc98(%rbp),%xmm1
  411dd0:	ff 
  411dd1:	8b 85 20 f3 ff ff    	mov    -0xce0(%rbp),%eax
  411dd7:	48 98                	cltq   
  411dd9:	48 c1 e0 04          	shl    $0x4,%rax
  411ddd:	48 01 e8             	add    %rbp,%rax
  411de0:	48 2d 88 0c 00 00    	sub    $0xc88,%rax
  411de6:	f3 0f 10 00          	movss  (%rax),%xmm0
  411dea:	f3 0f 58 c1          	addss  %xmm1,%xmm0
  411dee:	f3 0f 11 85 68 f3 ff 	movss  %xmm0,-0xc98(%rbp)
  411df5:	ff 
  411df6:	f3 0f 10 8d 6c f3 ff 	movss  -0xc94(%rbp),%xmm1
  411dfd:	ff 
  411dfe:	8b 85 20 f3 ff ff    	mov    -0xce0(%rbp),%eax
  411e04:	48 98                	cltq   
  411e06:	48 c1 e0 04          	shl    $0x4,%rax
  411e0a:	48 01 e8             	add    %rbp,%rax
  411e0d:	48 2d 84 0c 00 00    	sub    $0xc84,%rax
  411e13:	f3 0f 10 00          	movss  (%rax),%xmm0
  411e17:	f3 0f 58 c1          	addss  %xmm1,%xmm0
  411e1b:	f3 0f 11 85 6c f3 ff 	movss  %xmm0,-0xc94(%rbp)
  411e22:	ff 
  411e23:	83 85 20 f3 ff ff 01 	addl   $0x1,-0xce0(%rbp)
  411e2a:	f3 0f 10 8d 60 f3 ff 	movss  -0xca0(%rbp),%xmm1
  411e31:	ff 
  411e32:	8b 85 20 f3 ff ff    	mov    -0xce0(%rbp),%eax
  411e38:	48 98                	cltq   
  411e3a:	48 c1 e0 04          	shl    $0x4,%rax
  411e3e:	48 01 e8             	add    %rbp,%rax
  411e41:	48 2d 90 0c 00 00    	sub    $0xc90,%rax
  411e47:	f3 0f 10 00          	movss  (%rax),%xmm0
  411e4b:	f3 0f 58 c1          	addss  %xmm1,%xmm0
  411e4f:	f3 0f 11 85 60 f3 ff 	movss  %xmm0,-0xca0(%rbp)
  411e56:	ff 
  411e57:	f3 0f 10 8d 64 f3 ff 	movss  -0xc9c(%rbp),%xmm1
  411e5e:	ff 
  411e5f:	8b 85 20 f3 ff ff    	mov    -0xce0(%rbp),%eax
  411e65:	48 98                	cltq   
  411e67:	48 c1 e0 04          	shl    $0x4,%rax
  411e6b:	48 01 e8             	add    %rbp,%rax
  411e6e:	48 2d 8c 0c 00 00    	sub    $0xc8c,%rax
  411e74:	f3 0f 10 00          	movss  (%rax),%xmm0
  411e78:	f3 0f 58 c1          	addss  %xmm1,%xmm0
  411e7c:	f3 0f 11 85 64 f3 ff 	movss  %xmm0,-0xc9c(%rbp)
  411e83:	ff 
  411e84:	f3 0f 10 8d 68 f3 ff 	movss  -0xc98(%rbp),%xmm1
  411e8b:	ff 
  411e8c:	8b 85 20 f3 ff ff    	mov    -0xce0(%rbp),%eax
  411e92:	48 98                	cltq   
  411e94:	48 c1 e0 04          	shl    $0x4,%rax
  411e98:	48 01 e8             	add    %rbp,%rax
  411e9b:	48 2d 88 0c 00 00    	sub    $0xc88,%rax
  411ea1:	f3 0f 10 00          	movss  (%rax),%xmm0
  411ea5:	f3 0f 58 c1          	addss  %xmm1,%xmm0
  411ea9:	f3 0f 11 85 68 f3 ff 	movss  %xmm0,-0xc98(%rbp)
  411eb0:	ff 
  411eb1:	f3 0f 10 8d 6c f3 ff 	movss  -0xc94(%rbp),%xmm1
  411eb8:	ff 
  411eb9:	8b 85 20 f3 ff ff    	mov    -0xce0(%rbp),%eax
  411ebf:	48 98                	cltq   
  411ec1:	48 c1 e0 04          	shl    $0x4,%rax
  411ec5:	48 01 e8             	add    %rbp,%rax
  411ec8:	48 2d 84 0c 00 00    	sub    $0xc84,%rax
  411ece:	f3 0f 10 00          	movss  (%rax),%xmm0
  411ed2:	f3 0f 58 c1          	addss  %xmm1,%xmm0
  411ed6:	f3 0f 11 85 6c f3 ff 	movss  %xmm0,-0xc94(%rbp)
  411edd:	ff 
  411ede:	83 85 20 f3 ff ff 01 	addl   $0x1,-0xce0(%rbp)
  411ee5:	f3 0f 10 8d 60 f3 ff 	movss  -0xca0(%rbp),%xmm1
  411eec:	ff 
  411eed:	8b 85 20 f3 ff ff    	mov    -0xce0(%rbp),%eax
  411ef3:	48 98                	cltq   
  411ef5:	48 c1 e0 04          	shl    $0x4,%rax
  411ef9:	48 01 e8             	add    %rbp,%rax
  411efc:	48 2d 90 0c 00 00    	sub    $0xc90,%rax
  411f02:	f3 0f 10 00          	movss  (%rax),%xmm0
  411f06:	f3 0f 58 c1          	addss  %xmm1,%xmm0
  411f0a:	f3 0f 11 85 60 f3 ff 	movss  %xmm0,-0xca0(%rbp)
  411f11:	ff 
  411f12:	f3 0f 10 8d 64 f3 ff 	movss  -0xc9c(%rbp),%xmm1
  411f19:	ff 
  411f1a:	8b 85 20 f3 ff ff    	mov    -0xce0(%rbp),%eax
  411f20:	48 98                	cltq   
  411f22:	48 c1 e0 04          	shl    $0x4,%rax
  411f26:	48 01 e8             	add    %rbp,%rax
  411f29:	48 2d 8c 0c 00 00    	sub    $0xc8c,%rax
  411f2f:	f3 0f 10 00          	movss  (%rax),%xmm0
  411f33:	f3 0f 58 c1          	addss  %xmm1,%xmm0
  411f37:	f3 0f 11 85 64 f3 ff 	movss  %xmm0,-0xc9c(%rbp)
  411f3e:	ff 
  411f3f:	f3 0f 10 8d 68 f3 ff 	movss  -0xc98(%rbp),%xmm1
  411f46:	ff 
  411f47:	8b 85 20 f3 ff ff    	mov    -0xce0(%rbp),%eax
  411f4d:	48 98                	cltq   
  411f4f:	48 c1 e0 04          	shl    $0x4,%rax
  411f53:	48 01 e8             	add    %rbp,%rax
  411f56:	48 2d 88 0c 00 00    	sub    $0xc88,%rax
  411f5c:	f3 0f 10 00          	movss  (%rax),%xmm0
  411f60:	f3 0f 58 c1          	addss  %xmm1,%xmm0
  411f64:	f3 0f 11 85 68 f3 ff 	movss  %xmm0,-0xc98(%rbp)
  411f6b:	ff 
  411f6c:	f3 0f 10 8d 6c f3 ff 	movss  -0xc94(%rbp),%xmm1
  411f73:	ff 
  411f74:	8b 85 20 f3 ff ff    	mov    -0xce0(%rbp),%eax
  411f7a:	48 98                	cltq   
  411f7c:	48 c1 e0 04          	shl    $0x4,%rax
  411f80:	48 01 e8             	add    %rbp,%rax
  411f83:	48 2d 84 0c 00 00    	sub    $0xc84,%rax
  411f89:	f3 0f 10 00          	movss  (%rax),%xmm0
  411f8d:	f3 0f 58 c1          	addss  %xmm1,%xmm0
  411f91:	f3 0f 11 85 6c f3 ff 	movss  %xmm0,-0xc94(%rbp)
  411f98:	ff 
  411f99:	83 85 20 f3 ff ff 01 	addl   $0x1,-0xce0(%rbp)
  411fa0:	f3 0f 10 8d 60 f3 ff 	movss  -0xca0(%rbp),%xmm1
  411fa7:	ff 
  411fa8:	8b 85 20 f3 ff ff    	mov    -0xce0(%rbp),%eax
  411fae:	48 98                	cltq   
  411fb0:	48 c1 e0 04          	shl    $0x4,%rax
  411fb4:	48 01 e8             	add    %rbp,%rax
  411fb7:	48 2d 90 0c 00 00    	sub    $0xc90,%rax
  411fbd:	f3 0f 10 00          	movss  (%rax),%xmm0
  411fc1:	f3 0f 58 c1          	addss  %xmm1,%xmm0
  411fc5:	f3 0f 11 85 60 f3 ff 	movss  %xmm0,-0xca0(%rbp)
  411fcc:	ff 
  411fcd:	f3 0f 10 8d 64 f3 ff 	movss  -0xc9c(%rbp),%xmm1
  411fd4:	ff 
  411fd5:	8b 85 20 f3 ff ff    	mov    -0xce0(%rbp),%eax
  411fdb:	48 98                	cltq   
  411fdd:	48 c1 e0 04          	shl    $0x4,%rax
  411fe1:	48 01 e8             	add    %rbp,%rax
  411fe4:	48 2d 8c 0c 00 00    	sub    $0xc8c,%rax
  411fea:	f3 0f 10 00          	movss  (%rax),%xmm0
  411fee:	f3 0f 58 c1          	addss  %xmm1,%xmm0
  411ff2:	f3 0f 11 85 64 f3 ff 	movss  %xmm0,-0xc9c(%rbp)
  411ff9:	ff 
  411ffa:	f3 0f 10 8d 68 f3 ff 	movss  -0xc98(%rbp),%xmm1
  412001:	ff 
  412002:	8b 85 20 f3 ff ff    	mov    -0xce0(%rbp),%eax
  412008:	48 98                	cltq   
  41200a:	48 c1 e0 04          	shl    $0x4,%rax
  41200e:	48 01 e8             	add    %rbp,%rax
  412011:	48 2d 88 0c 00 00    	sub    $0xc88,%rax
  412017:	f3 0f 10 00          	movss  (%rax),%xmm0
  41201b:	f3 0f 58 c1          	addss  %xmm1,%xmm0
  41201f:	f3 0f 11 85 68 f3 ff 	movss  %xmm0,-0xc98(%rbp)
  412026:	ff 
  412027:	f3 0f 10 8d 6c f3 ff 	movss  -0xc94(%rbp),%xmm1
  41202e:	ff 
  41202f:	8b 85 20 f3 ff ff    	mov    -0xce0(%rbp),%eax
  412035:	48 98                	cltq   
  412037:	48 c1 e0 04          	shl    $0x4,%rax
  41203b:	48 01 e8             	add    %rbp,%rax
  41203e:	48 2d 84 0c 00 00    	sub    $0xc84,%rax
  412044:	f3 0f 10 00          	movss  (%rax),%xmm0
  412048:	f3 0f 58 c1          	addss  %xmm1,%xmm0
  41204c:	f3 0f 11 85 6c f3 ff 	movss  %xmm0,-0xc94(%rbp)
  412053:	ff 
  412054:	83 85 20 f3 ff ff 01 	addl   $0x1,-0xce0(%rbp)
  41205b:	f3 0f 10 8d 60 f3 ff 	movss  -0xca0(%rbp),%xmm1
  412062:	ff 
  412063:	8b 85 20 f3 ff ff    	mov    -0xce0(%rbp),%eax
  412069:	48 98                	cltq   
  41206b:	48 c1 e0 04          	shl    $0x4,%rax
  41206f:	48 01 e8             	add    %rbp,%rax
  412072:	48 2d 90 0c 00 00    	sub    $0xc90,%rax
  412078:	f3 0f 10 00          	movss  (%rax),%xmm0
  41207c:	f3 0f 58 c1          	addss  %xmm1,%xmm0
  412080:	f3 0f 11 85 60 f3 ff 	movss  %xmm0,-0xca0(%rbp)
  412087:	ff 
  412088:	f3 0f 10 8d 64 f3 ff 	movss  -0xc9c(%rbp),%xmm1
  41208f:	ff 
  412090:	8b 85 20 f3 ff ff    	mov    -0xce0(%rbp),%eax
  412096:	48 98                	cltq   
  412098:	48 c1 e0 04          	shl    $0x4,%rax
  41209c:	48 01 e8             	add    %rbp,%rax
  41209f:	48 2d 8c 0c 00 00    	sub    $0xc8c,%rax
  4120a5:	f3 0f 10 00          	movss  (%rax),%xmm0
  4120a9:	f3 0f 58 c1          	addss  %xmm1,%xmm0
  4120ad:	f3 0f 11 85 64 f3 ff 	movss  %xmm0,-0xc9c(%rbp)
  4120b4:	ff 
  4120b5:	f3 0f 10 8d 68 f3 ff 	movss  -0xc98(%rbp),%xmm1
  4120bc:	ff 
  4120bd:	8b 85 20 f3 ff ff    	mov    -0xce0(%rbp),%eax
  4120c3:	48 98                	cltq   
  4120c5:	48 c1 e0 04          	shl    $0x4,%rax
  4120c9:	48 01 e8             	add    %rbp,%rax
  4120cc:	48 2d 88 0c 00 00    	sub    $0xc88,%rax
  4120d2:	f3 0f 10 00          	movss  (%rax),%xmm0
  4120d6:	f3 0f 58 c1          	addss  %xmm1,%xmm0
  4120da:	f3 0f 11 85 68 f3 ff 	movss  %xmm0,-0xc98(%rbp)
  4120e1:	ff 
  4120e2:	f3 0f 10 8d 6c f3 ff 	movss  -0xc94(%rbp),%xmm1
  4120e9:	ff 
  4120ea:	8b 85 20 f3 ff ff    	mov    -0xce0(%rbp),%eax
  4120f0:	48 98                	cltq   
  4120f2:	48 c1 e0 04          	shl    $0x4,%rax
  4120f6:	48 01 e8             	add    %rbp,%rax
  4120f9:	48 2d 84 0c 00 00    	sub    $0xc84,%rax
  4120ff:	f3 0f 10 00          	movss  (%rax),%xmm0
  412103:	f3 0f 58 c1          	addss  %xmm1,%xmm0
  412107:	f3 0f 11 85 6c f3 ff 	movss  %xmm0,-0xc94(%rbp)
  41210e:	ff 
  41210f:	83 85 20 f3 ff ff 01 	addl   $0x1,-0xce0(%rbp)
  412116:	f3 0f 10 8d 60 f3 ff 	movss  -0xca0(%rbp),%xmm1
  41211d:	ff 
  41211e:	8b 85 20 f3 ff ff    	mov    -0xce0(%rbp),%eax
  412124:	48 98                	cltq   
  412126:	48 c1 e0 04          	shl    $0x4,%rax
  41212a:	48 01 e8             	add    %rbp,%rax
  41212d:	48 2d 90 0c 00 00    	sub    $0xc90,%rax
  412133:	f3 0f 10 00          	movss  (%rax),%xmm0
  412137:	f3 0f 58 c1          	addss  %xmm1,%xmm0
  41213b:	f3 0f 11 85 60 f3 ff 	movss  %xmm0,-0xca0(%rbp)
  412142:	ff 
  412143:	f3 0f 10 8d 64 f3 ff 	movss  -0xc9c(%rbp),%xmm1
  41214a:	ff 
  41214b:	8b 85 20 f3 ff ff    	mov    -0xce0(%rbp),%eax
  412151:	48 98                	cltq   
  412153:	48 c1 e0 04          	shl    $0x4,%rax
  412157:	48 01 e8             	add    %rbp,%rax
  41215a:	48 2d 8c 0c 00 00    	sub    $0xc8c,%rax
  412160:	f3 0f 10 00          	movss  (%rax),%xmm0
  412164:	f3 0f 58 c1          	addss  %xmm1,%xmm0
  412168:	f3 0f 11 85 64 f3 ff 	movss  %xmm0,-0xc9c(%rbp)
  41216f:	ff 
  412170:	f3 0f 10 8d 68 f3 ff 	movss  -0xc98(%rbp),%xmm1
  412177:	ff 
  412178:	8b 85 20 f3 ff ff    	mov    -0xce0(%rbp),%eax
  41217e:	48 98                	cltq   
  412180:	48 c1 e0 04          	shl    $0x4,%rax
  412184:	48 01 e8             	add    %rbp,%rax
  412187:	48 2d 88 0c 00 00    	sub    $0xc88,%rax
  41218d:	f3 0f 10 00          	movss  (%rax),%xmm0
  412191:	f3 0f 58 c1          	addss  %xmm1,%xmm0
  412195:	f3 0f 11 85 68 f3 ff 	movss  %xmm0,-0xc98(%rbp)
  41219c:	ff 
  41219d:	f3 0f 10 8d 6c f3 ff 	movss  -0xc94(%rbp),%xmm1
  4121a4:	ff 
  4121a5:	8b 85 20 f3 ff ff    	mov    -0xce0(%rbp),%eax
  4121ab:	48 98                	cltq   
  4121ad:	48 c1 e0 04          	shl    $0x4,%rax
  4121b1:	48 01 e8             	add    %rbp,%rax
  4121b4:	48 2d 84 0c 00 00    	sub    $0xc84,%rax
  4121ba:	f3 0f 10 00          	movss  (%rax),%xmm0
  4121be:	f3 0f 58 c1          	addss  %xmm1,%xmm0
  4121c2:	f3 0f 11 85 6c f3 ff 	movss  %xmm0,-0xc94(%rbp)
  4121c9:	ff 
  4121ca:	83 85 20 f3 ff ff 01 	addl   $0x1,-0xce0(%rbp)
  4121d1:	f3 0f 10 8d 60 f3 ff 	movss  -0xca0(%rbp),%xmm1
  4121d8:	ff 
  4121d9:	8b 85 20 f3 ff ff    	mov    -0xce0(%rbp),%eax
  4121df:	48 98                	cltq   
  4121e1:	48 c1 e0 04          	shl    $0x4,%rax
  4121e5:	48 01 e8             	add    %rbp,%rax
  4121e8:	48 2d 90 0c 00 00    	sub    $0xc90,%rax
  4121ee:	f3 0f 10 00          	movss  (%rax),%xmm0
  4121f2:	f3 0f 58 c1          	addss  %xmm1,%xmm0
  4121f6:	f3 0f 11 85 60 f3 ff 	movss  %xmm0,-0xca0(%rbp)
  4121fd:	ff 
  4121fe:	f3 0f 10 8d 64 f3 ff 	movss  -0xc9c(%rbp),%xmm1
  412205:	ff 
  412206:	8b 85 20 f3 ff ff    	mov    -0xce0(%rbp),%eax
  41220c:	48 98                	cltq   
  41220e:	48 c1 e0 04          	shl    $0x4,%rax
  412212:	48 01 e8             	add    %rbp,%rax
  412215:	48 2d 8c 0c 00 00    	sub    $0xc8c,%rax
  41221b:	f3 0f 10 00          	movss  (%rax),%xmm0
  41221f:	f3 0f 58 c1          	addss  %xmm1,%xmm0
  412223:	f3 0f 11 85 64 f3 ff 	movss  %xmm0,-0xc9c(%rbp)
  41222a:	ff 
  41222b:	f3 0f 10 8d 68 f3 ff 	movss  -0xc98(%rbp),%xmm1
  412232:	ff 
  412233:	8b 85 20 f3 ff ff    	mov    -0xce0(%rbp),%eax
  412239:	48 98                	cltq   
  41223b:	48 c1 e0 04          	shl    $0x4,%rax
  41223f:	48 01 e8             	add    %rbp,%rax
  412242:	48 2d 88 0c 00 00    	sub    $0xc88,%rax
  412248:	f3 0f 10 00          	movss  (%rax),%xmm0
  41224c:	f3 0f 58 c1          	addss  %xmm1,%xmm0
  412250:	f3 0f 11 85 68 f3 ff 	movss  %xmm0,-0xc98(%rbp)
  412257:	ff 
  412258:	f3 0f 10 8d 6c f3 ff 	movss  -0xc94(%rbp),%xmm1
  41225f:	ff 
  412260:	8b 85 20 f3 ff ff    	mov    -0xce0(%rbp),%eax
  412266:	48 98                	cltq   
  412268:	48 c1 e0 04          	shl    $0x4,%rax
  41226c:	48 01 e8             	add    %rbp,%rax
  41226f:	48 2d 84 0c 00 00    	sub    $0xc84,%rax
  412275:	f3 0f 10 00          	movss  (%rax),%xmm0
  412279:	f3 0f 58 c1          	addss  %xmm1,%xmm0
  41227d:	f3 0f 11 85 6c f3 ff 	movss  %xmm0,-0xc94(%rbp)
  412284:	ff 
  412285:	83 85 20 f3 ff ff 01 	addl   $0x1,-0xce0(%rbp)
  41228c:	f3 0f 10 8d 60 f3 ff 	movss  -0xca0(%rbp),%xmm1
  412293:	ff 
  412294:	8b 85 20 f3 ff ff    	mov    -0xce0(%rbp),%eax
  41229a:	48 98                	cltq   
  41229c:	48 c1 e0 04          	shl    $0x4,%rax
  4122a0:	48 01 e8             	add    %rbp,%rax
  4122a3:	48 2d 90 0c 00 00    	sub    $0xc90,%rax
  4122a9:	f3 0f 10 00          	movss  (%rax),%xmm0
  4122ad:	f3 0f 58 c1          	addss  %xmm1,%xmm0
  4122b1:	f3 0f 11 85 60 f3 ff 	movss  %xmm0,-0xca0(%rbp)
  4122b8:	ff 
  4122b9:	f3 0f 10 8d 64 f3 ff 	movss  -0xc9c(%rbp),%xmm1
  4122c0:	ff 
  4122c1:	8b 85 20 f3 ff ff    	mov    -0xce0(%rbp),%eax
  4122c7:	48 98                	cltq   
  4122c9:	48 c1 e0 04          	shl    $0x4,%rax
  4122cd:	48 01 e8             	add    %rbp,%rax
  4122d0:	48 2d 8c 0c 00 00    	sub    $0xc8c,%rax
  4122d6:	f3 0f 10 00          	movss  (%rax),%xmm0
  4122da:	f3 0f 58 c1          	addss  %xmm1,%xmm0
  4122de:	f3 0f 11 85 64 f3 ff 	movss  %xmm0,-0xc9c(%rbp)
  4122e5:	ff 
  4122e6:	f3 0f 10 8d 68 f3 ff 	movss  -0xc98(%rbp),%xmm1
  4122ed:	ff 
  4122ee:	8b 85 20 f3 ff ff    	mov    -0xce0(%rbp),%eax
  4122f4:	48 98                	cltq   
  4122f6:	48 c1 e0 04          	shl    $0x4,%rax
  4122fa:	48 01 e8             	add    %rbp,%rax
  4122fd:	48 2d 88 0c 00 00    	sub    $0xc88,%rax
  412303:	f3 0f 10 00          	movss  (%rax),%xmm0
  412307:	f3 0f 58 c1          	addss  %xmm1,%xmm0
  41230b:	f3 0f 11 85 68 f3 ff 	movss  %xmm0,-0xc98(%rbp)
  412312:	ff 
  412313:	f3 0f 10 8d 6c f3 ff 	movss  -0xc94(%rbp),%xmm1
  41231a:	ff 
  41231b:	8b 85 20 f3 ff ff    	mov    -0xce0(%rbp),%eax
  412321:	48 98                	cltq   
  412323:	48 c1 e0 04          	shl    $0x4,%rax
  412327:	48 01 e8             	add    %rbp,%rax
  41232a:	48 2d 84 0c 00 00    	sub    $0xc84,%rax
  412330:	f3 0f 10 00          	movss  (%rax),%xmm0
  412334:	f3 0f 58 c1          	addss  %xmm1,%xmm0
  412338:	f3 0f 11 85 6c f3 ff 	movss  %xmm0,-0xc94(%rbp)
  41233f:	ff 
  412340:	83 85 20 f3 ff ff 01 	addl   $0x1,-0xce0(%rbp)
  412347:	f3 0f 10 8d 60 f3 ff 	movss  -0xca0(%rbp),%xmm1
  41234e:	ff 
  41234f:	8b 85 20 f3 ff ff    	mov    -0xce0(%rbp),%eax
  412355:	48 98                	cltq   
  412357:	48 c1 e0 04          	shl    $0x4,%rax
  41235b:	48 01 e8             	add    %rbp,%rax
  41235e:	48 2d 90 0c 00 00    	sub    $0xc90,%rax
  412364:	f3 0f 10 00          	movss  (%rax),%xmm0
  412368:	f3 0f 58 c1          	addss  %xmm1,%xmm0
  41236c:	f3 0f 11 85 60 f3 ff 	movss  %xmm0,-0xca0(%rbp)
  412373:	ff 
  412374:	f3 0f 10 8d 64 f3 ff 	movss  -0xc9c(%rbp),%xmm1
  41237b:	ff 
  41237c:	8b 85 20 f3 ff ff    	mov    -0xce0(%rbp),%eax
  412382:	48 98                	cltq   
  412384:	48 c1 e0 04          	shl    $0x4,%rax
  412388:	48 01 e8             	add    %rbp,%rax
  41238b:	48 2d 8c 0c 00 00    	sub    $0xc8c,%rax
  412391:	f3 0f 10 00          	movss  (%rax),%xmm0
  412395:	f3 0f 58 c1          	addss  %xmm1,%xmm0
  412399:	f3 0f 11 85 64 f3 ff 	movss  %xmm0,-0xc9c(%rbp)
  4123a0:	ff 
  4123a1:	f3 0f 10 8d 68 f3 ff 	movss  -0xc98(%rbp),%xmm1
  4123a8:	ff 
  4123a9:	8b 85 20 f3 ff ff    	mov    -0xce0(%rbp),%eax
  4123af:	48 98                	cltq   
  4123b1:	48 c1 e0 04          	shl    $0x4,%rax
  4123b5:	48 01 e8             	add    %rbp,%rax
  4123b8:	48 2d 88 0c 00 00    	sub    $0xc88,%rax
  4123be:	f3 0f 10 00          	movss  (%rax),%xmm0
  4123c2:	f3 0f 58 c1          	addss  %xmm1,%xmm0
  4123c6:	f3 0f 11 85 68 f3 ff 	movss  %xmm0,-0xc98(%rbp)
  4123cd:	ff 
  4123ce:	f3 0f 10 8d 6c f3 ff 	movss  -0xc94(%rbp),%xmm1
  4123d5:	ff 
  4123d6:	8b 85 20 f3 ff ff    	mov    -0xce0(%rbp),%eax
  4123dc:	48 98                	cltq   
  4123de:	48 c1 e0 04          	shl    $0x4,%rax
  4123e2:	48 01 e8             	add    %rbp,%rax
  4123e5:	48 2d 84 0c 00 00    	sub    $0xc84,%rax
  4123eb:	f3 0f 10 00          	movss  (%rax),%xmm0
  4123ef:	f3 0f 58 c1          	addss  %xmm1,%xmm0
  4123f3:	f3 0f 11 85 6c f3 ff 	movss  %xmm0,-0xc94(%rbp)
  4123fa:	ff 
  4123fb:	83 85 20 f3 ff ff 01 	addl   $0x1,-0xce0(%rbp)
  412402:	f3 0f 10 8d 60 f3 ff 	movss  -0xca0(%rbp),%xmm1
  412409:	ff 
  41240a:	8b 85 20 f3 ff ff    	mov    -0xce0(%rbp),%eax
  412410:	48 98                	cltq   
  412412:	48 c1 e0 04          	shl    $0x4,%rax
  412416:	48 01 e8             	add    %rbp,%rax
  412419:	48 2d 90 0c 00 00    	sub    $0xc90,%rax
  41241f:	f3 0f 10 00          	movss  (%rax),%xmm0
  412423:	f3 0f 58 c1          	addss  %xmm1,%xmm0
  412427:	f3 0f 11 85 60 f3 ff 	movss  %xmm0,-0xca0(%rbp)
  41242e:	ff 
  41242f:	f3 0f 10 8d 64 f3 ff 	movss  -0xc9c(%rbp),%xmm1
  412436:	ff 
  412437:	8b 85 20 f3 ff ff    	mov    -0xce0(%rbp),%eax
  41243d:	48 98                	cltq   
  41243f:	48 c1 e0 04          	shl    $0x4,%rax
  412443:	48 01 e8             	add    %rbp,%rax
  412446:	48 2d 8c 0c 00 00    	sub    $0xc8c,%rax
  41244c:	f3 0f 10 00          	movss  (%rax),%xmm0
  412450:	f3 0f 58 c1          	addss  %xmm1,%xmm0
  412454:	f3 0f 11 85 64 f3 ff 	movss  %xmm0,-0xc9c(%rbp)
  41245b:	ff 
  41245c:	f3 0f 10 8d 68 f3 ff 	movss  -0xc98(%rbp),%xmm1
  412463:	ff 
  412464:	8b 85 20 f3 ff ff    	mov    -0xce0(%rbp),%eax
  41246a:	48 98                	cltq   
  41246c:	48 c1 e0 04          	shl    $0x4,%rax
  412470:	48 01 e8             	add    %rbp,%rax
  412473:	48 2d 88 0c 00 00    	sub    $0xc88,%rax
  412479:	f3 0f 10 00          	movss  (%rax),%xmm0
  41247d:	f3 0f 58 c1          	addss  %xmm1,%xmm0
  412481:	f3 0f 11 85 68 f3 ff 	movss  %xmm0,-0xc98(%rbp)
  412488:	ff 
  412489:	f3 0f 10 8d 6c f3 ff 	movss  -0xc94(%rbp),%xmm1
  412490:	ff 
  412491:	8b 85 20 f3 ff ff    	mov    -0xce0(%rbp),%eax
  412497:	48 98                	cltq   
  412499:	48 c1 e0 04          	shl    $0x4,%rax
  41249d:	48 01 e8             	add    %rbp,%rax
  4124a0:	48 2d 84 0c 00 00    	sub    $0xc84,%rax
  4124a6:	f3 0f 10 00          	movss  (%rax),%xmm0
  4124aa:	f3 0f 58 c1          	addss  %xmm1,%xmm0
  4124ae:	f3 0f 11 85 6c f3 ff 	movss  %xmm0,-0xc94(%rbp)
  4124b5:	ff 
  4124b6:	83 85 20 f3 ff ff 01 	addl   $0x1,-0xce0(%rbp)
  4124bd:	f3 0f 10 8d 60 f3 ff 	movss  -0xca0(%rbp),%xmm1
  4124c4:	ff 
  4124c5:	8b 85 20 f3 ff ff    	mov    -0xce0(%rbp),%eax
  4124cb:	48 98                	cltq   
  4124cd:	48 c1 e0 04          	shl    $0x4,%rax
  4124d1:	48 01 e8             	add    %rbp,%rax
  4124d4:	48 2d 90 0c 00 00    	sub    $0xc90,%rax
  4124da:	f3 0f 10 00          	movss  (%rax),%xmm0
  4124de:	f3 0f 58 c1          	addss  %xmm1,%xmm0
  4124e2:	f3 0f 11 85 60 f3 ff 	movss  %xmm0,-0xca0(%rbp)
  4124e9:	ff 
  4124ea:	f3 0f 10 8d 64 f3 ff 	movss  -0xc9c(%rbp),%xmm1
  4124f1:	ff 
  4124f2:	8b 85 20 f3 ff ff    	mov    -0xce0(%rbp),%eax
  4124f8:	48 98                	cltq   
  4124fa:	48 c1 e0 04          	shl    $0x4,%rax
  4124fe:	48 01 e8             	add    %rbp,%rax
  412501:	48 2d 8c 0c 00 00    	sub    $0xc8c,%rax
  412507:	f3 0f 10 00          	movss  (%rax),%xmm0
  41250b:	f3 0f 58 c1          	addss  %xmm1,%xmm0
  41250f:	f3 0f 11 85 64 f3 ff 	movss  %xmm0,-0xc9c(%rbp)
  412516:	ff 
  412517:	f3 0f 10 8d 68 f3 ff 	movss  -0xc98(%rbp),%xmm1
  41251e:	ff 
  41251f:	8b 85 20 f3 ff ff    	mov    -0xce0(%rbp),%eax
  412525:	48 98                	cltq   
  412527:	48 c1 e0 04          	shl    $0x4,%rax
  41252b:	48 01 e8             	add    %rbp,%rax
  41252e:	48 2d 88 0c 00 00    	sub    $0xc88,%rax
  412534:	f3 0f 10 00          	movss  (%rax),%xmm0
  412538:	f3 0f 58 c1          	addss  %xmm1,%xmm0
  41253c:	f3 0f 11 85 68 f3 ff 	movss  %xmm0,-0xc98(%rbp)
  412543:	ff 
  412544:	f3 0f 10 8d 6c f3 ff 	movss  -0xc94(%rbp),%xmm1
  41254b:	ff 
  41254c:	8b 85 20 f3 ff ff    	mov    -0xce0(%rbp),%eax
  412552:	48 98                	cltq   
  412554:	48 c1 e0 04          	shl    $0x4,%rax
  412558:	48 01 e8             	add    %rbp,%rax
  41255b:	48 2d 84 0c 00 00    	sub    $0xc84,%rax
  412561:	f3 0f 10 00          	movss  (%rax),%xmm0
  412565:	f3 0f 58 c1          	addss  %xmm1,%xmm0
  412569:	f3 0f 11 85 6c f3 ff 	movss  %xmm0,-0xc94(%rbp)
  412570:	ff 
  412571:	83 85 20 f3 ff ff 01 	addl   $0x1,-0xce0(%rbp)
  412578:	f3 0f 10 8d 60 f3 ff 	movss  -0xca0(%rbp),%xmm1
  41257f:	ff 
  412580:	8b 85 20 f3 ff ff    	mov    -0xce0(%rbp),%eax
  412586:	48 98                	cltq   
  412588:	48 c1 e0 04          	shl    $0x4,%rax
  41258c:	48 01 e8             	add    %rbp,%rax
  41258f:	48 2d 90 0c 00 00    	sub    $0xc90,%rax
  412595:	f3 0f 10 00          	movss  (%rax),%xmm0
  412599:	f3 0f 58 c1          	addss  %xmm1,%xmm0
  41259d:	f3 0f 11 85 60 f3 ff 	movss  %xmm0,-0xca0(%rbp)
  4125a4:	ff 
  4125a5:	f3 0f 10 8d 64 f3 ff 	movss  -0xc9c(%rbp),%xmm1
  4125ac:	ff 
  4125ad:	8b 85 20 f3 ff ff    	mov    -0xce0(%rbp),%eax
  4125b3:	48 98                	cltq   
  4125b5:	48 c1 e0 04          	shl    $0x4,%rax
  4125b9:	48 01 e8             	add    %rbp,%rax
  4125bc:	48 2d 8c 0c 00 00    	sub    $0xc8c,%rax
  4125c2:	f3 0f 10 00          	movss  (%rax),%xmm0
  4125c6:	f3 0f 58 c1          	addss  %xmm1,%xmm0
  4125ca:	f3 0f 11 85 64 f3 ff 	movss  %xmm0,-0xc9c(%rbp)
  4125d1:	ff 
  4125d2:	f3 0f 10 8d 68 f3 ff 	movss  -0xc98(%rbp),%xmm1
  4125d9:	ff 
  4125da:	8b 85 20 f3 ff ff    	mov    -0xce0(%rbp),%eax
  4125e0:	48 98                	cltq   
  4125e2:	48 c1 e0 04          	shl    $0x4,%rax
  4125e6:	48 01 e8             	add    %rbp,%rax
  4125e9:	48 2d 88 0c 00 00    	sub    $0xc88,%rax
  4125ef:	f3 0f 10 00          	movss  (%rax),%xmm0
  4125f3:	f3 0f 58 c1          	addss  %xmm1,%xmm0
  4125f7:	f3 0f 11 85 68 f3 ff 	movss  %xmm0,-0xc98(%rbp)
  4125fe:	ff 
  4125ff:	f3 0f 10 8d 6c f3 ff 	movss  -0xc94(%rbp),%xmm1
  412606:	ff 
  412607:	8b 85 20 f3 ff ff    	mov    -0xce0(%rbp),%eax
  41260d:	48 98                	cltq   
  41260f:	48 c1 e0 04          	shl    $0x4,%rax
  412613:	48 01 e8             	add    %rbp,%rax
  412616:	48 2d 84 0c 00 00    	sub    $0xc84,%rax
  41261c:	f3 0f 10 00          	movss  (%rax),%xmm0
  412620:	f3 0f 58 c1          	addss  %xmm1,%xmm0
  412624:	f3 0f 11 85 6c f3 ff 	movss  %xmm0,-0xc94(%rbp)
  41262b:	ff 
  41262c:	83 85 20 f3 ff ff 01 	addl   $0x1,-0xce0(%rbp)
  412633:	f3 0f 10 8d 60 f3 ff 	movss  -0xca0(%rbp),%xmm1
  41263a:	ff 
  41263b:	8b 85 20 f3 ff ff    	mov    -0xce0(%rbp),%eax
  412641:	48 98                	cltq   
  412643:	48 c1 e0 04          	shl    $0x4,%rax
  412647:	48 01 e8             	add    %rbp,%rax
  41264a:	48 2d 90 0c 00 00    	sub    $0xc90,%rax
  412650:	f3 0f 10 00          	movss  (%rax),%xmm0
  412654:	f3 0f 58 c1          	addss  %xmm1,%xmm0
  412658:	f3 0f 11 85 60 f3 ff 	movss  %xmm0,-0xca0(%rbp)
  41265f:	ff 
  412660:	f3 0f 10 8d 64 f3 ff 	movss  -0xc9c(%rbp),%xmm1
  412667:	ff 
  412668:	8b 85 20 f3 ff ff    	mov    -0xce0(%rbp),%eax
  41266e:	48 98                	cltq   
  412670:	48 c1 e0 04          	shl    $0x4,%rax
  412674:	48 01 e8             	add    %rbp,%rax
  412677:	48 2d 8c 0c 00 00    	sub    $0xc8c,%rax
  41267d:	f3 0f 10 00          	movss  (%rax),%xmm0
  412681:	f3 0f 58 c1          	addss  %xmm1,%xmm0
  412685:	f3 0f 11 85 64 f3 ff 	movss  %xmm0,-0xc9c(%rbp)
  41268c:	ff 
  41268d:	f3 0f 10 8d 68 f3 ff 	movss  -0xc98(%rbp),%xmm1
  412694:	ff 
  412695:	8b 85 20 f3 ff ff    	mov    -0xce0(%rbp),%eax
  41269b:	48 98                	cltq   
  41269d:	48 c1 e0 04          	shl    $0x4,%rax
  4126a1:	48 01 e8             	add    %rbp,%rax
  4126a4:	48 2d 88 0c 00 00    	sub    $0xc88,%rax
  4126aa:	f3 0f 10 00          	movss  (%rax),%xmm0
  4126ae:	f3 0f 58 c1          	addss  %xmm1,%xmm0
  4126b2:	f3 0f 11 85 68 f3 ff 	movss  %xmm0,-0xc98(%rbp)
  4126b9:	ff 
  4126ba:	f3 0f 10 8d 6c f3 ff 	movss  -0xc94(%rbp),%xmm1
  4126c1:	ff 
  4126c2:	8b 85 20 f3 ff ff    	mov    -0xce0(%rbp),%eax
  4126c8:	48 98                	cltq   
  4126ca:	48 c1 e0 04          	shl    $0x4,%rax
  4126ce:	48 01 e8             	add    %rbp,%rax
  4126d1:	48 2d 84 0c 00 00    	sub    $0xc84,%rax
  4126d7:	f3 0f 10 00          	movss  (%rax),%xmm0
  4126db:	f3 0f 58 c1          	addss  %xmm1,%xmm0
  4126df:	f3 0f 11 85 6c f3 ff 	movss  %xmm0,-0xc94(%rbp)
  4126e6:	ff 
  4126e7:	83 85 20 f3 ff ff 01 	addl   $0x1,-0xce0(%rbp)
  4126ee:	f3 0f 10 8d 60 f3 ff 	movss  -0xca0(%rbp),%xmm1
  4126f5:	ff 
  4126f6:	8b 85 20 f3 ff ff    	mov    -0xce0(%rbp),%eax
  4126fc:	48 98                	cltq   
  4126fe:	48 c1 e0 04          	shl    $0x4,%rax
  412702:	48 01 e8             	add    %rbp,%rax
  412705:	48 2d 90 0c 00 00    	sub    $0xc90,%rax
  41270b:	f3 0f 10 00          	movss  (%rax),%xmm0
  41270f:	f3 0f 58 c1          	addss  %xmm1,%xmm0
  412713:	f3 0f 11 85 60 f3 ff 	movss  %xmm0,-0xca0(%rbp)
  41271a:	ff 
  41271b:	f3 0f 10 8d 64 f3 ff 	movss  -0xc9c(%rbp),%xmm1
  412722:	ff 
  412723:	8b 85 20 f3 ff ff    	mov    -0xce0(%rbp),%eax
  412729:	48 98                	cltq   
  41272b:	48 c1 e0 04          	shl    $0x4,%rax
  41272f:	48 01 e8             	add    %rbp,%rax
  412732:	48 2d 8c 0c 00 00    	sub    $0xc8c,%rax
  412738:	f3 0f 10 00          	movss  (%rax),%xmm0
  41273c:	f3 0f 58 c1          	addss  %xmm1,%xmm0
  412740:	f3 0f 11 85 64 f3 ff 	movss  %xmm0,-0xc9c(%rbp)
  412747:	ff 
  412748:	f3 0f 10 8d 68 f3 ff 	movss  -0xc98(%rbp),%xmm1
  41274f:	ff 
  412750:	8b 85 20 f3 ff ff    	mov    -0xce0(%rbp),%eax
  412756:	48 98                	cltq   
  412758:	48 c1 e0 04          	shl    $0x4,%rax
  41275c:	48 01 e8             	add    %rbp,%rax
  41275f:	48 2d 88 0c 00 00    	sub    $0xc88,%rax
  412765:	f3 0f 10 00          	movss  (%rax),%xmm0
  412769:	f3 0f 58 c1          	addss  %xmm1,%xmm0
  41276d:	f3 0f 11 85 68 f3 ff 	movss  %xmm0,-0xc98(%rbp)
  412774:	ff 
  412775:	f3 0f 10 8d 6c f3 ff 	movss  -0xc94(%rbp),%xmm1
  41277c:	ff 
  41277d:	8b 85 20 f3 ff ff    	mov    -0xce0(%rbp),%eax
  412783:	48 98                	cltq   
  412785:	48 c1 e0 04          	shl    $0x4,%rax
  412789:	48 01 e8             	add    %rbp,%rax
  41278c:	48 2d 84 0c 00 00    	sub    $0xc84,%rax
  412792:	f3 0f 10 00          	movss  (%rax),%xmm0
  412796:	f3 0f 58 c1          	addss  %xmm1,%xmm0
  41279a:	f3 0f 11 85 6c f3 ff 	movss  %xmm0,-0xc94(%rbp)
  4127a1:	ff 
  4127a2:	83 85 20 f3 ff ff 01 	addl   $0x1,-0xce0(%rbp)
  4127a9:	f3 0f 10 8d 60 f3 ff 	movss  -0xca0(%rbp),%xmm1
  4127b0:	ff 
  4127b1:	8b 85 20 f3 ff ff    	mov    -0xce0(%rbp),%eax
  4127b7:	48 98                	cltq   
  4127b9:	48 c1 e0 04          	shl    $0x4,%rax
  4127bd:	48 01 e8             	add    %rbp,%rax
  4127c0:	48 2d 90 0c 00 00    	sub    $0xc90,%rax
  4127c6:	f3 0f 10 00          	movss  (%rax),%xmm0
  4127ca:	f3 0f 58 c1          	addss  %xmm1,%xmm0
  4127ce:	f3 0f 11 85 60 f3 ff 	movss  %xmm0,-0xca0(%rbp)
  4127d5:	ff 
  4127d6:	f3 0f 10 8d 64 f3 ff 	movss  -0xc9c(%rbp),%xmm1
  4127dd:	ff 
  4127de:	8b 85 20 f3 ff ff    	mov    -0xce0(%rbp),%eax
  4127e4:	48 98                	cltq   
  4127e6:	48 c1 e0 04          	shl    $0x4,%rax
  4127ea:	48 01 e8             	add    %rbp,%rax
  4127ed:	48 2d 8c 0c 00 00    	sub    $0xc8c,%rax
  4127f3:	f3 0f 10 00          	movss  (%rax),%xmm0
  4127f7:	f3 0f 58 c1          	addss  %xmm1,%xmm0
  4127fb:	f3 0f 11 85 64 f3 ff 	movss  %xmm0,-0xc9c(%rbp)
  412802:	ff 
  412803:	f3 0f 10 8d 68 f3 ff 	movss  -0xc98(%rbp),%xmm1
  41280a:	ff 
  41280b:	8b 85 20 f3 ff ff    	mov    -0xce0(%rbp),%eax
  412811:	48 98                	cltq   
  412813:	48 c1 e0 04          	shl    $0x4,%rax
  412817:	48 01 e8             	add    %rbp,%rax
  41281a:	48 2d 88 0c 00 00    	sub    $0xc88,%rax
  412820:	f3 0f 10 00          	movss  (%rax),%xmm0
  412824:	f3 0f 58 c1          	addss  %xmm1,%xmm0
  412828:	f3 0f 11 85 68 f3 ff 	movss  %xmm0,-0xc98(%rbp)
  41282f:	ff 
  412830:	f3 0f 10 8d 6c f3 ff 	movss  -0xc94(%rbp),%xmm1
  412837:	ff 
  412838:	8b 85 20 f3 ff ff    	mov    -0xce0(%rbp),%eax
  41283e:	48 98                	cltq   
  412840:	48 c1 e0 04          	shl    $0x4,%rax
  412844:	48 01 e8             	add    %rbp,%rax
  412847:	48 2d 84 0c 00 00    	sub    $0xc84,%rax
  41284d:	f3 0f 10 00          	movss  (%rax),%xmm0
  412851:	f3 0f 58 c1          	addss  %xmm1,%xmm0
  412855:	f3 0f 11 85 6c f3 ff 	movss  %xmm0,-0xc94(%rbp)
  41285c:	ff 
  41285d:	83 85 20 f3 ff ff 01 	addl   $0x1,-0xce0(%rbp)
  412864:	f3 0f 10 8d 60 f3 ff 	movss  -0xca0(%rbp),%xmm1
  41286b:	ff 
  41286c:	8b 85 20 f3 ff ff    	mov    -0xce0(%rbp),%eax
  412872:	48 98                	cltq   
  412874:	48 c1 e0 04          	shl    $0x4,%rax
  412878:	48 01 e8             	add    %rbp,%rax
  41287b:	48 2d 90 0c 00 00    	sub    $0xc90,%rax
  412881:	f3 0f 10 00          	movss  (%rax),%xmm0
  412885:	f3 0f 58 c1          	addss  %xmm1,%xmm0
  412889:	f3 0f 11 85 60 f3 ff 	movss  %xmm0,-0xca0(%rbp)
  412890:	ff 
  412891:	f3 0f 10 8d 64 f3 ff 	movss  -0xc9c(%rbp),%xmm1
  412898:	ff 
  412899:	8b 85 20 f3 ff ff    	mov    -0xce0(%rbp),%eax
  41289f:	48 98                	cltq   
  4128a1:	48 c1 e0 04          	shl    $0x4,%rax
  4128a5:	48 01 e8             	add    %rbp,%rax
  4128a8:	48 2d 8c 0c 00 00    	sub    $0xc8c,%rax
  4128ae:	f3 0f 10 00          	movss  (%rax),%xmm0
  4128b2:	f3 0f 58 c1          	addss  %xmm1,%xmm0
  4128b6:	f3 0f 11 85 64 f3 ff 	movss  %xmm0,-0xc9c(%rbp)
  4128bd:	ff 
  4128be:	f3 0f 10 8d 68 f3 ff 	movss  -0xc98(%rbp),%xmm1
  4128c5:	ff 
  4128c6:	8b 85 20 f3 ff ff    	mov    -0xce0(%rbp),%eax
  4128cc:	48 98                	cltq   
  4128ce:	48 c1 e0 04          	shl    $0x4,%rax
  4128d2:	48 01 e8             	add    %rbp,%rax
  4128d5:	48 2d 88 0c 00 00    	sub    $0xc88,%rax
  4128db:	f3 0f 10 00          	movss  (%rax),%xmm0
  4128df:	f3 0f 58 c1          	addss  %xmm1,%xmm0
  4128e3:	f3 0f 11 85 68 f3 ff 	movss  %xmm0,-0xc98(%rbp)
  4128ea:	ff 
  4128eb:	f3 0f 10 8d 6c f3 ff 	movss  -0xc94(%rbp),%xmm1
  4128f2:	ff 
  4128f3:	8b 85 20 f3 ff ff    	mov    -0xce0(%rbp),%eax
  4128f9:	48 98                	cltq   
  4128fb:	48 c1 e0 04          	shl    $0x4,%rax
  4128ff:	48 01 e8             	add    %rbp,%rax
  412902:	48 2d 84 0c 00 00    	sub    $0xc84,%rax
  412908:	f3 0f 10 00          	movss  (%rax),%xmm0
  41290c:	f3 0f 58 c1          	addss  %xmm1,%xmm0
  412910:	f3 0f 11 85 6c f3 ff 	movss  %xmm0,-0xc94(%rbp)
  412917:	ff 
  412918:	83 85 20 f3 ff ff 01 	addl   $0x1,-0xce0(%rbp)
  41291f:	f3 0f 10 8d 60 f3 ff 	movss  -0xca0(%rbp),%xmm1
  412926:	ff 
  412927:	8b 85 20 f3 ff ff    	mov    -0xce0(%rbp),%eax
  41292d:	48 98                	cltq   
  41292f:	48 c1 e0 04          	shl    $0x4,%rax
  412933:	48 01 e8             	add    %rbp,%rax
  412936:	48 2d 90 0c 00 00    	sub    $0xc90,%rax
  41293c:	f3 0f 10 00          	movss  (%rax),%xmm0
  412940:	f3 0f 58 c1          	addss  %xmm1,%xmm0
  412944:	f3 0f 11 85 60 f3 ff 	movss  %xmm0,-0xca0(%rbp)
  41294b:	ff 
  41294c:	f3 0f 10 8d 64 f3 ff 	movss  -0xc9c(%rbp),%xmm1
  412953:	ff 
  412954:	8b 85 20 f3 ff ff    	mov    -0xce0(%rbp),%eax
  41295a:	48 98                	cltq   
  41295c:	48 c1 e0 04          	shl    $0x4,%rax
  412960:	48 01 e8             	add    %rbp,%rax
  412963:	48 2d 8c 0c 00 00    	sub    $0xc8c,%rax
  412969:	f3 0f 10 00          	movss  (%rax),%xmm0
  41296d:	f3 0f 58 c1          	addss  %xmm1,%xmm0
  412971:	f3 0f 11 85 64 f3 ff 	movss  %xmm0,-0xc9c(%rbp)
  412978:	ff 
  412979:	f3 0f 10 8d 68 f3 ff 	movss  -0xc98(%rbp),%xmm1
  412980:	ff 
  412981:	8b 85 20 f3 ff ff    	mov    -0xce0(%rbp),%eax
  412987:	48 98                	cltq   
  412989:	48 c1 e0 04          	shl    $0x4,%rax
  41298d:	48 01 e8             	add    %rbp,%rax
  412990:	48 2d 88 0c 00 00    	sub    $0xc88,%rax
  412996:	f3 0f 10 00          	movss  (%rax),%xmm0
  41299a:	f3 0f 58 c1          	addss  %xmm1,%xmm0
  41299e:	f3 0f 11 85 68 f3 ff 	movss  %xmm0,-0xc98(%rbp)
  4129a5:	ff 
  4129a6:	f3 0f 10 8d 6c f3 ff 	movss  -0xc94(%rbp),%xmm1
  4129ad:	ff 
  4129ae:	8b 85 20 f3 ff ff    	mov    -0xce0(%rbp),%eax
  4129b4:	48 98                	cltq   
  4129b6:	48 c1 e0 04          	shl    $0x4,%rax
  4129ba:	48 01 e8             	add    %rbp,%rax
  4129bd:	48 2d 84 0c 00 00    	sub    $0xc84,%rax
  4129c3:	f3 0f 10 00          	movss  (%rax),%xmm0
  4129c7:	f3 0f 58 c1          	addss  %xmm1,%xmm0
  4129cb:	f3 0f 11 85 6c f3 ff 	movss  %xmm0,-0xc94(%rbp)
  4129d2:	ff 
  4129d3:	83 85 20 f3 ff ff 01 	addl   $0x1,-0xce0(%rbp)
  4129da:	f3 0f 10 8d 60 f3 ff 	movss  -0xca0(%rbp),%xmm1
  4129e1:	ff 
  4129e2:	8b 85 20 f3 ff ff    	mov    -0xce0(%rbp),%eax
  4129e8:	48 98                	cltq   
  4129ea:	48 c1 e0 04          	shl    $0x4,%rax
  4129ee:	48 01 e8             	add    %rbp,%rax
  4129f1:	48 2d 90 0c 00 00    	sub    $0xc90,%rax
  4129f7:	f3 0f 10 00          	movss  (%rax),%xmm0
  4129fb:	f3 0f 58 c1          	addss  %xmm1,%xmm0
  4129ff:	f3 0f 11 85 60 f3 ff 	movss  %xmm0,-0xca0(%rbp)
  412a06:	ff 
  412a07:	f3 0f 10 8d 64 f3 ff 	movss  -0xc9c(%rbp),%xmm1
  412a0e:	ff 
  412a0f:	8b 85 20 f3 ff ff    	mov    -0xce0(%rbp),%eax
  412a15:	48 98                	cltq   
  412a17:	48 c1 e0 04          	shl    $0x4,%rax
  412a1b:	48 01 e8             	add    %rbp,%rax
  412a1e:	48 2d 8c 0c 00 00    	sub    $0xc8c,%rax
  412a24:	f3 0f 10 00          	movss  (%rax),%xmm0
  412a28:	f3 0f 58 c1          	addss  %xmm1,%xmm0
  412a2c:	f3 0f 11 85 64 f3 ff 	movss  %xmm0,-0xc9c(%rbp)
  412a33:	ff 
  412a34:	f3 0f 10 8d 68 f3 ff 	movss  -0xc98(%rbp),%xmm1
  412a3b:	ff 
  412a3c:	8b 85 20 f3 ff ff    	mov    -0xce0(%rbp),%eax
  412a42:	48 98                	cltq   
  412a44:	48 c1 e0 04          	shl    $0x4,%rax
  412a48:	48 01 e8             	add    %rbp,%rax
  412a4b:	48 2d 88 0c 00 00    	sub    $0xc88,%rax
  412a51:	f3 0f 10 00          	movss  (%rax),%xmm0
  412a55:	f3 0f 58 c1          	addss  %xmm1,%xmm0
  412a59:	f3 0f 11 85 68 f3 ff 	movss  %xmm0,-0xc98(%rbp)
  412a60:	ff 
  412a61:	f3 0f 10 8d 6c f3 ff 	movss  -0xc94(%rbp),%xmm1
  412a68:	ff 
  412a69:	8b 85 20 f3 ff ff    	mov    -0xce0(%rbp),%eax
  412a6f:	48 98                	cltq   
  412a71:	48 c1 e0 04          	shl    $0x4,%rax
  412a75:	48 01 e8             	add    %rbp,%rax
  412a78:	48 2d 84 0c 00 00    	sub    $0xc84,%rax
  412a7e:	f3 0f 10 00          	movss  (%rax),%xmm0
  412a82:	f3 0f 58 c1          	addss  %xmm1,%xmm0
  412a86:	f3 0f 11 85 6c f3 ff 	movss  %xmm0,-0xc94(%rbp)
  412a8d:	ff 
  412a8e:	83 85 20 f3 ff ff 01 	addl   $0x1,-0xce0(%rbp)
  412a95:	c7 85 20 f3 ff ff 00 	movl   $0x0,-0xce0(%rbp)
  412a9c:	00 00 00 
  412a9f:	c7 85 38 f3 ff ff 00 	movl   $0x0,-0xcc8(%rbp)
  412aa6:	00 00 00 
  412aa9:	83 85 30 f3 ff ff 01 	addl   $0x1,-0xcd0(%rbp)
  412ab0:	81 bd 30 f3 ff ff c7 	cmpl   $0xc7,-0xcd0(%rbp)
  412ab7:	00 00 00 
  412aba:	0f 8e ad df fe ff    	jle    400a6d <main+0x1a5>
  412ac0:	c7 85 34 f3 ff ff 00 	movl   $0x0,-0xccc(%rbp)
  412ac7:	00 00 00 
  412aca:	eb 33                	jmp    412aff <main+0x12237>
  412acc:	8b 85 34 f3 ff ff    	mov    -0xccc(%rbp),%eax
  412ad2:	48 98                	cltq   
  412ad4:	f3 0f 10 84 85 60 f3 	movss  -0xca0(%rbp,%rax,4),%xmm0
  412adb:	ff ff 
  412add:	f3 0f 5a c0          	cvtss2sd %xmm0,%xmm0
  412ae1:	8b 85 34 f3 ff ff    	mov    -0xccc(%rbp),%eax
  412ae7:	89 c6                	mov    %eax,%esi
  412ae9:	bf c4 2b 41 00       	mov    $0x412bc4,%edi
  412aee:	b8 01 00 00 00       	mov    $0x1,%eax
  412af3:	e8 48 da fe ff       	callq  400540 <printf@plt>
  412af8:	83 85 34 f3 ff ff 01 	addl   $0x1,-0xccc(%rbp)
  412aff:	83 bd 34 f3 ff ff 03 	cmpl   $0x3,-0xccc(%rbp)
  412b06:	7e c4                	jle    412acc <main+0x12204>
  412b08:	b8 00 00 00 00       	mov    $0x0,%eax
  412b0d:	48 8b 75 f8          	mov    -0x8(%rbp),%rsi
  412b11:	64 48 33 34 25 28 00 	xor    %fs:0x28,%rsi
  412b18:	00 00 
  412b1a:	74 05                	je     412b21 <main+0x12259>
  412b1c:	e8 0f da fe ff       	callq  400530 <__stack_chk_fail@plt>
  412b21:	c9                   	leaveq 
  412b22:	c3                   	retq   
  412b23:	66 2e 0f 1f 84 00 00 	nopw   %cs:0x0(%rax,%rax,1)
  412b2a:	00 00 00 
  412b2d:	0f 1f 00             	nopl   (%rax)

0000000000412b30 <__libc_csu_init>:
  412b30:	41 57                	push   %r15
  412b32:	41 56                	push   %r14
  412b34:	41 89 ff             	mov    %edi,%r15d
  412b37:	41 55                	push   %r13
  412b39:	41 54                	push   %r12
  412b3b:	4c 8d 25 ce 02 20 00 	lea    0x2002ce(%rip),%r12        # 612e10 <__frame_dummy_init_array_entry>
  412b42:	55                   	push   %rbp
  412b43:	48 8d 2d ce 02 20 00 	lea    0x2002ce(%rip),%rbp        # 612e18 <__init_array_end>
  412b4a:	53                   	push   %rbx
  412b4b:	49 89 f6             	mov    %rsi,%r14
  412b4e:	49 89 d5             	mov    %rdx,%r13
  412b51:	4c 29 e5             	sub    %r12,%rbp
  412b54:	48 83 ec 08          	sub    $0x8,%rsp
  412b58:	48 c1 fd 03          	sar    $0x3,%rbp
  412b5c:	e8 9f d9 fe ff       	callq  400500 <_init>
  412b61:	48 85 ed             	test   %rbp,%rbp
  412b64:	74 20                	je     412b86 <__libc_csu_init+0x56>
  412b66:	31 db                	xor    %ebx,%ebx
  412b68:	0f 1f 84 00 00 00 00 	nopl   0x0(%rax,%rax,1)
  412b6f:	00 
  412b70:	4c 89 ea             	mov    %r13,%rdx
  412b73:	4c 89 f6             	mov    %r14,%rsi
  412b76:	44 89 ff             	mov    %r15d,%edi
  412b79:	41 ff 14 dc          	callq  *(%r12,%rbx,8)
  412b7d:	48 83 c3 01          	add    $0x1,%rbx
  412b81:	48 39 eb             	cmp    %rbp,%rbx
  412b84:	75 ea                	jne    412b70 <__libc_csu_init+0x40>
  412b86:	48 83 c4 08          	add    $0x8,%rsp
  412b8a:	5b                   	pop    %rbx
  412b8b:	5d                   	pop    %rbp
  412b8c:	41 5c                	pop    %r12
  412b8e:	41 5d                	pop    %r13
  412b90:	41 5e                	pop    %r14
  412b92:	41 5f                	pop    %r15
  412b94:	c3                   	retq   
  412b95:	90                   	nop
  412b96:	66 2e 0f 1f 84 00 00 	nopw   %cs:0x0(%rax,%rax,1)
  412b9d:	00 00 00 

0000000000412ba0 <__libc_csu_fini>:
  412ba0:	f3 c3                	repz retq 

Disassembly of section .fini:

0000000000412ba4 <_fini>:
  412ba4:	48 83 ec 08          	sub    $0x8,%rsp
  412ba8:	48 83 c4 08          	add    $0x8,%rsp
  412bac:	c3                   	retq   

Disassembly of section .rodata:

0000000000412bb0 <_IO_stdin_used>:
  412bb0:	01 00                	add    %eax,(%rax)
  412bb2:	02 00                	add    (%rax),%al
  412bb4:	72 61                	jb     412c17 <__GNU_EH_FRAME_HDR+0x33>
  412bb6:	6e                   	outsb  %ds:(%rsi),(%dx)
  412bb7:	64 5f                	fs pop %rdi
  412bb9:	61                   	(bad)  
  412bba:	63 63 20             	movslq 0x20(%rbx),%esp
  412bbd:	69 73 20 25 66 0a 00 	imul   $0xa6625,0x20(%rbx),%esi
  412bc4:	72 65                	jb     412c2b <__GNU_EH_FRAME_HDR+0x47>
  412bc6:	73 75                	jae    412c3d <__GNU_EH_FRAME_HDR+0x59>
  412bc8:	6c                   	insb   (%dx),%es:(%rdi)
  412bc9:	74 20                	je     412beb <__GNU_EH_FRAME_HDR+0x7>
  412bcb:	6f                   	outsl  %ds:(%rsi),(%dx)
  412bcc:	66 20 61 63          	data16 and %ah,0x63(%rcx)
  412bd0:	63 75 6d             	movslq 0x6d(%rbp),%esi
  412bd3:	5b                   	pop    %rbx
  412bd4:	25 64 5d 20 69       	and    $0x69205d64,%eax
  412bd9:	73 20                	jae    412bfb <__GNU_EH_FRAME_HDR+0x17>
  412bdb:	25 66 0a 00 00       	and    $0xa66,%eax
  412be0:	00 00                	add    %al,(%rax)
  412be2:	00                   	.byte 0x0
  412be3:	4f                   	rex.WRXB

Disassembly of section .eh_frame_hdr:

0000000000412be4 <__GNU_EH_FRAME_HDR>:
  412be4:	01 1b                	add    %ebx,(%rbx)
  412be6:	03 3b                	add    (%rbx),%edi
  412be8:	50                   	push   %rax
  412be9:	00 00                	add    %al,(%rax)
  412beb:	00 09                	add    %cl,(%rcx)
  412bed:	00 00                	add    %al,(%rax)
  412bef:	00 3c d9             	add    %bh,(%rcx,%rbx,8)
  412bf2:	fe                   	(bad)  
  412bf3:	ff 9c 00 00 00 cc d9 	lcall  *-0x26340000(%rax,%rax,1)
  412bfa:	fe                   	(bad)  
  412bfb:	ff 6c 00 00          	ljmp   *0x0(%rax,%rax,1)
  412bff:	00 c2                	add    %al,%dl
  412c01:	da fe                	(bad)  
  412c03:	ff c4                	inc    %esp
  412c05:	00 00                	add    %al,(%rax)
  412c07:	00 48 db             	add    %cl,-0x25(%rax)
  412c0a:	fe                   	(bad)  
  412c0b:	ff                   	(bad)  
  412c0c:	ec                   	in     (%dx),%al
  412c0d:	00 00                	add    %al,(%rax)
  412c0f:	00 82 db fe ff 0c    	add    %al,0xcfffedb(%rdx)
  412c15:	01 00                	add    %eax,(%rax)
  412c17:	00 61 dc             	add    %ah,-0x24(%rcx)
  412c1a:	fe                   	(bad)  
  412c1b:	ff 34 01             	pushq  (%rcx,%rax,1)
  412c1e:	00 00                	add    %al,(%rax)
  412c20:	e4 dc                	in     $0xdc,%al
  412c22:	fe                   	(bad)  
  412c23:	ff 5c 01 00          	lcall  *0x0(%rcx,%rax,1)
  412c27:	00 4c ff ff          	add    %cl,-0x1(%rdi,%rdi,8)
  412c2b:	ff 84 01 00 00 bc ff 	incl   -0x440000(%rcx,%rax,1)
  412c32:	ff                   	(bad)  
  412c33:	ff cc                	dec    %esp
  412c35:	01 00                	add    %eax,(%rax)
	...

Disassembly of section .eh_frame:

0000000000412c38 <__FRAME_END__-0x190>:
  412c38:	14 00                	adc    $0x0,%al
  412c3a:	00 00                	add    %al,(%rax)
  412c3c:	00 00                	add    %al,(%rax)
  412c3e:	00 00                	add    %al,(%rax)
  412c40:	01 7a 52             	add    %edi,0x52(%rdx)
  412c43:	00 01                	add    %al,(%rcx)
  412c45:	78 10                	js     412c57 <__GNU_EH_FRAME_HDR+0x73>
  412c47:	01 1b                	add    %ebx,(%rbx)
  412c49:	0c 07                	or     $0x7,%al
  412c4b:	08 90 01 07 10 14    	or     %dl,0x14100701(%rax)
  412c51:	00 00                	add    %al,(%rax)
  412c53:	00 1c 00             	add    %bl,(%rax,%rax,1)
  412c56:	00 00                	add    %al,(%rax)
  412c58:	58                   	pop    %rax
  412c59:	d9 fe                	fsin   
  412c5b:	ff 2a                	ljmp   *(%rdx)
	...
  412c65:	00 00                	add    %al,(%rax)
  412c67:	00 14 00             	add    %dl,(%rax,%rax,1)
  412c6a:	00 00                	add    %al,(%rax)
  412c6c:	00 00                	add    %al,(%rax)
  412c6e:	00 00                	add    %al,(%rax)
  412c70:	01 7a 52             	add    %edi,0x52(%rdx)
  412c73:	00 01                	add    %al,(%rcx)
  412c75:	78 10                	js     412c87 <__GNU_EH_FRAME_HDR+0xa3>
  412c77:	01 1b                	add    %ebx,(%rbx)
  412c79:	0c 07                	or     $0x7,%al
  412c7b:	08 90 01 00 00 24    	or     %dl,0x24000001(%rax)
  412c81:	00 00                	add    %al,(%rax)
  412c83:	00 1c 00             	add    %bl,(%rax,%rax,1)
  412c86:	00 00                	add    %al,(%rax)
  412c88:	98                   	cwtl   
  412c89:	d8 fe                	fdivr  %st(6),%st
  412c8b:	ff 80 00 00 00 00    	incl   0x0(%rax)
  412c91:	0e                   	(bad)  
  412c92:	10 46 0e             	adc    %al,0xe(%rsi)
  412c95:	18 4a 0f             	sbb    %cl,0xf(%rdx)
  412c98:	0b 77 08             	or     0x8(%rdi),%esi
  412c9b:	80 00 3f             	addb   $0x3f,(%rax)
  412c9e:	1a 3b                	sbb    (%rbx),%bh
  412ca0:	2a 33                	sub    (%rbx),%dh
  412ca2:	24 22                	and    $0x22,%al
  412ca4:	00 00                	add    %al,(%rax)
  412ca6:	00 00                	add    %al,(%rax)
  412ca8:	24 00                	and    $0x0,%al
  412caa:	00 00                	add    %al,(%rax)
  412cac:	44 00 00             	add    %r8b,(%rax)
  412caf:	00 f6                	add    %dh,%dh
  412cb1:	d9 fe                	fsin   
  412cb3:	ff 86 00 00 00 00    	incl   0x0(%rsi)
  412cb9:	41 0e                	rex.B (bad) 
  412cbb:	10 86 02 43 0d 06    	adc    %al,0x60d4302(%rsi)
  412cc1:	45 83 03 02          	rex.RB addl $0x2,(%r11)
  412cc5:	7c 0c                	jl     412cd3 <__GNU_EH_FRAME_HDR+0xef>
  412cc7:	07                   	(bad)  
  412cc8:	08 00                	or     %al,(%rax)
  412cca:	00 00                	add    %al,(%rax)
  412ccc:	00 00                	add    %al,(%rax)
  412cce:	00 00                	add    %al,(%rax)
  412cd0:	1c 00                	sbb    $0x0,%al
  412cd2:	00 00                	add    %al,(%rax)
  412cd4:	6c                   	insb   (%dx),%es:(%rdi)
  412cd5:	00 00                	add    %al,(%rax)
  412cd7:	00 54 da fe          	add    %dl,-0x2(%rdx,%rbx,8)
  412cdb:	ff                   	(bad)  
  412cdc:	3a 00                	cmp    (%rax),%al
  412cde:	00 00                	add    %al,(%rax)
  412ce0:	00 41 0e             	add    %al,0xe(%rcx)
  412ce3:	10 86 02 43 0d 06    	adc    %al,0x60d4302(%rsi)
  412ce9:	75 0c                	jne    412cf7 <__GNU_EH_FRAME_HDR+0x113>
  412ceb:	07                   	(bad)  
  412cec:	08 00                	or     %al,(%rax)
  412cee:	00 00                	add    %al,(%rax)
  412cf0:	24 00                	and    $0x0,%al
  412cf2:	00 00                	add    %al,(%rax)
  412cf4:	8c 00                	mov    %es,(%rax)
  412cf6:	00 00                	add    %al,(%rax)
  412cf8:	6e                   	outsb  %ds:(%rsi),(%dx)
  412cf9:	da fe                	(bad)  
  412cfb:	ff                   	(bad)  
  412cfc:	df 00                	fild   (%rax)
  412cfe:	00 00                	add    %al,(%rax)
  412d00:	00 41 0e             	add    %al,0xe(%rcx)
  412d03:	10 86 02 43 0d 06    	adc    %al,0x60d4302(%rsi)
  412d09:	45 83 03 02          	rex.RB addl $0x2,(%r11)
  412d0d:	d5                   	(bad)  
  412d0e:	0c 07                	or     $0x7,%al
  412d10:	08 00                	or     %al,(%rax)
  412d12:	00 00                	add    %al,(%rax)
  412d14:	00 00                	add    %al,(%rax)
  412d16:	00 00                	add    %al,(%rax)
  412d18:	24 00                	and    $0x0,%al
  412d1a:	00 00                	add    %al,(%rax)
  412d1c:	b4 00                	mov    $0x0,%ah
  412d1e:	00 00                	add    %al,(%rax)
  412d20:	25 db fe ff 83       	and    $0x83fffedb,%eax
  412d25:	00 00                	add    %al,(%rax)
  412d27:	00 00                	add    %al,(%rax)
  412d29:	41 0e                	rex.B (bad) 
  412d2b:	10 86 02 43 0d 06    	adc    %al,0x60d4302(%rsi)
  412d31:	45 83 03 02          	rex.RB addl $0x2,(%r11)
  412d35:	79 0c                	jns    412d43 <__GNU_EH_FRAME_HDR+0x15f>
  412d37:	07                   	(bad)  
  412d38:	08 00                	or     %al,(%rax)
  412d3a:	00 00                	add    %al,(%rax)
  412d3c:	00 00                	add    %al,(%rax)
  412d3e:	00 00                	add    %al,(%rax)
  412d40:	24 00                	and    $0x0,%al
  412d42:	00 00                	add    %al,(%rax)
  412d44:	dc 00                	faddl  (%rax)
  412d46:	00 00                	add    %al,(%rax)
  412d48:	80 db fe             	sbb    $0xfe,%bl
  412d4b:	ff 5b 22             	lcall  *0x22(%rbx)
  412d4e:	01 00                	add    %eax,(%rax)
  412d50:	00 41 0e             	add    %al,0xe(%rcx)
  412d53:	10 86 02 43 0d 06    	adc    %al,0x60d4302(%rsi)
  412d59:	04 56                	add    $0x56,%al
  412d5b:	22 01                	and    (%rcx),%al
  412d5d:	00 0c 07             	add    %cl,(%rdi,%rax,1)
  412d60:	08 00                	or     %al,(%rax)
  412d62:	00 00                	add    %al,(%rax)
  412d64:	00 00                	add    %al,(%rax)
  412d66:	00 00                	add    %al,(%rax)
  412d68:	44 00 00             	add    %r8b,(%rax)
  412d6b:	00 04 01             	add    %al,(%rcx,%rax,1)
  412d6e:	00 00                	add    %al,(%rax)
  412d70:	c0 fd ff             	sar    $0xff,%ch
  412d73:	ff 65 00             	jmpq   *0x0(%rbp)
  412d76:	00 00                	add    %al,(%rax)
  412d78:	00 42 0e             	add    %al,0xe(%rdx)
  412d7b:	10 8f 02 42 0e 18    	adc    %cl,0x180e4202(%rdi)
  412d81:	8e 03                	mov    (%rbx),%es
  412d83:	45 0e                	rex.RB (bad) 
  412d85:	20 8d 04 42 0e 28    	and    %cl,0x280e4204(%rbp)
  412d8b:	8c 05 48 0e 30 86    	mov    %es,-0x79cff1b8(%rip)        # ffffffff86713bd9 <_end+0xffffffff86100b71>
  412d91:	06                   	(bad)  
  412d92:	48 0e                	rex.W (bad) 
  412d94:	38 83 07 4d 0e 40    	cmp    %al,0x400e4d07(%rbx)
  412d9a:	72 0e                	jb     412daa <__GNU_EH_FRAME_HDR+0x1c6>
  412d9c:	38 41 0e             	cmp    %al,0xe(%rcx)
  412d9f:	30 41 0e             	xor    %al,0xe(%rcx)
  412da2:	28 42 0e             	sub    %al,0xe(%rdx)
  412da5:	20 42 0e             	and    %al,0xe(%rdx)
  412da8:	18 42 0e             	sbb    %al,0xe(%rdx)
  412dab:	10 42 0e             	adc    %al,0xe(%rdx)
  412dae:	08 00                	or     %al,(%rax)
  412db0:	14 00                	adc    $0x0,%al
  412db2:	00 00                	add    %al,(%rax)
  412db4:	4c 01 00             	add    %r8,(%rax)
  412db7:	00 e8                	add    %ch,%al
  412db9:	fd                   	std    
  412dba:	ff                   	(bad)  
  412dbb:	ff 02                	incl   (%rdx)
	...

0000000000412dc8 <__FRAME_END__>:
  412dc8:	00 00                	add    %al,(%rax)
	...

Disassembly of section .init_array:

0000000000612e10 <__frame_dummy_init_array_entry>:
  612e10:	80 06 40             	addb   $0x40,(%rsi)
  612e13:	00 00                	add    %al,(%rax)
  612e15:	00 00                	add    %al,(%rax)
	...

Disassembly of section .fini_array:

0000000000612e18 <__do_global_dtors_aux_fini_array_entry>:
  612e18:	60                   	(bad)  
  612e19:	06                   	(bad)  
  612e1a:	40 00 00             	add    %al,(%rax)
  612e1d:	00 00                	add    %al,(%rax)
	...

Disassembly of section .jcr:

0000000000612e20 <__JCR_END__>:
	...

Disassembly of section .dynamic:

0000000000612e28 <_DYNAMIC>:
  612e28:	01 00                	add    %eax,(%rax)
  612e2a:	00 00                	add    %al,(%rax)
  612e2c:	00 00                	add    %al,(%rax)
  612e2e:	00 00                	add    %al,(%rax)
  612e30:	01 00                	add    %eax,(%rax)
  612e32:	00 00                	add    %al,(%rax)
  612e34:	00 00                	add    %al,(%rax)
  612e36:	00 00                	add    %al,(%rax)
  612e38:	0c 00                	or     $0x0,%al
  612e3a:	00 00                	add    %al,(%rax)
  612e3c:	00 00                	add    %al,(%rax)
  612e3e:	00 00                	add    %al,(%rax)
  612e40:	00 05 40 00 00 00    	add    %al,0x40(%rip)        # 612e86 <_DYNAMIC+0x5e>
  612e46:	00 00                	add    %al,(%rax)
  612e48:	0d 00 00 00 00       	or     $0x0,%eax
  612e4d:	00 00                	add    %al,(%rax)
  612e4f:	00 a4 2b 41 00 00 00 	add    %ah,0x41(%rbx,%rbp,1)
  612e56:	00 00                	add    %al,(%rax)
  612e58:	19 00                	sbb    %eax,(%rax)
  612e5a:	00 00                	add    %al,(%rax)
  612e5c:	00 00                	add    %al,(%rax)
  612e5e:	00 00                	add    %al,(%rax)
  612e60:	10 2e                	adc    %ch,(%rsi)
  612e62:	61                   	(bad)  
  612e63:	00 00                	add    %al,(%rax)
  612e65:	00 00                	add    %al,(%rax)
  612e67:	00 1b                	add    %bl,(%rbx)
  612e69:	00 00                	add    %al,(%rax)
  612e6b:	00 00                	add    %al,(%rax)
  612e6d:	00 00                	add    %al,(%rax)
  612e6f:	00 08                	add    %cl,(%rax)
  612e71:	00 00                	add    %al,(%rax)
  612e73:	00 00                	add    %al,(%rax)
  612e75:	00 00                	add    %al,(%rax)
  612e77:	00 1a                	add    %bl,(%rdx)
  612e79:	00 00                	add    %al,(%rax)
  612e7b:	00 00                	add    %al,(%rax)
  612e7d:	00 00                	add    %al,(%rax)
  612e7f:	00 18                	add    %bl,(%rax)
  612e81:	2e 61                	cs (bad) 
  612e83:	00 00                	add    %al,(%rax)
  612e85:	00 00                	add    %al,(%rax)
  612e87:	00 1c 00             	add    %bl,(%rax,%rax,1)
  612e8a:	00 00                	add    %al,(%rax)
  612e8c:	00 00                	add    %al,(%rax)
  612e8e:	00 00                	add    %al,(%rax)
  612e90:	08 00                	or     %al,(%rax)
  612e92:	00 00                	add    %al,(%rax)
  612e94:	00 00                	add    %al,(%rax)
  612e96:	00 00                	add    %al,(%rax)
  612e98:	f5                   	cmc    
  612e99:	fe                   	(bad)  
  612e9a:	ff 6f 00             	ljmp   *0x0(%rdi)
  612e9d:	00 00                	add    %al,(%rax)
  612e9f:	00 98 02 40 00 00    	add    %bl,0x4002(%rax)
  612ea5:	00 00                	add    %al,(%rax)
  612ea7:	00 05 00 00 00 00    	add    %al,0x0(%rip)        # 612ead <_DYNAMIC+0x85>
  612ead:	00 00                	add    %al,(%rax)
  612eaf:	00 90 03 40 00 00    	add    %dl,0x4003(%rax)
  612eb5:	00 00                	add    %al,(%rax)
  612eb7:	00 06                	add    %al,(%rsi)
  612eb9:	00 00                	add    %al,(%rax)
  612ebb:	00 00                	add    %al,(%rax)
  612ebd:	00 00                	add    %al,(%rax)
  612ebf:	00 b8 02 40 00 00    	add    %bh,0x4002(%rax)
  612ec5:	00 00                	add    %al,(%rax)
  612ec7:	00 0a                	add    %cl,(%rdx)
  612ec9:	00 00                	add    %al,(%rax)
  612ecb:	00 00                	add    %al,(%rax)
  612ecd:	00 00                	add    %al,(%rax)
  612ecf:	00 6c 00 00          	add    %ch,0x0(%rax,%rax,1)
  612ed3:	00 00                	add    %al,(%rax)
  612ed5:	00 00                	add    %al,(%rax)
  612ed7:	00 0b                	add    %cl,(%rbx)
  612ed9:	00 00                	add    %al,(%rax)
  612edb:	00 00                	add    %al,(%rax)
  612edd:	00 00                	add    %al,(%rax)
  612edf:	00 18                	add    %bl,(%rax)
  612ee1:	00 00                	add    %al,(%rax)
  612ee3:	00 00                	add    %al,(%rax)
  612ee5:	00 00                	add    %al,(%rax)
  612ee7:	00 15 00 00 00 00    	add    %dl,0x0(%rip)        # 612eed <_DYNAMIC+0xc5>
	...
  612ef5:	00 00                	add    %al,(%rax)
  612ef7:	00 03                	add    %al,(%rbx)
	...
  612f01:	30 61 00             	xor    %ah,0x0(%rcx)
  612f04:	00 00                	add    %al,(%rax)
  612f06:	00 00                	add    %al,(%rax)
  612f08:	02 00                	add    (%rax),%al
  612f0a:	00 00                	add    %al,(%rax)
  612f0c:	00 00                	add    %al,(%rax)
  612f0e:	00 00                	add    %al,(%rax)
  612f10:	a8 00                	test   $0x0,%al
  612f12:	00 00                	add    %al,(%rax)
  612f14:	00 00                	add    %al,(%rax)
  612f16:	00 00                	add    %al,(%rax)
  612f18:	14 00                	adc    $0x0,%al
  612f1a:	00 00                	add    %al,(%rax)
  612f1c:	00 00                	add    %al,(%rax)
  612f1e:	00 00                	add    %al,(%rax)
  612f20:	07                   	(bad)  
  612f21:	00 00                	add    %al,(%rax)
  612f23:	00 00                	add    %al,(%rax)
  612f25:	00 00                	add    %al,(%rax)
  612f27:	00 17                	add    %dl,(%rdi)
  612f29:	00 00                	add    %al,(%rax)
  612f2b:	00 00                	add    %al,(%rax)
  612f2d:	00 00                	add    %al,(%rax)
  612f2f:	00 58 04             	add    %bl,0x4(%rax)
  612f32:	40 00 00             	add    %al,(%rax)
  612f35:	00 00                	add    %al,(%rax)
  612f37:	00 07                	add    %al,(%rdi)
  612f39:	00 00                	add    %al,(%rax)
  612f3b:	00 00                	add    %al,(%rax)
  612f3d:	00 00                	add    %al,(%rax)
  612f3f:	00 40 04             	add    %al,0x4(%rax)
  612f42:	40 00 00             	add    %al,(%rax)
  612f45:	00 00                	add    %al,(%rax)
  612f47:	00 08                	add    %cl,(%rax)
  612f49:	00 00                	add    %al,(%rax)
  612f4b:	00 00                	add    %al,(%rax)
  612f4d:	00 00                	add    %al,(%rax)
  612f4f:	00 18                	add    %bl,(%rax)
  612f51:	00 00                	add    %al,(%rax)
  612f53:	00 00                	add    %al,(%rax)
  612f55:	00 00                	add    %al,(%rax)
  612f57:	00 09                	add    %cl,(%rcx)
  612f59:	00 00                	add    %al,(%rax)
  612f5b:	00 00                	add    %al,(%rax)
  612f5d:	00 00                	add    %al,(%rax)
  612f5f:	00 18                	add    %bl,(%rax)
  612f61:	00 00                	add    %al,(%rax)
  612f63:	00 00                	add    %al,(%rax)
  612f65:	00 00                	add    %al,(%rax)
  612f67:	00 fe                	add    %bh,%dh
  612f69:	ff                   	(bad)  
  612f6a:	ff 6f 00             	ljmp   *0x0(%rdi)
  612f6d:	00 00                	add    %al,(%rax)
  612f6f:	00 10                	add    %dl,(%rax)
  612f71:	04 40                	add    $0x40,%al
  612f73:	00 00                	add    %al,(%rax)
  612f75:	00 00                	add    %al,(%rax)
  612f77:	00 ff                	add    %bh,%bh
  612f79:	ff                   	(bad)  
  612f7a:	ff 6f 00             	ljmp   *0x0(%rdi)
  612f7d:	00 00                	add    %al,(%rax)
  612f7f:	00 01                	add    %al,(%rcx)
  612f81:	00 00                	add    %al,(%rax)
  612f83:	00 00                	add    %al,(%rax)
  612f85:	00 00                	add    %al,(%rax)
  612f87:	00 f0                	add    %dh,%al
  612f89:	ff                   	(bad)  
  612f8a:	ff 6f 00             	ljmp   *0x0(%rdi)
  612f8d:	00 00                	add    %al,(%rax)
  612f8f:	00 fc                	add    %bh,%ah
  612f91:	03 40 00             	add    0x0(%rax),%eax
	...

Disassembly of section .got:

0000000000612ff8 <.got>:
	...

Disassembly of section .got.plt:

0000000000613000 <_GLOBAL_OFFSET_TABLE_>:
  613000:	28 2e                	sub    %ch,(%rsi)
  613002:	61                   	(bad)  
	...
  613017:	00 36                	add    %dh,(%rsi)
  613019:	05 40 00 00 00       	add    $0x40,%eax
  61301e:	00 00                	add    %al,(%rax)
  613020:	46 05 40 00 00 00    	rex.RX add $0x40,%eax
  613026:	00 00                	add    %al,(%rax)
  613028:	56                   	push   %rsi
  613029:	05 40 00 00 00       	add    $0x40,%eax
  61302e:	00 00                	add    %al,(%rax)
  613030:	66 05 40 00          	add    $0x40,%ax
  613034:	00 00                	add    %al,(%rax)
  613036:	00 00                	add    %al,(%rax)
  613038:	76 05                	jbe    61303f <_GLOBAL_OFFSET_TABLE_+0x3f>
  61303a:	40 00 00             	add    %al,(%rax)
  61303d:	00 00                	add    %al,(%rax)
  61303f:	00 86 05 40 00 00    	add    %al,0x4005(%rsi)
  613045:	00 00                	add    %al,(%rax)
  613047:	00 96 05 40 00 00    	add    %dl,0x4005(%rsi)
  61304d:	00 00                	add    %al,(%rax)
	...

Disassembly of section .data:

0000000000613050 <__data_start>:
	...

0000000000613058 <__dso_handle>:
	...

Disassembly of section .bss:

0000000000613060 <__bss_start>:
	...

Disassembly of section .comment:

0000000000000000 <.comment>:
   0:	47                   	rex.RXB
   1:	43                   	rex.XB
   2:	43 3a 20             	rex.XB cmp (%r8),%spl
   5:	28 55 62             	sub    %dl,0x62(%rbp)
   8:	75 6e                	jne    78 <_init-0x400488>
   a:	74 75                	je     81 <_init-0x40047f>
   c:	20 35 2e 34 2e 30    	and    %dh,0x302e342e(%rip)        # 302e3440 <_end+0x2fcd03d8>
  12:	2d 36 75 62 75       	sub    $0x75627536,%eax
  17:	6e                   	outsb  %ds:(%rsi),(%dx)
  18:	74 75                	je     8f <_init-0x400471>
  1a:	31 7e 31             	xor    %edi,0x31(%rsi)
  1d:	36 2e 30 34 2e       	ss xor %dh,%cs:(%rsi,%rbp,1)
  22:	39 29                	cmp    %ebp,(%rcx)
  24:	20 35 2e 34 2e 30    	and    %dh,0x302e342e(%rip)        # 302e3458 <_end+0x2fcd03f0>
  2a:	20 32                	and    %dh,(%rdx)
  2c:	30 31                	xor    %dh,(%rcx)
  2e:	36 30 36             	xor    %dh,%ss:(%rsi)
  31:	30 39                	xor    %bh,(%rcx)
	...
