	.file	"test_sub.c"
	.text
	.globl	subtract
	.type	subtract, @function
subtract:
.LFB2:
	.cfi_startproc
	pushq	%rbp
	.cfi_def_cfa_offset 16
	.cfi_offset 6, -16
	movq	%rsp, %rbp
	.cfi_def_cfa_register 6
	movss	%xmm0, -20(%rbp)
	movss	%xmm1, -24(%rbp)
	pxor	%xmm0, %xmm0
	movss	%xmm0, -4(%rbp)
#APP
# 9 "test_sub.c" 1
	fsubr %st(1), %st
# 0 "" 2
#NO_APP
	movss	-4(%rbp), %xmm0
	popq	%rbp
	.cfi_def_cfa 7, 8
	ret
	.cfi_endproc
.LFE2:
	.size	subtract, .-subtract
	.globl	subtract2
	.type	subtract2, @function
subtract2:
.LFB3:
	.cfi_startproc
	pushq	%rbp
	.cfi_def_cfa_offset 16
	.cfi_offset 6, -16
	movq	%rsp, %rbp
	.cfi_def_cfa_register 6
	movl	%edi, -20(%rbp)
	movl	%esi, -24(%rbp)
	movl	$0, -4(%rbp)
	movl	-24(%rbp), %eax
	subl	-20(%rbp), %eax
	movl	%eax, -4(%rbp)
	movl	-4(%rbp), %eax
	popq	%rbp
	.cfi_def_cfa 7, 8
	ret
	.cfi_endproc
.LFE3:
	.size	subtract2, .-subtract2
	.globl	subtract3
	.type	subtract3, @function
subtract3:
.LFB4:
	.cfi_startproc
	pushq	%rbp
	.cfi_def_cfa_offset 16
	.cfi_offset 6, -16
	movq	%rsp, %rbp
	.cfi_def_cfa_register 6
	movl	%edi, -20(%rbp)
	movl	%esi, -24(%rbp)
	movl	$0, -4(%rbp)
	movl	-24(%rbp), %edx
	movl	-20(%rbp), %eax
	addl	%edx, %eax
	movl	%eax, -4(%rbp)
	movl	-4(%rbp), %eax
	popq	%rbp
	.cfi_def_cfa 7, 8
	ret
	.cfi_endproc
.LFE4:
	.size	subtract3, .-subtract3
	.globl	my_malloc
	.type	my_malloc, @function
my_malloc:
.LFB5:
	.cfi_startproc
	pushq	%rbp
	.cfi_def_cfa_offset 16
	.cfi_offset 6, -16
	movq	%rsp, %rbp
	.cfi_def_cfa_register 6
	movl	%edi, -20(%rbp)
	movl	-20(%rbp), %eax
	addl	$2, %eax
	movl	%eax, -4(%rbp)
	movl	-4(%rbp), %eax
	popq	%rbp
	.cfi_def_cfa 7, 8
	ret
	.cfi_endproc
.LFE5:
	.size	my_malloc, .-my_malloc
	.section	.rodata
.LC3:
	.string	"my_malloc result3: %i\n"
	.text
	.globl	main
	.type	main, @function
main:
.LFB6:
	.cfi_startproc
	pushq	%rbp
	.cfi_def_cfa_offset 16
	.cfi_offset 6, -16
	movq	%rsp, %rbp
	.cfi_def_cfa_register 6
	subq	$48, %rsp
	movl	%edi, -36(%rbp)
	movq	%rsi, -48(%rbp)
	movss	.LC1(%rip), %xmm0
	movss	%xmm0, -20(%rbp)
	movss	.LC2(%rip), %xmm0
	movss	%xmm0, -16(%rbp)
	movl	$111, -12(%rbp)
	movl	$444, -8(%rbp)
	movl	-8(%rbp), %edx
	movl	-12(%rbp), %eax
	movl	%edx, %esi
	movl	%eax, %edi
	call	subtract3
	movl	%eax, -4(%rbp)
	movq	stdout(%rip), %rax
	movl	-4(%rbp), %edx
	movl	$.LC3, %esi
	movq	%rax, %rdi
	movl	$0, %eax
	call	fprintf
	movl	$0, %eax
	leave
	.cfi_def_cfa 7, 8
	ret
	.cfi_endproc
.LFE6:
	.size	main, .-main
	.section	.rodata
	.align 4
.LC1:
	.long	1103626240
	.align 4
.LC2:
	.long	1120272384
	.ident	"GCC: (Ubuntu 5.4.0-6ubuntu1~16.04.10) 5.4.0 20160609"
	.section	.note.GNU-stack,"",@progbits
